	.syntax unified
	.cpu cortex-m3
	.fpu softvfp
	.eabi_attribute 20, 1
	.eabi_attribute 21, 1
	.eabi_attribute 23, 3
	.eabi_attribute 24, 1
	.eabi_attribute 25, 1
	.eabi_attribute 26, 1
	.eabi_attribute 30, 6
	.eabi_attribute 34, 1
	.eabi_attribute 18, 4
	.thumb
	.file	"stm32f10x_rcc.c"
	.text
.Ltext0:
	.cfi_sections	.debug_frame
	.data
	.align	2
	.type	APBAHBPrescTable, %object
	.size	APBAHBPrescTable, 16
APBAHBPrescTable:
	.byte	0
	.byte	0
	.byte	0
	.byte	0
	.byte	1
	.byte	2
	.byte	3
	.byte	4
	.byte	1
	.byte	2
	.byte	3
	.byte	4
	.byte	6
	.byte	7
	.byte	8
	.byte	9
	.align	2
	.type	ADCPrescTable, %object
	.size	ADCPrescTable, 4
ADCPrescTable:
	.byte	2
	.byte	4
	.byte	6
	.byte	8
	.section	.text.RCC_DeInit,"ax",%progbits
	.align	2
	.global	RCC_DeInit
	.thumb
	.thumb_func
	.type	RCC_DeInit, %function
RCC_DeInit:
.LFB56:
	.file 1 "C:\\Users\\Uporabnik\\Documents\\CooCox\\STM32F103\\Blink_USART1_test\\stm_lib\\src\\stm32f10x_rcc.c"
	.loc 1 218 0
	.cfi_startproc
	@ args = 0, pretend = 0, frame = 0
	@ frame_needed = 1, uses_anonymous_args = 0
	@ link register save eliminated.
	push	{r7}
	.cfi_def_cfa_offset 4
	.cfi_offset 7, -4
	add	r7, sp, #0
	.cfi_def_cfa_register 7
	.loc 1 220 0
	ldr	r3, .L2
	ldr	r2, .L2
	ldr	r2, [r2]
	orr	r2, r2, #1
	str	r2, [r3]
	.loc 1 224 0
	ldr	r2, .L2
	ldr	r3, .L2
	ldr	r1, [r3, #4]
	ldr	r3, .L2+4
	ands	r3, r3, r1
	str	r3, [r2, #4]
	.loc 1 230 0
	ldr	r2, .L2
	ldr	r3, .L2
	ldr	r3, [r3]
	bic	r3, r3, #17301504
	bic	r3, r3, #65536
	str	r3, [r2]
	.loc 1 233 0
	ldr	r3, .L2
	ldr	r2, .L2
	ldr	r2, [r2]
	bic	r2, r2, #262144
	str	r2, [r3]
	.loc 1 236 0
	ldr	r3, .L2
	ldr	r2, .L2
	ldr	r2, [r2, #4]
	bic	r2, r2, #8323072
	str	r2, [r3, #4]
	.loc 1 255 0
	ldr	r3, .L2
	mov	r2, #10420224
	str	r2, [r3, #8]
	.loc 1 258 0
	mov	sp, r7
	@ sp needed
	ldr	r7, [sp], #4
	bx	lr
.L3:
	.align	2
.L2:
	.word	1073876992
	.word	-117506048
	.cfi_endproc
.LFE56:
	.size	RCC_DeInit, .-RCC_DeInit
	.section	.text.RCC_HSEConfig,"ax",%progbits
	.align	2
	.global	RCC_HSEConfig
	.thumb
	.thumb_func
	.type	RCC_HSEConfig, %function
RCC_HSEConfig:
.LFB57:
	.loc 1 271 0
	.cfi_startproc
	@ args = 0, pretend = 0, frame = 8
	@ frame_needed = 1, uses_anonymous_args = 0
	@ link register save eliminated.
	push	{r7}
	.cfi_def_cfa_offset 4
	.cfi_offset 7, -4
	sub	sp, sp, #12
	.cfi_def_cfa_offset 16
	add	r7, sp, #0
	.cfi_def_cfa_register 7
	str	r0, [r7, #4]
	.loc 1 276 0
	ldr	r3, .L9
	ldr	r2, .L9
	ldr	r2, [r2]
	bic	r2, r2, #65536
	str	r2, [r3]
	.loc 1 278 0
	ldr	r3, .L9
	ldr	r2, .L9
	ldr	r2, [r2]
	bic	r2, r2, #262144
	str	r2, [r3]
	.loc 1 280 0
	ldr	r3, [r7, #4]
	cmp	r3, #65536
	beq	.L6
	cmp	r3, #262144
	beq	.L7
	.loc 1 293 0
	b	.L4
.L6:
	.loc 1 284 0
	ldr	r3, .L9
	ldr	r2, .L9
	ldr	r2, [r2]
	orr	r2, r2, #65536
	str	r2, [r3]
	.loc 1 285 0
	b	.L4
.L7:
	.loc 1 289 0
	ldr	r3, .L9
	ldr	r2, .L9
	ldr	r2, [r2]
	orr	r2, r2, #327680
	str	r2, [r3]
	.loc 1 290 0
	nop
.L4:
	.loc 1 295 0
	adds	r7, r7, #12
	mov	sp, r7
	@ sp needed
	ldr	r7, [sp], #4
	bx	lr
.L10:
	.align	2
.L9:
	.word	1073876992
	.cfi_endproc
.LFE57:
	.size	RCC_HSEConfig, .-RCC_HSEConfig
	.section	.text.RCC_WaitForHSEStartUp,"ax",%progbits
	.align	2
	.global	RCC_WaitForHSEStartUp
	.thumb
	.thumb_func
	.type	RCC_WaitForHSEStartUp, %function
RCC_WaitForHSEStartUp:
.LFB58:
	.loc 1 305 0
	.cfi_startproc
	@ args = 0, pretend = 0, frame = 8
	@ frame_needed = 1, uses_anonymous_args = 0
	push	{r7, lr}
	.cfi_def_cfa_offset 8
	.cfi_offset 7, -8
	.cfi_offset 14, -4
	sub	sp, sp, #8
	.cfi_def_cfa_offset 16
	add	r7, sp, #0
	.cfi_def_cfa_register 7
	.loc 1 306 0
	movs	r3, #0
	str	r3, [r7]
	.loc 1 307 0
	movs	r3, #0
	strb	r3, [r7, #7]
	.loc 1 308 0
	movs	r3, #0
	strb	r3, [r7, #6]
.L13:
	.loc 1 313 0 discriminator 1
	movs	r0, #49
	bl	RCC_GetFlagStatus
	mov	r3, r0
	strb	r3, [r7, #6]
	.loc 1 314 0 discriminator 1
	ldr	r3, [r7]
	adds	r3, r3, #1
	str	r3, [r7]
	.loc 1 315 0 discriminator 1
	ldr	r3, [r7]
	cmp	r3, #1280
	beq	.L12
	ldrb	r3, [r7, #6]	@ zero_extendqisi2
	cmp	r3, #0
	beq	.L13
.L12:
	.loc 1 317 0
	movs	r0, #49
	bl	RCC_GetFlagStatus
	mov	r3, r0
	cmp	r3, #0
	beq	.L14
	.loc 1 319 0
	movs	r3, #1
	strb	r3, [r7, #7]
	b	.L15
.L14:
	.loc 1 323 0
	movs	r3, #0
	strb	r3, [r7, #7]
.L15:
	.loc 1 325 0
	ldrb	r3, [r7, #7]	@ zero_extendqisi2
	.loc 1 326 0
	mov	r0, r3
	adds	r7, r7, #8
	mov	sp, r7
	@ sp needed
	pop	{r7, pc}
	.cfi_endproc
.LFE58:
	.size	RCC_WaitForHSEStartUp, .-RCC_WaitForHSEStartUp
	.section	.text.RCC_AdjustHSICalibrationValue,"ax",%progbits
	.align	2
	.global	RCC_AdjustHSICalibrationValue
	.thumb
	.thumb_func
	.type	RCC_AdjustHSICalibrationValue, %function
RCC_AdjustHSICalibrationValue:
.LFB59:
	.loc 1 335 0
	.cfi_startproc
	@ args = 0, pretend = 0, frame = 16
	@ frame_needed = 1, uses_anonymous_args = 0
	@ link register save eliminated.
	push	{r7}
	.cfi_def_cfa_offset 4
	.cfi_offset 7, -4
	sub	sp, sp, #20
	.cfi_def_cfa_offset 24
	add	r7, sp, #0
	.cfi_def_cfa_register 7
	mov	r3, r0
	strb	r3, [r7, #7]
	.loc 1 336 0
	movs	r3, #0
	str	r3, [r7, #12]
	.loc 1 339 0
	ldr	r3, .L18
	ldr	r3, [r3]
	str	r3, [r7, #12]
	.loc 1 341 0
	ldr	r3, [r7, #12]
	bic	r3, r3, #248
	str	r3, [r7, #12]
	.loc 1 343 0
	ldrb	r3, [r7, #7]	@ zero_extendqisi2
	lsls	r3, r3, #3
	ldr	r2, [r7, #12]
	orrs	r3, r3, r2
	str	r3, [r7, #12]
	.loc 1 345 0
	ldr	r3, .L18
	ldr	r2, [r7, #12]
	str	r2, [r3]
	.loc 1 346 0
	adds	r7, r7, #20
	mov	sp, r7
	@ sp needed
	ldr	r7, [sp], #4
	bx	lr
.L19:
	.align	2
.L18:
	.word	1073876992
	.cfi_endproc
.LFE59:
	.size	RCC_AdjustHSICalibrationValue, .-RCC_AdjustHSICalibrationValue
	.section	.text.RCC_HSICmd,"ax",%progbits
	.align	2
	.global	RCC_HSICmd
	.thumb
	.thumb_func
	.type	RCC_HSICmd, %function
RCC_HSICmd:
.LFB60:
	.loc 1 355 0
	.cfi_startproc
	@ args = 0, pretend = 0, frame = 8
	@ frame_needed = 1, uses_anonymous_args = 0
	@ link register save eliminated.
	push	{r7}
	.cfi_def_cfa_offset 4
	.cfi_offset 7, -4
	sub	sp, sp, #12
	.cfi_def_cfa_offset 16
	add	r7, sp, #0
	.cfi_def_cfa_register 7
	mov	r3, r0
	strb	r3, [r7, #7]
	.loc 1 358 0
	ldr	r3, .L21
	ldrb	r2, [r7, #7]	@ zero_extendqisi2
	str	r2, [r3]
	.loc 1 359 0
	adds	r7, r7, #12
	mov	sp, r7
	@ sp needed
	ldr	r7, [sp], #4
	bx	lr
.L22:
	.align	2
.L21:
	.word	1111621632
	.cfi_endproc
.LFE60:
	.size	RCC_HSICmd, .-RCC_HSICmd
	.section	.text.RCC_PLLConfig,"ax",%progbits
	.align	2
	.global	RCC_PLLConfig
	.thumb
	.thumb_func
	.type	RCC_PLLConfig, %function
RCC_PLLConfig:
.LFB61:
	.loc 1 379 0
	.cfi_startproc
	@ args = 0, pretend = 0, frame = 16
	@ frame_needed = 1, uses_anonymous_args = 0
	@ link register save eliminated.
	push	{r7}
	.cfi_def_cfa_offset 4
	.cfi_offset 7, -4
	sub	sp, sp, #20
	.cfi_def_cfa_offset 24
	add	r7, sp, #0
	.cfi_def_cfa_register 7
	str	r0, [r7, #4]
	str	r1, [r7]
	.loc 1 380 0
	movs	r3, #0
	str	r3, [r7, #12]
	.loc 1 386 0
	ldr	r3, .L24
	ldr	r3, [r3, #4]
	str	r3, [r7, #12]
	.loc 1 388 0
	ldr	r3, [r7, #12]
	bic	r3, r3, #4128768
	str	r3, [r7, #12]
	.loc 1 390 0
	ldr	r2, [r7, #4]
	ldr	r3, [r7]
	orrs	r3, r3, r2
	ldr	r2, [r7, #12]
	orrs	r3, r3, r2
	str	r3, [r7, #12]
	.loc 1 392 0
	ldr	r3, .L24
	ldr	r2, [r7, #12]
	str	r2, [r3, #4]
	.loc 1 393 0
	adds	r7, r7, #20
	mov	sp, r7
	@ sp needed
	ldr	r7, [sp], #4
	bx	lr
.L25:
	.align	2
.L24:
	.word	1073876992
	.cfi_endproc
.LFE61:
	.size	RCC_PLLConfig, .-RCC_PLLConfig
	.section	.text.RCC_PLLCmd,"ax",%progbits
	.align	2
	.global	RCC_PLLCmd
	.thumb
	.thumb_func
	.type	RCC_PLLCmd, %function
RCC_PLLCmd:
.LFB62:
	.loc 1 402 0
	.cfi_startproc
	@ args = 0, pretend = 0, frame = 8
	@ frame_needed = 1, uses_anonymous_args = 0
	@ link register save eliminated.
	push	{r7}
	.cfi_def_cfa_offset 4
	.cfi_offset 7, -4
	sub	sp, sp, #12
	.cfi_def_cfa_offset 16
	add	r7, sp, #0
	.cfi_def_cfa_register 7
	mov	r3, r0
	strb	r3, [r7, #7]
	.loc 1 406 0
	ldr	r3, .L27
	ldrb	r2, [r7, #7]	@ zero_extendqisi2
	str	r2, [r3]
	.loc 1 407 0
	adds	r7, r7, #12
	mov	sp, r7
	@ sp needed
	ldr	r7, [sp], #4
	bx	lr
.L28:
	.align	2
.L27:
	.word	1111621728
	.cfi_endproc
.LFE62:
	.size	RCC_PLLCmd, .-RCC_PLLCmd
	.section	.text.RCC_SYSCLKConfig,"ax",%progbits
	.align	2
	.global	RCC_SYSCLKConfig
	.thumb
	.thumb_func
	.type	RCC_SYSCLKConfig, %function
RCC_SYSCLKConfig:
.LFB63:
	.loc 1 565 0
	.cfi_startproc
	@ args = 0, pretend = 0, frame = 16
	@ frame_needed = 1, uses_anonymous_args = 0
	@ link register save eliminated.
	push	{r7}
	.cfi_def_cfa_offset 4
	.cfi_offset 7, -4
	sub	sp, sp, #20
	.cfi_def_cfa_offset 24
	add	r7, sp, #0
	.cfi_def_cfa_register 7
	str	r0, [r7, #4]
	.loc 1 566 0
	movs	r3, #0
	str	r3, [r7, #12]
	.loc 1 569 0
	ldr	r3, .L30
	ldr	r3, [r3, #4]
	str	r3, [r7, #12]
	.loc 1 571 0
	ldr	r3, [r7, #12]
	bic	r3, r3, #3
	str	r3, [r7, #12]
	.loc 1 573 0
	ldr	r2, [r7, #12]
	ldr	r3, [r7, #4]
	orrs	r3, r3, r2
	str	r3, [r7, #12]
	.loc 1 575 0
	ldr	r3, .L30
	ldr	r2, [r7, #12]
	str	r2, [r3, #4]
	.loc 1 576 0
	adds	r7, r7, #20
	mov	sp, r7
	@ sp needed
	ldr	r7, [sp], #4
	bx	lr
.L31:
	.align	2
.L30:
	.word	1073876992
	.cfi_endproc
.LFE63:
	.size	RCC_SYSCLKConfig, .-RCC_SYSCLKConfig
	.section	.text.RCC_GetSYSCLKSource,"ax",%progbits
	.align	2
	.global	RCC_GetSYSCLKSource
	.thumb
	.thumb_func
	.type	RCC_GetSYSCLKSource, %function
RCC_GetSYSCLKSource:
.LFB64:
	.loc 1 588 0
	.cfi_startproc
	@ args = 0, pretend = 0, frame = 0
	@ frame_needed = 1, uses_anonymous_args = 0
	@ link register save eliminated.
	push	{r7}
	.cfi_def_cfa_offset 4
	.cfi_offset 7, -4
	add	r7, sp, #0
	.cfi_def_cfa_register 7
	.loc 1 589 0
	ldr	r3, .L34
	ldr	r3, [r3, #4]
	uxtb	r3, r3
	and	r3, r3, #12
	uxtb	r3, r3
	.loc 1 590 0
	mov	r0, r3
	mov	sp, r7
	@ sp needed
	ldr	r7, [sp], #4
	bx	lr
.L35:
	.align	2
.L34:
	.word	1073876992
	.cfi_endproc
.LFE64:
	.size	RCC_GetSYSCLKSource, .-RCC_GetSYSCLKSource
	.section	.text.RCC_HCLKConfig,"ax",%progbits
	.align	2
	.global	RCC_HCLKConfig
	.thumb
	.thumb_func
	.type	RCC_HCLKConfig, %function
RCC_HCLKConfig:
.LFB65:
	.loc 1 609 0
	.cfi_startproc
	@ args = 0, pretend = 0, frame = 16
	@ frame_needed = 1, uses_anonymous_args = 0
	@ link register save eliminated.
	push	{r7}
	.cfi_def_cfa_offset 4
	.cfi_offset 7, -4
	sub	sp, sp, #20
	.cfi_def_cfa_offset 24
	add	r7, sp, #0
	.cfi_def_cfa_register 7
	str	r0, [r7, #4]
	.loc 1 610 0
	movs	r3, #0
	str	r3, [r7, #12]
	.loc 1 613 0
	ldr	r3, .L37
	ldr	r3, [r3, #4]
	str	r3, [r7, #12]
	.loc 1 615 0
	ldr	r3, [r7, #12]
	bic	r3, r3, #240
	str	r3, [r7, #12]
	.loc 1 617 0
	ldr	r2, [r7, #12]
	ldr	r3, [r7, #4]
	orrs	r3, r3, r2
	str	r3, [r7, #12]
	.loc 1 619 0
	ldr	r3, .L37
	ldr	r2, [r7, #12]
	str	r2, [r3, #4]
	.loc 1 620 0
	adds	r7, r7, #20
	mov	sp, r7
	@ sp needed
	ldr	r7, [sp], #4
	bx	lr
.L38:
	.align	2
.L37:
	.word	1073876992
	.cfi_endproc
.LFE65:
	.size	RCC_HCLKConfig, .-RCC_HCLKConfig
	.section	.text.RCC_PCLK1Config,"ax",%progbits
	.align	2
	.global	RCC_PCLK1Config
	.thumb
	.thumb_func
	.type	RCC_PCLK1Config, %function
RCC_PCLK1Config:
.LFB66:
	.loc 1 635 0
	.cfi_startproc
	@ args = 0, pretend = 0, frame = 16
	@ frame_needed = 1, uses_anonymous_args = 0
	@ link register save eliminated.
	push	{r7}
	.cfi_def_cfa_offset 4
	.cfi_offset 7, -4
	sub	sp, sp, #20
	.cfi_def_cfa_offset 24
	add	r7, sp, #0
	.cfi_def_cfa_register 7
	str	r0, [r7, #4]
	.loc 1 636 0
	movs	r3, #0
	str	r3, [r7, #12]
	.loc 1 639 0
	ldr	r3, .L40
	ldr	r3, [r3, #4]
	str	r3, [r7, #12]
	.loc 1 641 0
	ldr	r3, [r7, #12]
	bic	r3, r3, #1792
	str	r3, [r7, #12]
	.loc 1 643 0
	ldr	r2, [r7, #12]
	ldr	r3, [r7, #4]
	orrs	r3, r3, r2
	str	r3, [r7, #12]
	.loc 1 645 0
	ldr	r3, .L40
	ldr	r2, [r7, #12]
	str	r2, [r3, #4]
	.loc 1 646 0
	adds	r7, r7, #20
	mov	sp, r7
	@ sp needed
	ldr	r7, [sp], #4
	bx	lr
.L41:
	.align	2
.L40:
	.word	1073876992
	.cfi_endproc
.LFE66:
	.size	RCC_PCLK1Config, .-RCC_PCLK1Config
	.section	.text.RCC_PCLK2Config,"ax",%progbits
	.align	2
	.global	RCC_PCLK2Config
	.thumb
	.thumb_func
	.type	RCC_PCLK2Config, %function
RCC_PCLK2Config:
.LFB67:
	.loc 1 661 0
	.cfi_startproc
	@ args = 0, pretend = 0, frame = 16
	@ frame_needed = 1, uses_anonymous_args = 0
	@ link register save eliminated.
	push	{r7}
	.cfi_def_cfa_offset 4
	.cfi_offset 7, -4
	sub	sp, sp, #20
	.cfi_def_cfa_offset 24
	add	r7, sp, #0
	.cfi_def_cfa_register 7
	str	r0, [r7, #4]
	.loc 1 662 0
	movs	r3, #0
	str	r3, [r7, #12]
	.loc 1 665 0
	ldr	r3, .L43
	ldr	r3, [r3, #4]
	str	r3, [r7, #12]
	.loc 1 667 0
	ldr	r3, [r7, #12]
	bic	r3, r3, #14336
	str	r3, [r7, #12]
	.loc 1 669 0
	ldr	r3, [r7, #4]
	lsls	r3, r3, #3
	ldr	r2, [r7, #12]
	orrs	r3, r3, r2
	str	r3, [r7, #12]
	.loc 1 671 0
	ldr	r3, .L43
	ldr	r2, [r7, #12]
	str	r2, [r3, #4]
	.loc 1 672 0
	adds	r7, r7, #20
	mov	sp, r7
	@ sp needed
	ldr	r7, [sp], #4
	bx	lr
.L44:
	.align	2
.L43:
	.word	1073876992
	.cfi_endproc
.LFE67:
	.size	RCC_PCLK2Config, .-RCC_PCLK2Config
	.section	.text.RCC_ITConfig,"ax",%progbits
	.align	2
	.global	RCC_ITConfig
	.thumb
	.thumb_func
	.type	RCC_ITConfig, %function
RCC_ITConfig:
.LFB68:
	.loc 1 701 0
	.cfi_startproc
	@ args = 0, pretend = 0, frame = 8
	@ frame_needed = 1, uses_anonymous_args = 0
	@ link register save eliminated.
	push	{r7}
	.cfi_def_cfa_offset 4
	.cfi_offset 7, -4
	sub	sp, sp, #12
	.cfi_def_cfa_offset 16
	add	r7, sp, #0
	.cfi_def_cfa_register 7
	mov	r2, r0
	mov	r3, r1
	strb	r2, [r7, #7]
	strb	r3, [r7, #6]
	.loc 1 705 0
	ldrb	r3, [r7, #6]	@ zero_extendqisi2
	cmp	r3, #0
	beq	.L46
	.loc 1 708 0
	ldr	r3, .L48
	ldr	r2, .L48
	ldrb	r2, [r2]
	uxtb	r1, r2
	ldrb	r2, [r7, #7]
	orrs	r2, r2, r1
	uxtb	r2, r2
	strb	r2, [r3]
	b	.L45
.L46:
	.loc 1 713 0
	ldr	r3, .L48
	ldr	r2, .L48
	ldrb	r2, [r2]
	uxtb	r1, r2
	ldrb	r2, [r7, #7]
	mvns	r2, r2
	uxtb	r2, r2
	ands	r2, r2, r1
	uxtb	r2, r2
	strb	r2, [r3]
.L45:
	.loc 1 715 0
	adds	r7, r7, #12
	mov	sp, r7
	@ sp needed
	ldr	r7, [sp], #4
	bx	lr
.L49:
	.align	2
.L48:
	.word	1073877001
	.cfi_endproc
.LFE68:
	.size	RCC_ITConfig, .-RCC_ITConfig
	.section	.text.RCC_USBCLKConfig,"ax",%progbits
	.align	2
	.global	RCC_USBCLKConfig
	.thumb
	.thumb_func
	.type	RCC_USBCLKConfig, %function
RCC_USBCLKConfig:
.LFB69:
	.loc 1 729 0
	.cfi_startproc
	@ args = 0, pretend = 0, frame = 8
	@ frame_needed = 1, uses_anonymous_args = 0
	@ link register save eliminated.
	push	{r7}
	.cfi_def_cfa_offset 4
	.cfi_offset 7, -4
	sub	sp, sp, #12
	.cfi_def_cfa_offset 16
	add	r7, sp, #0
	.cfi_def_cfa_register 7
	str	r0, [r7, #4]
	.loc 1 733 0
	ldr	r3, .L51
	ldr	r2, [r7, #4]
	str	r2, [r3]
	.loc 1 734 0
	adds	r7, r7, #12
	mov	sp, r7
	@ sp needed
	ldr	r7, [sp], #4
	bx	lr
.L52:
	.align	2
.L51:
	.word	1111621848
	.cfi_endproc
.LFE69:
	.size	RCC_USBCLKConfig, .-RCC_USBCLKConfig
	.section	.text.RCC_ADCCLKConfig,"ax",%progbits
	.align	2
	.global	RCC_ADCCLKConfig
	.thumb
	.thumb_func
	.type	RCC_ADCCLKConfig, %function
RCC_ADCCLKConfig:
.LFB70:
	.loc 1 767 0
	.cfi_startproc
	@ args = 0, pretend = 0, frame = 16
	@ frame_needed = 1, uses_anonymous_args = 0
	@ link register save eliminated.
	push	{r7}
	.cfi_def_cfa_offset 4
	.cfi_offset 7, -4
	sub	sp, sp, #20
	.cfi_def_cfa_offset 24
	add	r7, sp, #0
	.cfi_def_cfa_register 7
	str	r0, [r7, #4]
	.loc 1 768 0
	movs	r3, #0
	str	r3, [r7, #12]
	.loc 1 771 0
	ldr	r3, .L54
	ldr	r3, [r3, #4]
	str	r3, [r7, #12]
	.loc 1 773 0
	ldr	r3, [r7, #12]
	bic	r3, r3, #49152
	str	r3, [r7, #12]
	.loc 1 775 0
	ldr	r2, [r7, #12]
	ldr	r3, [r7, #4]
	orrs	r3, r3, r2
	str	r3, [r7, #12]
	.loc 1 777 0
	ldr	r3, .L54
	ldr	r2, [r7, #12]
	str	r2, [r3, #4]
	.loc 1 778 0
	adds	r7, r7, #20
	mov	sp, r7
	@ sp needed
	ldr	r7, [sp], #4
	bx	lr
.L55:
	.align	2
.L54:
	.word	1073876992
	.cfi_endproc
.LFE70:
	.size	RCC_ADCCLKConfig, .-RCC_ADCCLKConfig
	.section	.text.RCC_LSEConfig,"ax",%progbits
	.align	2
	.global	RCC_LSEConfig
	.thumb
	.thumb_func
	.type	RCC_LSEConfig, %function
RCC_LSEConfig:
.LFB71:
	.loc 1 830 0
	.cfi_startproc
	@ args = 0, pretend = 0, frame = 8
	@ frame_needed = 1, uses_anonymous_args = 0
	@ link register save eliminated.
	push	{r7}
	.cfi_def_cfa_offset 4
	.cfi_offset 7, -4
	sub	sp, sp, #12
	.cfi_def_cfa_offset 16
	add	r7, sp, #0
	.cfi_def_cfa_register 7
	mov	r3, r0
	strb	r3, [r7, #7]
	.loc 1 835 0
	ldr	r3, .L61
	movs	r2, #0
	strb	r2, [r3]
	.loc 1 837 0
	ldr	r3, .L61
	movs	r2, #0
	strb	r2, [r3]
	.loc 1 839 0
	ldrb	r3, [r7, #7]	@ zero_extendqisi2
	cmp	r3, #1
	beq	.L58
	cmp	r3, #4
	beq	.L59
	.loc 1 852 0
	b	.L56
.L58:
	.loc 1 843 0
	ldr	r3, .L61
	movs	r2, #1
	strb	r2, [r3]
	.loc 1 844 0
	b	.L56
.L59:
	.loc 1 848 0
	ldr	r3, .L61
	movs	r2, #5
	strb	r2, [r3]
	.loc 1 849 0
	nop
.L56:
	.loc 1 854 0
	adds	r7, r7, #12
	mov	sp, r7
	@ sp needed
	ldr	r7, [sp], #4
	bx	lr
.L62:
	.align	2
.L61:
	.word	1073877024
	.cfi_endproc
.LFE71:
	.size	RCC_LSEConfig, .-RCC_LSEConfig
	.section	.text.RCC_LSICmd,"ax",%progbits
	.align	2
	.global	RCC_LSICmd
	.thumb
	.thumb_func
	.type	RCC_LSICmd, %function
RCC_LSICmd:
.LFB72:
	.loc 1 863 0
	.cfi_startproc
	@ args = 0, pretend = 0, frame = 8
	@ frame_needed = 1, uses_anonymous_args = 0
	@ link register save eliminated.
	push	{r7}
	.cfi_def_cfa_offset 4
	.cfi_offset 7, -4
	sub	sp, sp, #12
	.cfi_def_cfa_offset 16
	add	r7, sp, #0
	.cfi_def_cfa_register 7
	mov	r3, r0
	strb	r3, [r7, #7]
	.loc 1 866 0
	ldr	r3, .L64
	ldrb	r2, [r7, #7]	@ zero_extendqisi2
	str	r2, [r3]
	.loc 1 867 0
	adds	r7, r7, #12
	mov	sp, r7
	@ sp needed
	ldr	r7, [sp], #4
	bx	lr
.L65:
	.align	2
.L64:
	.word	1111622784
	.cfi_endproc
.LFE72:
	.size	RCC_LSICmd, .-RCC_LSICmd
	.section	.text.RCC_RTCCLKConfig,"ax",%progbits
	.align	2
	.global	RCC_RTCCLKConfig
	.thumb
	.thumb_func
	.type	RCC_RTCCLKConfig, %function
RCC_RTCCLKConfig:
.LFB73:
	.loc 1 880 0
	.cfi_startproc
	@ args = 0, pretend = 0, frame = 8
	@ frame_needed = 1, uses_anonymous_args = 0
	@ link register save eliminated.
	push	{r7}
	.cfi_def_cfa_offset 4
	.cfi_offset 7, -4
	sub	sp, sp, #12
	.cfi_def_cfa_offset 16
	add	r7, sp, #0
	.cfi_def_cfa_register 7
	str	r0, [r7, #4]
	.loc 1 884 0
	ldr	r3, .L67
	ldr	r2, .L67
	ldr	r1, [r2, #32]
	ldr	r2, [r7, #4]
	orrs	r2, r2, r1
	str	r2, [r3, #32]
	.loc 1 885 0
	adds	r7, r7, #12
	mov	sp, r7
	@ sp needed
	ldr	r7, [sp], #4
	bx	lr
.L68:
	.align	2
.L67:
	.word	1073876992
	.cfi_endproc
.LFE73:
	.size	RCC_RTCCLKConfig, .-RCC_RTCCLKConfig
	.section	.text.RCC_RTCCLKCmd,"ax",%progbits
	.align	2
	.global	RCC_RTCCLKCmd
	.thumb
	.thumb_func
	.type	RCC_RTCCLKCmd, %function
RCC_RTCCLKCmd:
.LFB74:
	.loc 1 894 0
	.cfi_startproc
	@ args = 0, pretend = 0, frame = 8
	@ frame_needed = 1, uses_anonymous_args = 0
	@ link register save eliminated.
	push	{r7}
	.cfi_def_cfa_offset 4
	.cfi_offset 7, -4
	sub	sp, sp, #12
	.cfi_def_cfa_offset 16
	add	r7, sp, #0
	.cfi_def_cfa_register 7
	mov	r3, r0
	strb	r3, [r7, #7]
	.loc 1 897 0
	ldr	r3, .L70
	ldrb	r2, [r7, #7]	@ zero_extendqisi2
	str	r2, [r3]
	.loc 1 898 0
	adds	r7, r7, #12
	mov	sp, r7
	@ sp needed
	ldr	r7, [sp], #4
	bx	lr
.L71:
	.align	2
.L70:
	.word	1111622716
	.cfi_endproc
.LFE74:
	.size	RCC_RTCCLKCmd, .-RCC_RTCCLKCmd
	.section	.text.RCC_GetClocksFreq,"ax",%progbits
	.align	2
	.global	RCC_GetClocksFreq
	.thumb
	.thumb_func
	.type	RCC_GetClocksFreq, %function
RCC_GetClocksFreq:
.LFB75:
	.loc 1 909 0
	.cfi_startproc
	@ args = 0, pretend = 0, frame = 24
	@ frame_needed = 1, uses_anonymous_args = 0
	@ link register save eliminated.
	push	{r7}
	.cfi_def_cfa_offset 4
	.cfi_offset 7, -4
	sub	sp, sp, #28
	.cfi_def_cfa_offset 32
	add	r7, sp, #0
	.cfi_def_cfa_register 7
	str	r0, [r7, #4]
	.loc 1 910 0
	movs	r3, #0
	str	r3, [r7, #20]
	movs	r3, #0
	str	r3, [r7, #16]
	movs	r3, #0
	str	r3, [r7, #12]
	movs	r3, #0
	str	r3, [r7, #8]
	.loc 1 921 0
	ldr	r3, .L82
	ldr	r3, [r3, #4]
	and	r3, r3, #12
	str	r3, [r7, #20]
	.loc 1 923 0
	ldr	r3, [r7, #20]
	cmp	r3, #4
	beq	.L74
	cmp	r3, #8
	beq	.L75
	cmp	r3, #0
	bne	.L81
	.loc 1 926 0
	ldr	r3, [r7, #4]
	ldr	r2, .L82+4
	str	r2, [r3]
	.loc 1 927 0
	b	.L77
.L74:
	.loc 1 929 0
	ldr	r3, [r7, #4]
	ldr	r2, .L82+4
	str	r2, [r3]
	.loc 1 930 0
	b	.L77
.L75:
	.loc 1 934 0
	ldr	r3, .L82
	ldr	r3, [r3, #4]
	and	r3, r3, #3932160
	str	r3, [r7, #16]
	.loc 1 935 0
	ldr	r3, .L82
	ldr	r3, [r3, #4]
	and	r3, r3, #65536
	str	r3, [r7, #12]
	.loc 1 938 0
	ldr	r3, [r7, #16]
	lsrs	r3, r3, #18
	adds	r3, r3, #2
	str	r3, [r7, #16]
	.loc 1 940 0
	ldr	r3, [r7, #12]
	cmp	r3, #0
	bne	.L78
	.loc 1 942 0
	ldr	r3, [r7, #16]
	ldr	r2, .L82+8
	mul	r2, r2, r3
	ldr	r3, [r7, #4]
	str	r2, [r3]
	b	.L79
.L78:
	.loc 1 952 0
	ldr	r3, .L82
	ldr	r3, [r3, #4]
	and	r3, r3, #131072
	cmp	r3, #0
	beq	.L80
	.loc 1 954 0
	ldr	r3, [r7, #16]
	ldr	r2, .L82+8
	mul	r2, r2, r3
	ldr	r3, [r7, #4]
	str	r2, [r3]
	b	.L79
.L80:
	.loc 1 958 0
	ldr	r3, [r7, #16]
	ldr	r2, .L82+4
	mul	r2, r2, r3
	ldr	r3, [r7, #4]
	str	r2, [r3]
	.loc 1 999 0
	b	.L77
.L79:
	b	.L77
.L81:
	.loc 1 1002 0
	ldr	r3, [r7, #4]
	ldr	r2, .L82+4
	str	r2, [r3]
	.loc 1 1003 0
	nop
.L77:
	.loc 1 1008 0
	ldr	r3, .L82
	ldr	r3, [r3, #4]
	and	r3, r3, #240
	str	r3, [r7, #20]
	.loc 1 1009 0
	ldr	r3, [r7, #20]
	lsrs	r3, r3, #4
	str	r3, [r7, #20]
	.loc 1 1010 0
	ldr	r2, .L82+12
	ldr	r3, [r7, #20]
	add	r3, r3, r2
	ldrb	r3, [r3]
	uxtb	r3, r3
	str	r3, [r7, #8]
	.loc 1 1012 0
	ldr	r3, [r7, #4]
	ldr	r2, [r3]
	ldr	r3, [r7, #8]
	lsrs	r2, r2, r3
	ldr	r3, [r7, #4]
	str	r2, [r3, #4]
	.loc 1 1014 0
	ldr	r3, .L82
	ldr	r3, [r3, #4]
	and	r3, r3, #1792
	str	r3, [r7, #20]
	.loc 1 1015 0
	ldr	r3, [r7, #20]
	lsrs	r3, r3, #8
	str	r3, [r7, #20]
	.loc 1 1016 0
	ldr	r2, .L82+12
	ldr	r3, [r7, #20]
	add	r3, r3, r2
	ldrb	r3, [r3]
	uxtb	r3, r3
	str	r3, [r7, #8]
	.loc 1 1018 0
	ldr	r3, [r7, #4]
	ldr	r2, [r3, #4]
	ldr	r3, [r7, #8]
	lsrs	r2, r2, r3
	ldr	r3, [r7, #4]
	str	r2, [r3, #8]
	.loc 1 1020 0
	ldr	r3, .L82
	ldr	r3, [r3, #4]
	and	r3, r3, #14336
	str	r3, [r7, #20]
	.loc 1 1021 0
	ldr	r3, [r7, #20]
	lsrs	r3, r3, #11
	str	r3, [r7, #20]
	.loc 1 1022 0
	ldr	r2, .L82+12
	ldr	r3, [r7, #20]
	add	r3, r3, r2
	ldrb	r3, [r3]
	uxtb	r3, r3
	str	r3, [r7, #8]
	.loc 1 1024 0
	ldr	r3, [r7, #4]
	ldr	r2, [r3, #4]
	ldr	r3, [r7, #8]
	lsrs	r2, r2, r3
	ldr	r3, [r7, #4]
	str	r2, [r3, #12]
	.loc 1 1026 0
	ldr	r3, .L82
	ldr	r3, [r3, #4]
	and	r3, r3, #49152
	str	r3, [r7, #20]
	.loc 1 1027 0
	ldr	r3, [r7, #20]
	lsrs	r3, r3, #14
	str	r3, [r7, #20]
	.loc 1 1028 0
	ldr	r2, .L82+16
	ldr	r3, [r7, #20]
	add	r3, r3, r2
	ldrb	r3, [r3]
	uxtb	r3, r3
	str	r3, [r7, #8]
	.loc 1 1030 0
	ldr	r3, [r7, #4]
	ldr	r2, [r3, #12]
	ldr	r3, [r7, #8]
	udiv	r2, r2, r3
	ldr	r3, [r7, #4]
	str	r2, [r3, #16]
	.loc 1 1031 0
	adds	r7, r7, #28
	mov	sp, r7
	@ sp needed
	ldr	r7, [sp], #4
	bx	lr
.L83:
	.align	2
.L82:
	.word	1073876992
	.word	8000000
	.word	4000000
	.word	APBAHBPrescTable
	.word	ADCPrescTable
	.cfi_endproc
.LFE75:
	.size	RCC_GetClocksFreq, .-RCC_GetClocksFreq
	.section	.text.RCC_AHBPeriphClockCmd,"ax",%progbits
	.align	2
	.global	RCC_AHBPeriphClockCmd
	.thumb
	.thumb_func
	.type	RCC_AHBPeriphClockCmd, %function
RCC_AHBPeriphClockCmd:
.LFB76:
	.loc 1 1065 0
	.cfi_startproc
	@ args = 0, pretend = 0, frame = 8
	@ frame_needed = 1, uses_anonymous_args = 0
	@ link register save eliminated.
	push	{r7}
	.cfi_def_cfa_offset 4
	.cfi_offset 7, -4
	sub	sp, sp, #12
	.cfi_def_cfa_offset 16
	add	r7, sp, #0
	.cfi_def_cfa_register 7
	str	r0, [r7, #4]
	mov	r3, r1
	strb	r3, [r7, #3]
	.loc 1 1070 0
	ldrb	r3, [r7, #3]	@ zero_extendqisi2
	cmp	r3, #0
	beq	.L85
	.loc 1 1072 0
	ldr	r3, .L87
	ldr	r2, .L87
	ldr	r1, [r2, #20]
	ldr	r2, [r7, #4]
	orrs	r2, r2, r1
	str	r2, [r3, #20]
	b	.L84
.L85:
	.loc 1 1076 0
	ldr	r3, .L87
	ldr	r2, .L87
	ldr	r1, [r2, #20]
	ldr	r2, [r7, #4]
	mvns	r2, r2
	ands	r2, r2, r1
	str	r2, [r3, #20]
.L84:
	.loc 1 1078 0
	adds	r7, r7, #12
	mov	sp, r7
	@ sp needed
	ldr	r7, [sp], #4
	bx	lr
.L88:
	.align	2
.L87:
	.word	1073876992
	.cfi_endproc
.LFE76:
	.size	RCC_AHBPeriphClockCmd, .-RCC_AHBPeriphClockCmd
	.section	.text.RCC_APB2PeriphClockCmd,"ax",%progbits
	.align	2
	.global	RCC_APB2PeriphClockCmd
	.thumb
	.thumb_func
	.type	RCC_APB2PeriphClockCmd, %function
RCC_APB2PeriphClockCmd:
.LFB77:
	.loc 1 1096 0
	.cfi_startproc
	@ args = 0, pretend = 0, frame = 8
	@ frame_needed = 1, uses_anonymous_args = 0
	@ link register save eliminated.
	push	{r7}
	.cfi_def_cfa_offset 4
	.cfi_offset 7, -4
	sub	sp, sp, #12
	.cfi_def_cfa_offset 16
	add	r7, sp, #0
	.cfi_def_cfa_register 7
	str	r0, [r7, #4]
	mov	r3, r1
	strb	r3, [r7, #3]
	.loc 1 1100 0
	ldrb	r3, [r7, #3]	@ zero_extendqisi2
	cmp	r3, #0
	beq	.L90
	.loc 1 1102 0
	ldr	r3, .L92
	ldr	r2, .L92
	ldr	r1, [r2, #24]
	ldr	r2, [r7, #4]
	orrs	r2, r2, r1
	str	r2, [r3, #24]
	b	.L89
.L90:
	.loc 1 1106 0
	ldr	r3, .L92
	ldr	r2, .L92
	ldr	r1, [r2, #24]
	ldr	r2, [r7, #4]
	mvns	r2, r2
	ands	r2, r2, r1
	str	r2, [r3, #24]
.L89:
	.loc 1 1108 0
	adds	r7, r7, #12
	mov	sp, r7
	@ sp needed
	ldr	r7, [sp], #4
	bx	lr
.L93:
	.align	2
.L92:
	.word	1073876992
	.cfi_endproc
.LFE77:
	.size	RCC_APB2PeriphClockCmd, .-RCC_APB2PeriphClockCmd
	.section	.text.RCC_APB1PeriphClockCmd,"ax",%progbits
	.align	2
	.global	RCC_APB1PeriphClockCmd
	.thumb
	.thumb_func
	.type	RCC_APB1PeriphClockCmd, %function
RCC_APB1PeriphClockCmd:
.LFB78:
	.loc 1 1127 0
	.cfi_startproc
	@ args = 0, pretend = 0, frame = 8
	@ frame_needed = 1, uses_anonymous_args = 0
	@ link register save eliminated.
	push	{r7}
	.cfi_def_cfa_offset 4
	.cfi_offset 7, -4
	sub	sp, sp, #12
	.cfi_def_cfa_offset 16
	add	r7, sp, #0
	.cfi_def_cfa_register 7
	str	r0, [r7, #4]
	mov	r3, r1
	strb	r3, [r7, #3]
	.loc 1 1131 0
	ldrb	r3, [r7, #3]	@ zero_extendqisi2
	cmp	r3, #0
	beq	.L95
	.loc 1 1133 0
	ldr	r3, .L97
	ldr	r2, .L97
	ldr	r1, [r2, #28]
	ldr	r2, [r7, #4]
	orrs	r2, r2, r1
	str	r2, [r3, #28]
	b	.L94
.L95:
	.loc 1 1137 0
	ldr	r3, .L97
	ldr	r2, .L97
	ldr	r1, [r2, #28]
	ldr	r2, [r7, #4]
	mvns	r2, r2
	ands	r2, r2, r1
	str	r2, [r3, #28]
.L94:
	.loc 1 1139 0
	adds	r7, r7, #12
	mov	sp, r7
	@ sp needed
	ldr	r7, [sp], #4
	bx	lr
.L98:
	.align	2
.L97:
	.word	1073876992
	.cfi_endproc
.LFE78:
	.size	RCC_APB1PeriphClockCmd, .-RCC_APB1PeriphClockCmd
	.section	.text.RCC_APB2PeriphResetCmd,"ax",%progbits
	.align	2
	.global	RCC_APB2PeriphResetCmd
	.thumb
	.thumb_func
	.type	RCC_APB2PeriphResetCmd, %function
RCC_APB2PeriphResetCmd:
.LFB79:
	.loc 1 1186 0
	.cfi_startproc
	@ args = 0, pretend = 0, frame = 8
	@ frame_needed = 1, uses_anonymous_args = 0
	@ link register save eliminated.
	push	{r7}
	.cfi_def_cfa_offset 4
	.cfi_offset 7, -4
	sub	sp, sp, #12
	.cfi_def_cfa_offset 16
	add	r7, sp, #0
	.cfi_def_cfa_register 7
	str	r0, [r7, #4]
	mov	r3, r1
	strb	r3, [r7, #3]
	.loc 1 1190 0
	ldrb	r3, [r7, #3]	@ zero_extendqisi2
	cmp	r3, #0
	beq	.L100
	.loc 1 1192 0
	ldr	r3, .L102
	ldr	r2, .L102
	ldr	r1, [r2, #12]
	ldr	r2, [r7, #4]
	orrs	r2, r2, r1
	str	r2, [r3, #12]
	b	.L99
.L100:
	.loc 1 1196 0
	ldr	r3, .L102
	ldr	r2, .L102
	ldr	r1, [r2, #12]
	ldr	r2, [r7, #4]
	mvns	r2, r2
	ands	r2, r2, r1
	str	r2, [r3, #12]
.L99:
	.loc 1 1198 0
	adds	r7, r7, #12
	mov	sp, r7
	@ sp needed
	ldr	r7, [sp], #4
	bx	lr
.L103:
	.align	2
.L102:
	.word	1073876992
	.cfi_endproc
.LFE79:
	.size	RCC_APB2PeriphResetCmd, .-RCC_APB2PeriphResetCmd
	.section	.text.RCC_APB1PeriphResetCmd,"ax",%progbits
	.align	2
	.global	RCC_APB1PeriphResetCmd
	.thumb
	.thumb_func
	.type	RCC_APB1PeriphResetCmd, %function
RCC_APB1PeriphResetCmd:
.LFB80:
	.loc 1 1217 0
	.cfi_startproc
	@ args = 0, pretend = 0, frame = 8
	@ frame_needed = 1, uses_anonymous_args = 0
	@ link register save eliminated.
	push	{r7}
	.cfi_def_cfa_offset 4
	.cfi_offset 7, -4
	sub	sp, sp, #12
	.cfi_def_cfa_offset 16
	add	r7, sp, #0
	.cfi_def_cfa_register 7
	str	r0, [r7, #4]
	mov	r3, r1
	strb	r3, [r7, #3]
	.loc 1 1221 0
	ldrb	r3, [r7, #3]	@ zero_extendqisi2
	cmp	r3, #0
	beq	.L105
	.loc 1 1223 0
	ldr	r3, .L107
	ldr	r2, .L107
	ldr	r1, [r2, #16]
	ldr	r2, [r7, #4]
	orrs	r2, r2, r1
	str	r2, [r3, #16]
	b	.L104
.L105:
	.loc 1 1227 0
	ldr	r3, .L107
	ldr	r2, .L107
	ldr	r1, [r2, #16]
	ldr	r2, [r7, #4]
	mvns	r2, r2
	ands	r2, r2, r1
	str	r2, [r3, #16]
.L104:
	.loc 1 1229 0
	adds	r7, r7, #12
	mov	sp, r7
	@ sp needed
	ldr	r7, [sp], #4
	bx	lr
.L108:
	.align	2
.L107:
	.word	1073876992
	.cfi_endproc
.LFE80:
	.size	RCC_APB1PeriphResetCmd, .-RCC_APB1PeriphResetCmd
	.section	.text.RCC_BackupResetCmd,"ax",%progbits
	.align	2
	.global	RCC_BackupResetCmd
	.thumb
	.thumb_func
	.type	RCC_BackupResetCmd, %function
RCC_BackupResetCmd:
.LFB81:
	.loc 1 1238 0
	.cfi_startproc
	@ args = 0, pretend = 0, frame = 8
	@ frame_needed = 1, uses_anonymous_args = 0
	@ link register save eliminated.
	push	{r7}
	.cfi_def_cfa_offset 4
	.cfi_offset 7, -4
	sub	sp, sp, #12
	.cfi_def_cfa_offset 16
	add	r7, sp, #0
	.cfi_def_cfa_register 7
	mov	r3, r0
	strb	r3, [r7, #7]
	.loc 1 1241 0
	ldr	r3, .L110
	ldrb	r2, [r7, #7]	@ zero_extendqisi2
	str	r2, [r3]
	.loc 1 1242 0
	adds	r7, r7, #12
	mov	sp, r7
	@ sp needed
	ldr	r7, [sp], #4
	bx	lr
.L111:
	.align	2
.L110:
	.word	1111622720
	.cfi_endproc
.LFE81:
	.size	RCC_BackupResetCmd, .-RCC_BackupResetCmd
	.section	.text.RCC_ClockSecuritySystemCmd,"ax",%progbits
	.align	2
	.global	RCC_ClockSecuritySystemCmd
	.thumb
	.thumb_func
	.type	RCC_ClockSecuritySystemCmd, %function
RCC_ClockSecuritySystemCmd:
.LFB82:
	.loc 1 1251 0
	.cfi_startproc
	@ args = 0, pretend = 0, frame = 8
	@ frame_needed = 1, uses_anonymous_args = 0
	@ link register save eliminated.
	push	{r7}
	.cfi_def_cfa_offset 4
	.cfi_offset 7, -4
	sub	sp, sp, #12
	.cfi_def_cfa_offset 16
	add	r7, sp, #0
	.cfi_def_cfa_register 7
	mov	r3, r0
	strb	r3, [r7, #7]
	.loc 1 1254 0
	ldr	r3, .L113
	ldrb	r2, [r7, #7]	@ zero_extendqisi2
	str	r2, [r3]
	.loc 1 1255 0
	adds	r7, r7, #12
	mov	sp, r7
	@ sp needed
	ldr	r7, [sp], #4
	bx	lr
.L114:
	.align	2
.L113:
	.word	1111621708
	.cfi_endproc
.LFE82:
	.size	RCC_ClockSecuritySystemCmd, .-RCC_ClockSecuritySystemCmd
	.section	.text.RCC_MCOConfig,"ax",%progbits
	.align	2
	.global	RCC_MCOConfig
	.thumb
	.thumb_func
	.type	RCC_MCOConfig, %function
RCC_MCOConfig:
.LFB83:
	.loc 1 1283 0
	.cfi_startproc
	@ args = 0, pretend = 0, frame = 8
	@ frame_needed = 1, uses_anonymous_args = 0
	@ link register save eliminated.
	push	{r7}
	.cfi_def_cfa_offset 4
	.cfi_offset 7, -4
	sub	sp, sp, #12
	.cfi_def_cfa_offset 16
	add	r7, sp, #0
	.cfi_def_cfa_register 7
	mov	r3, r0
	strb	r3, [r7, #7]
	.loc 1 1288 0
	ldr	r3, .L116
	ldrb	r2, [r7, #7]
	strb	r2, [r3]
	.loc 1 1289 0
	adds	r7, r7, #12
	mov	sp, r7
	@ sp needed
	ldr	r7, [sp], #4
	bx	lr
.L117:
	.align	2
.L116:
	.word	1073876999
	.cfi_endproc
.LFE83:
	.size	RCC_MCOConfig, .-RCC_MCOConfig
	.section	.text.RCC_GetFlagStatus,"ax",%progbits
	.align	2
	.global	RCC_GetFlagStatus
	.thumb
	.thumb_func
	.type	RCC_GetFlagStatus, %function
RCC_GetFlagStatus:
.LFB84:
	.loc 1 1327 0
	.cfi_startproc
	@ args = 0, pretend = 0, frame = 24
	@ frame_needed = 1, uses_anonymous_args = 0
	@ link register save eliminated.
	push	{r7}
	.cfi_def_cfa_offset 4
	.cfi_offset 7, -4
	sub	sp, sp, #28
	.cfi_def_cfa_offset 32
	add	r7, sp, #0
	.cfi_def_cfa_register 7
	mov	r3, r0
	strb	r3, [r7, #7]
	.loc 1 1328 0
	movs	r3, #0
	str	r3, [r7, #12]
	.loc 1 1329 0
	movs	r3, #0
	str	r3, [r7, #20]
	.loc 1 1330 0
	movs	r3, #0
	strb	r3, [r7, #19]
	.loc 1 1335 0
	ldrb	r3, [r7, #7]	@ zero_extendqisi2
	lsrs	r3, r3, #5
	uxtb	r3, r3
	str	r3, [r7, #12]
	.loc 1 1336 0
	ldr	r3, [r7, #12]
	cmp	r3, #1
	bne	.L119
	.loc 1 1338 0
	ldr	r3, .L125
	ldr	r3, [r3]
	str	r3, [r7, #20]
	b	.L120
.L119:
	.loc 1 1340 0
	ldr	r3, [r7, #12]
	cmp	r3, #2
	bne	.L121
	.loc 1 1342 0
	ldr	r3, .L125
	ldr	r3, [r3, #32]
	str	r3, [r7, #20]
	b	.L120
.L121:
	.loc 1 1346 0
	ldr	r3, .L125
	ldr	r3, [r3, #36]
	str	r3, [r7, #20]
.L120:
	.loc 1 1350 0
	ldrb	r3, [r7, #7]	@ zero_extendqisi2
	and	r3, r3, #31
	str	r3, [r7, #12]
	.loc 1 1351 0
	ldr	r3, [r7, #12]
	ldr	r2, [r7, #20]
	lsr	r3, r2, r3
	and	r3, r3, #1
	cmp	r3, #0
	beq	.L122
	.loc 1 1353 0
	movs	r3, #1
	strb	r3, [r7, #19]
	b	.L123
.L122:
	.loc 1 1357 0
	movs	r3, #0
	strb	r3, [r7, #19]
.L123:
	.loc 1 1361 0
	ldrb	r3, [r7, #19]	@ zero_extendqisi2
	.loc 1 1362 0
	mov	r0, r3
	adds	r7, r7, #28
	mov	sp, r7
	@ sp needed
	ldr	r7, [sp], #4
	bx	lr
.L126:
	.align	2
.L125:
	.word	1073876992
	.cfi_endproc
.LFE84:
	.size	RCC_GetFlagStatus, .-RCC_GetFlagStatus
	.section	.text.RCC_ClearFlag,"ax",%progbits
	.align	2
	.global	RCC_ClearFlag
	.thumb
	.thumb_func
	.type	RCC_ClearFlag, %function
RCC_ClearFlag:
.LFB85:
	.loc 1 1372 0
	.cfi_startproc
	@ args = 0, pretend = 0, frame = 0
	@ frame_needed = 1, uses_anonymous_args = 0
	@ link register save eliminated.
	push	{r7}
	.cfi_def_cfa_offset 4
	.cfi_offset 7, -4
	add	r7, sp, #0
	.cfi_def_cfa_register 7
	.loc 1 1374 0
	ldr	r3, .L128
	ldr	r2, .L128
	ldr	r2, [r2, #36]
	orr	r2, r2, #16777216
	str	r2, [r3, #36]
	.loc 1 1375 0
	mov	sp, r7
	@ sp needed
	ldr	r7, [sp], #4
	bx	lr
.L129:
	.align	2
.L128:
	.word	1073876992
	.cfi_endproc
.LFE85:
	.size	RCC_ClearFlag, .-RCC_ClearFlag
	.section	.text.RCC_GetITStatus,"ax",%progbits
	.align	2
	.global	RCC_GetITStatus
	.thumb
	.thumb_func
	.type	RCC_GetITStatus, %function
RCC_GetITStatus:
.LFB86:
	.loc 1 1403 0
	.cfi_startproc
	@ args = 0, pretend = 0, frame = 16
	@ frame_needed = 1, uses_anonymous_args = 0
	@ link register save eliminated.
	push	{r7}
	.cfi_def_cfa_offset 4
	.cfi_offset 7, -4
	sub	sp, sp, #20
	.cfi_def_cfa_offset 24
	add	r7, sp, #0
	.cfi_def_cfa_register 7
	mov	r3, r0
	strb	r3, [r7, #7]
	.loc 1 1404 0
	movs	r3, #0
	strb	r3, [r7, #15]
	.loc 1 1409 0
	ldr	r3, .L134
	ldr	r2, [r3, #8]
	ldrb	r3, [r7, #7]	@ zero_extendqisi2
	ands	r3, r3, r2
	cmp	r3, #0
	beq	.L131
	.loc 1 1411 0
	movs	r3, #1
	strb	r3, [r7, #15]
	b	.L132
.L131:
	.loc 1 1415 0
	movs	r3, #0
	strb	r3, [r7, #15]
.L132:
	.loc 1 1419 0
	ldrb	r3, [r7, #15]	@ zero_extendqisi2
	.loc 1 1420 0
	mov	r0, r3
	adds	r7, r7, #20
	mov	sp, r7
	@ sp needed
	ldr	r7, [sp], #4
	bx	lr
.L135:
	.align	2
.L134:
	.word	1073876992
	.cfi_endproc
.LFE86:
	.size	RCC_GetITStatus, .-RCC_GetITStatus
	.section	.text.RCC_ClearITPendingBit,"ax",%progbits
	.align	2
	.global	RCC_ClearITPendingBit
	.thumb
	.thumb_func
	.type	RCC_ClearITPendingBit, %function
RCC_ClearITPendingBit:
.LFB87:
	.loc 1 1449 0
	.cfi_startproc
	@ args = 0, pretend = 0, frame = 8
	@ frame_needed = 1, uses_anonymous_args = 0
	@ link register save eliminated.
	push	{r7}
	.cfi_def_cfa_offset 4
	.cfi_offset 7, -4
	sub	sp, sp, #12
	.cfi_def_cfa_offset 16
	add	r7, sp, #0
	.cfi_def_cfa_register 7
	mov	r3, r0
	strb	r3, [r7, #7]
	.loc 1 1455 0
	ldr	r3, .L137
	ldrb	r2, [r7, #7]
	strb	r2, [r3]
	.loc 1 1456 0
	adds	r7, r7, #12
	mov	sp, r7
	@ sp needed
	ldr	r7, [sp], #4
	bx	lr
.L138:
	.align	2
.L137:
	.word	1073877002
	.cfi_endproc
.LFE87:
	.size	RCC_ClearITPendingBit, .-RCC_ClearITPendingBit
	.text
.Letext0:
	.file 2 "c:\\program files (x86)\\gnu tools arm embedded\\4.8 2014q1\\arm-none-eabi\\include\\machine\\_default_types.h"
	.file 3 "c:\\program files (x86)\\gnu tools arm embedded\\4.8 2014q1\\arm-none-eabi\\include\\stdint.h"
	.file 4 "C:\\Users\\Uporabnik\\Documents\\CooCox\\STM32F103\\Blink_USART1_test\\cmsis_boot/stm32f10x.h"
	.file 5 "C:\\Users\\Uporabnik\\Documents\\CooCox\\STM32F103\\Blink_USART1_test\\stm_lib\\inc/stm32f10x_rcc.h"
	.file 6 "C:\\Users\\Uporabnik\\Documents\\CooCox\\STM32F103\\Blink_USART1_test\\cmsis/core_cm3.h"