	.syntax unified
	.cpu cortex-m3
	.fpu softvfp
	.eabi_attribute 20, 1
	.eabi_attribute 21, 1
	.eabi_attribute 23, 3
	.eabi_attribute 24, 1
	.eabi_attribute 25, 1
	.eabi_attribute 26, 1
	.eabi_attribute 30, 6
	.eabi_attribute 34, 1
	.eabi_attribute 18, 4
	.thumb
	.file	"syscalls.c"
	.text
.Ltext0:
	.cfi_sections	.debug_frame
	.section	.text._sbrk,"ax",%progbits
	.align	2
	.global	_sbrk
	.thumb
	.thumb_func
	.type	_sbrk, %function
_sbrk:
.LFB56:
	.file 1 "C:\\Users\\Uporabnik\\Documents\\CooCox\\STM32F103\\Blink_USART1_test\\syscalls\\syscalls.c"
	.loc 1 23 0
	.cfi_startproc
	@ args = 0, pretend = 0, frame = 16
	@ frame_needed = 1, uses_anonymous_args = 0
	@ link register save eliminated.
	push	{r7}
	.cfi_def_cfa_offset 4
	.cfi_offset 7, -4
	sub	sp, sp, #20
	.cfi_def_cfa_offset 24
	add	r7, sp, #0
	.cfi_def_cfa_register 7
	str	r0, [r7, #4]
	.loc 1 27 0
	ldr	r3, .L4
	ldr	r3, [r3]
	cmp	r3, #0
	bne	.L2
	.loc 1 28 0
	ldr	r3, .L4
	ldr	r2, .L4+4
	str	r2, [r3]
.L2:
	.loc 1 30 0
	ldr	r3, .L4
	ldr	r3, [r3]
	str	r3, [r7, #12]
	.loc 1 32 0
	ldr	r3, .L4
	ldr	r2, [r3]
	ldr	r3, [r7, #4]
	add	r2, r2, r3
	ldr	r3, .L4
	str	r2, [r3]
	.loc 1 34 0
	ldr	r3, [r7, #12]
	.loc 1 35 0
	mov	r0, r3
	adds	r7, r7, #20
	mov	sp, r7
	@ sp needed
	ldr	r7, [sp], #4
	bx	lr
.L5:
	.align	2
.L4:
	.word	heap.5925
	.word	_end
	.cfi_endproc
.LFE56:
	.size	_sbrk, .-_sbrk
	.section	.text.link,"ax",%progbits
	.align	2
	.global	link
	.thumb
	.thumb_func
	.type	link, %function
link:
.LFB57:
	.loc 1 39 0
	.cfi_startproc
	@ args = 0, pretend = 0, frame = 8
	@ frame_needed = 1, uses_anonymous_args = 0
	@ link register save eliminated.
	push	{r7}
	.cfi_def_cfa_offset 4
	.cfi_offset 7, -4
	sub	sp, sp, #12
	.cfi_def_cfa_offset 16
	add	r7, sp, #0
	.cfi_def_cfa_register 7
	str	r0, [r7, #4]
	str	r1, [r7]
	.loc 1 40 0
	mov	r3, #-1
	.loc 1 41 0
	mov	r0, r3
	adds	r7, r7, #12
	mov	sp, r7
	@ sp needed
	ldr	r7, [sp], #4
	bx	lr
	.cfi_endproc
.LFE57:
	.size	link, .-link
	.section	.text._close,"ax",%progbits
	.align	2
	.global	_close
	.thumb
	.thumb_func
	.type	_close, %function
_close:
.LFB58:
	.loc 1 45 0
	.cfi_startproc
	@ args = 0, pretend = 0, frame = 8
	@ frame_needed = 1, uses_anonymous_args = 0
	@ link register save eliminated.
	push	{r7}
	.cfi_def_cfa_offset 4
	.cfi_offset 7, -4
	sub	sp, sp, #12
	.cfi_def_cfa_offset 16
	add	r7, sp, #0
	.cfi_def_cfa_register 7
	str	r0, [r7, #4]
	.loc 1 46 0
	mov	r3, #-1
	.loc 1 47 0
	mov	r0, r3
	adds	r7, r7, #12
	mov	sp, r7
	@ sp needed
	ldr	r7, [sp], #4
	bx	lr
	.cfi_endproc
.LFE58:
	.size	_close, .-_close
	.section	.text._fstat,"ax",%progbits
	.align	2
	.global	_fstat
	.thumb
	.thumb_func
	.type	_fstat, %function
_fstat:
.LFB59:
	.loc 1 51 0
	.cfi_startproc
	@ args = 0, pretend = 0, frame = 8
	@ frame_needed = 1, uses_anonymous_args = 0
	@ link register save eliminated.
	push	{r7}
	.cfi_def_cfa_offset 4
	.cfi_offset 7, -4
	sub	sp, sp, #12
	.cfi_def_cfa_offset 16
	add	r7, sp, #0
	.cfi_def_cfa_register 7
	str	r0, [r7, #4]
	str	r1, [r7]
	.loc 1 52 0
	ldr	r3, [r7]
	mov	r2, #8192
	str	r2, [r3, #4]
	.loc 1 53 0
	movs	r3, #0
	.loc 1 54 0
	mov	r0, r3
	adds	r7, r7, #12
	mov	sp, r7
	@ sp needed
	ldr	r7, [sp], #4
	bx	lr
	.cfi_endproc
.LFE59:
	.size	_fstat, .-_fstat
	.section	.text._isatty,"ax",%progbits
	.align	2
	.global	_isatty
	.thumb
	.thumb_func
	.type	_isatty, %function
_isatty:
.LFB60:
	.loc 1 58 0
	.cfi_startproc
	@ args = 0, pretend = 0, frame = 8
	@ frame_needed = 1, uses_anonymous_args = 0
	@ link register save eliminated.
	push	{r7}
	.cfi_def_cfa_offset 4
	.cfi_offset 7, -4
	sub	sp, sp, #12
	.cfi_def_cfa_offset 16
	add	r7, sp, #0
	.cfi_def_cfa_register 7
	str	r0, [r7, #4]
	.loc 1 59 0
	movs	r3, #1
	.loc 1 60 0
	mov	r0, r3
	adds	r7, r7, #12
	mov	sp, r7
	@ sp needed
	ldr	r7, [sp], #4
	bx	lr
	.cfi_endproc
.LFE60:
	.size	_isatty, .-_isatty
	.section	.text._lseek,"ax",%progbits
	.align	2
	.global	_lseek
	.thumb
	.thumb_func
	.type	_lseek, %function
_lseek:
.LFB61:
	.loc 1 64 0
	.cfi_startproc
	@ args = 0, pretend = 0, frame = 16
	@ frame_needed = 1, uses_anonymous_args = 0
	@ link register save eliminated.
	push	{r7}
	.cfi_def_cfa_offset 4
	.cfi_offset 7, -4
	sub	sp, sp, #20
	.cfi_def_cfa_offset 24
	add	r7, sp, #0
	.cfi_def_cfa_register 7
	str	r0, [r7, #12]
	str	r1, [r7, #8]
	str	r2, [r7, #4]
	.loc 1 65 0
	movs	r3, #0
	.loc 1 66 0
	mov	r0, r3
	adds	r7, r7, #20
	mov	sp, r7
	@ sp needed
	ldr	r7, [sp], #4
	bx	lr
	.cfi_endproc
.LFE61:
	.size	_lseek, .-_lseek
	.section	.text._read,"ax",%progbits
	.align	2
	.global	_read
	.thumb
	.thumb_func
	.type	_read, %function
_read:
.LFB62:
	.loc 1 71 0
	.cfi_startproc
	@ args = 0, pretend = 0, frame = 24
	@ frame_needed = 1, uses_anonymous_args = 0
	push	{r4, r7, lr}
	.cfi_def_cfa_offset 12
	.cfi_offset 4, -12
	.cfi_offset 7, -8
	.cfi_offset 14, -4
	sub	sp, sp, #28
	.cfi_def_cfa_offset 40
	add	r7, sp, #0
	.cfi_def_cfa_register 7
	str	r0, [r7, #12]
	str	r1, [r7, #8]
	str	r2, [r7, #4]
	.loc 1 114 0
	movs	r3, #0
	str	r3, [r7, #20]
	.loc 1 116 0
	b	.L17
.L18:
	.loc 1 117 0
	ldr	r4, [r7, #8]
	adds	r3, r4, #1
	str	r3, [r7, #8]
	bl	__io_getchar
	mov	r3, r0
	uxtb	r3, r3
	strb	r3, [r4]
	.loc 1 118 0
	ldr	r3, [r7, #20]
	adds	r3, r3, #1
	str	r3, [r7, #20]
.L17:
	.loc 1 116 0 discriminator 1
	ldr	r0, .L21
	movs	r1, #32
	bl	USART_GetFlagStatus
	mov	r3, r0
	cmp	r3, #1
	beq	.L18
	.loc 1 120 0
	ldr	r3, [r7, #20]
	cmp	r3, #0
	bne	.L19
	.loc 1 120 0 is_stmt 0 discriminator 1
	mov	r3, #-1
	str	r3, [r7, #20]
.L19:
	.loc 1 121 0 is_stmt 1
	ldr	r3, [r7, #20]
	.loc 1 122 0
	mov	r0, r3
	adds	r7, r7, #28
	mov	sp, r7
	@ sp needed
	pop	{r4, r7, pc}
.L22:
	.align	2
.L21:
	.word	1073821696
	.cfi_endproc
.LFE62:
	.size	_read, .-_read
	.section	.text._write,"ax",%progbits
	.align	2
	.global	_write
	.thumb
	.thumb_func
	.type	_write, %function
_write:
.LFB63:
	.loc 1 128 0
	.cfi_startproc
	@ args = 0, pretend = 0, frame = 24
	@ frame_needed = 1, uses_anonymous_args = 0
	push	{r7, lr}
	.cfi_def_cfa_offset 8
	.cfi_offset 7, -8
	.cfi_offset 14, -4
	sub	sp, sp, #24
	.cfi_def_cfa_offset 32
	add	r7, sp, #0
	.cfi_def_cfa_register 7
	str	r0, [r7, #12]
	str	r1, [r7, #8]
	str	r2, [r7, #4]
	.loc 1 146 0
	movs	r3, #0
	str	r3, [r7, #20]
	b	.L24
.L25:
	.loc 1 150 0 discriminator 2
	ldr	r3, [r7, #8]
	adds	r2, r3, #1
	str	r2, [r7, #8]
	ldrb	r3, [r3]	@ zero_extendqisi2
	mov	r0, r3
	bl	__io_putchar
	.loc 1 146 0 discriminator 2
	ldr	r3, [r7, #20]
	adds	r3, r3, #1
	str	r3, [r7, #20]
.L24:
	.loc 1 146 0 is_stmt 0 discriminator 1
	ldr	r2, [r7, #20]
	ldr	r3, [r7, #4]
	cmp	r2, r3
	blt	.L25
	.loc 1 153 0 is_stmt 1
	ldr	r3, [r7, #4]
	.loc 1 154 0
	mov	r0, r3
	adds	r7, r7, #24
	mov	sp, r7
	@ sp needed
	pop	{r7, pc}
	.cfi_endproc
.LFE63:
	.size	_write, .-_write
	.section	.text.abort,"ax",%progbits
	.align	2
	.global	abort
	.thumb
	.thumb_func
	.type	abort, %function
abort:
.LFB64:
	.loc 1 158 0
	.cfi_startproc
	@ args = 0, pretend = 0, frame = 0
	@ frame_needed = 1, uses_anonymous_args = 0
	@ link register save eliminated.
	push	{r7}
	.cfi_def_cfa_offset 4
	.cfi_offset 7, -4
	add	r7, sp, #0
	.cfi_def_cfa_register 7
.L28:
	.loc 1 160 0 discriminator 1
	b	.L28
	.cfi_endproc
.LFE64:
	.size	abort, .-abort
	.bss
	.align	2
heap.5925:
	.space	4
	.weak	__io_putchar
	.weak	__io_getchar
	.text
.Letext0:
	.file 2 "c:\\program files (x86)\\gnu tools arm embedded\\4.8 2014q1\\arm-none-eabi\\include\\machine\\_default_types.h"
	.file 3 "c:\\program files (x86)\\gnu tools arm embedded\\4.8 2014q1\\arm-none-eabi\\include\\sys\\_types.h"
	.file 4 "c:\\program files (x86)\\gnu tools arm embedded\\4.8 2014q1\\arm-none-eabi\\include\\sys\\types.h"
	.file 5 "c:\\program files (x86)\\gnu tools arm embedded\\4.8 2014q1\\arm-none-eabi\\include\\sys\\stat.h"
	.file 6 "c:\\program files (x86)\\gnu tools arm embedded\\4.8 2014q1\\arm-none-eabi\\include\\stdint.h"
	.file 7 "C:\\Users\\Uporabnik\\Documents\\CooCox\\STM32F103\\Blink_USART1_test\\cmsis_boot/stm32f10x.h"
	.file 8 "C:\\Users\\Uporabnik\\Documents\\CooCox\\STM32F103\\Blink_USART1_test\\cmsis/core_cm3.h"