
C:\Users\Uporabnik\Documents\CooCox\STM32F103\Blink_USART1_test\blink/Debug/bin\Blink.elf:     file format elf32-littlearm


Disassembly of section .text:

08000000 <g_pfnVectors>:
 8000000:	200040b8 	strhcs	r4, [r0], -r8
 8000004:	08000281 	stmdaeq	r0, {r0, r7, r9}
 8000008:	080002e1 	stmdaeq	r0, {r0, r5, r6, r7, r9}
 800000c:	080002e1 	stmdaeq	r0, {r0, r5, r6, r7, r9}
 8000010:	080002e1 	stmdaeq	r0, {r0, r5, r6, r7, r9}
 8000014:	080002e1 	stmdaeq	r0, {r0, r5, r6, r7, r9}
 8000018:	080002e1 	stmdaeq	r0, {r0, r5, r6, r7, r9}
	...
 800002c:	080002e1 	stmdaeq	r0, {r0, r5, r6, r7, r9}
 8000030:	080002e1 	stmdaeq	r0, {r0, r5, r6, r7, r9}
 8000034:	00000000 	andeq	r0, r0, r0
 8000038:	080002e1 	stmdaeq	r0, {r0, r5, r6, r7, r9}
 800003c:	08000521 	stmdaeq	r0, {r0, r5, r8, sl}
 8000040:	080002e1 	stmdaeq	r0, {r0, r5, r6, r7, r9}
 8000044:	080002e1 	stmdaeq	r0, {r0, r5, r6, r7, r9}
 8000048:	080002e1 	stmdaeq	r0, {r0, r5, r6, r7, r9}
 800004c:	080002e1 	stmdaeq	r0, {r0, r5, r6, r7, r9}
 8000050:	080002e1 	stmdaeq	r0, {r0, r5, r6, r7, r9}
 8000054:	080002e1 	stmdaeq	r0, {r0, r5, r6, r7, r9}
 8000058:	080002e1 	stmdaeq	r0, {r0, r5, r6, r7, r9}
 800005c:	080002e1 	stmdaeq	r0, {r0, r5, r6, r7, r9}
 8000060:	080002e1 	stmdaeq	r0, {r0, r5, r6, r7, r9}
 8000064:	080002e1 	stmdaeq	r0, {r0, r5, r6, r7, r9}
 8000068:	080002e1 	stmdaeq	r0, {r0, r5, r6, r7, r9}
 800006c:	080002e1 	stmdaeq	r0, {r0, r5, r6, r7, r9}
 8000070:	080002e1 	stmdaeq	r0, {r0, r5, r6, r7, r9}
 8000074:	080002e1 	stmdaeq	r0, {r0, r5, r6, r7, r9}
 8000078:	080002e1 	stmdaeq	r0, {r0, r5, r6, r7, r9}
 800007c:	080002e1 	stmdaeq	r0, {r0, r5, r6, r7, r9}
 8000080:	080002e1 	stmdaeq	r0, {r0, r5, r6, r7, r9}
 8000084:	080002e1 	stmdaeq	r0, {r0, r5, r6, r7, r9}
 8000088:	080002e1 	stmdaeq	r0, {r0, r5, r6, r7, r9}
 800008c:	080002e1 	stmdaeq	r0, {r0, r5, r6, r7, r9}
 8000090:	080002e1 	stmdaeq	r0, {r0, r5, r6, r7, r9}
 8000094:	080002e1 	stmdaeq	r0, {r0, r5, r6, r7, r9}
 8000098:	080002e1 	stmdaeq	r0, {r0, r5, r6, r7, r9}
 800009c:	080002e1 	stmdaeq	r0, {r0, r5, r6, r7, r9}
 80000a0:	080002e1 	stmdaeq	r0, {r0, r5, r6, r7, r9}
 80000a4:	080002e1 	stmdaeq	r0, {r0, r5, r6, r7, r9}
 80000a8:	080002e1 	stmdaeq	r0, {r0, r5, r6, r7, r9}
 80000ac:	080002e1 	stmdaeq	r0, {r0, r5, r6, r7, r9}
 80000b0:	080002e1 	stmdaeq	r0, {r0, r5, r6, r7, r9}
 80000b4:	080002e1 	stmdaeq	r0, {r0, r5, r6, r7, r9}
 80000b8:	080002e1 	stmdaeq	r0, {r0, r5, r6, r7, r9}
 80000bc:	080002e1 	stmdaeq	r0, {r0, r5, r6, r7, r9}
 80000c0:	080002e1 	stmdaeq	r0, {r0, r5, r6, r7, r9}
 80000c4:	080002e1 	stmdaeq	r0, {r0, r5, r6, r7, r9}
 80000c8:	080002e1 	stmdaeq	r0, {r0, r5, r6, r7, r9}
 80000cc:	080002e1 	stmdaeq	r0, {r0, r5, r6, r7, r9}
 80000d0:	080002e1 	stmdaeq	r0, {r0, r5, r6, r7, r9}
 80000d4:	080002e1 	stmdaeq	r0, {r0, r5, r6, r7, r9}
 80000d8:	080002e1 	stmdaeq	r0, {r0, r5, r6, r7, r9}
 80000dc:	080002e1 	stmdaeq	r0, {r0, r5, r6, r7, r9}
 80000e0:	080002e1 	stmdaeq	r0, {r0, r5, r6, r7, r9}
 80000e4:	080002e1 	stmdaeq	r0, {r0, r5, r6, r7, r9}
 80000e8:	080002e1 	stmdaeq	r0, {r0, r5, r6, r7, r9}
	...
 8000108:	f108f85f 			; <UNDEFINED> instruction: 0xf108f85f

0800010c <SystemInit>:
 800010c:	b580      	push	{r7, lr}
 800010e:	af00      	add	r7, sp, #0
 8000110:	4b15      	ldr	r3, [pc, #84]	; (8000168 <SystemInit+0x5c>)
 8000112:	4a15      	ldr	r2, [pc, #84]	; (8000168 <SystemInit+0x5c>)
 8000114:	6812      	ldr	r2, [r2, #0]
 8000116:	f042 0201 	orr.w	r2, r2, #1
 800011a:	601a      	str	r2, [r3, #0]
 800011c:	4a12      	ldr	r2, [pc, #72]	; (8000168 <SystemInit+0x5c>)
 800011e:	4b12      	ldr	r3, [pc, #72]	; (8000168 <SystemInit+0x5c>)
 8000120:	6859      	ldr	r1, [r3, #4]
 8000122:	4b12      	ldr	r3, [pc, #72]	; (800016c <SystemInit+0x60>)
 8000124:	400b      	ands	r3, r1
 8000126:	6053      	str	r3, [r2, #4]
 8000128:	4a0f      	ldr	r2, [pc, #60]	; (8000168 <SystemInit+0x5c>)
 800012a:	4b0f      	ldr	r3, [pc, #60]	; (8000168 <SystemInit+0x5c>)
 800012c:	681b      	ldr	r3, [r3, #0]
 800012e:	f023 7384 	bic.w	r3, r3, #17301504	; 0x1080000
 8000132:	f423 3380 	bic.w	r3, r3, #65536	; 0x10000
 8000136:	6013      	str	r3, [r2, #0]
 8000138:	4b0b      	ldr	r3, [pc, #44]	; (8000168 <SystemInit+0x5c>)
 800013a:	4a0b      	ldr	r2, [pc, #44]	; (8000168 <SystemInit+0x5c>)
 800013c:	6812      	ldr	r2, [r2, #0]
 800013e:	f422 2280 	bic.w	r2, r2, #262144	; 0x40000
 8000142:	601a      	str	r2, [r3, #0]
 8000144:	4b08      	ldr	r3, [pc, #32]	; (8000168 <SystemInit+0x5c>)
 8000146:	4a08      	ldr	r2, [pc, #32]	; (8000168 <SystemInit+0x5c>)
 8000148:	6852      	ldr	r2, [r2, #4]
 800014a:	f422 02fe 	bic.w	r2, r2, #8323072	; 0x7f0000
 800014e:	605a      	str	r2, [r3, #4]
 8000150:	4b05      	ldr	r3, [pc, #20]	; (8000168 <SystemInit+0x5c>)
 8000152:	f44f 021f 	mov.w	r2, #10420224	; 0x9f0000
 8000156:	609a      	str	r2, [r3, #8]
 8000158:	f000 f80c 	bl	8000174 <SetSysClock>
 800015c:	4b04      	ldr	r3, [pc, #16]	; (8000170 <SystemInit+0x64>)
 800015e:	f04f 6200 	mov.w	r2, #134217728	; 0x8000000
 8000162:	609a      	str	r2, [r3, #8]
 8000164:	bd80      	pop	{r7, pc}
 8000166:	bf00      	nop
 8000168:	40021000 	andmi	r1, r2, r0
 800016c:	f8ff0000 			; <UNDEFINED> instruction: 0xf8ff0000
 8000170:	e000ed00 	and	lr, r0, r0, lsl #26

08000174 <SetSysClock>:
 8000174:	b580      	push	{r7, lr}
 8000176:	af00      	add	r7, sp, #0
 8000178:	f000 f802 	bl	8000180 <SetSysClockTo72>
 800017c:	bd80      	pop	{r7, pc}
 800017e:	bf00      	nop

08000180 <SetSysClockTo72>:
 8000180:	b480      	push	{r7}
 8000182:	b083      	sub	sp, #12
 8000184:	af00      	add	r7, sp, #0
 8000186:	2300      	movs	r3, #0
 8000188:	607b      	str	r3, [r7, #4]
 800018a:	2300      	movs	r3, #0
 800018c:	603b      	str	r3, [r7, #0]
 800018e:	4b3a      	ldr	r3, [pc, #232]	; (8000278 <SetSysClockTo72+0xf8>)
 8000190:	4a39      	ldr	r2, [pc, #228]	; (8000278 <SetSysClockTo72+0xf8>)
 8000192:	6812      	ldr	r2, [r2, #0]
 8000194:	f442 3280 	orr.w	r2, r2, #65536	; 0x10000
 8000198:	601a      	str	r2, [r3, #0]
 800019a:	4b37      	ldr	r3, [pc, #220]	; (8000278 <SetSysClockTo72+0xf8>)
 800019c:	681b      	ldr	r3, [r3, #0]
 800019e:	f403 3300 	and.w	r3, r3, #131072	; 0x20000
 80001a2:	603b      	str	r3, [r7, #0]
 80001a4:	687b      	ldr	r3, [r7, #4]
 80001a6:	3301      	adds	r3, #1
 80001a8:	607b      	str	r3, [r7, #4]
 80001aa:	683b      	ldr	r3, [r7, #0]
 80001ac:	2b00      	cmp	r3, #0
 80001ae:	d103      	bne.n	80001b8 <SetSysClockTo72+0x38>
 80001b0:	687b      	ldr	r3, [r7, #4]
 80001b2:	f5b3 6fa0 	cmp.w	r3, #1280	; 0x500
 80001b6:	d1f0      	bne.n	800019a <SetSysClockTo72+0x1a>
 80001b8:	4b2f      	ldr	r3, [pc, #188]	; (8000278 <SetSysClockTo72+0xf8>)
 80001ba:	681b      	ldr	r3, [r3, #0]
 80001bc:	f403 3300 	and.w	r3, r3, #131072	; 0x20000
 80001c0:	2b00      	cmp	r3, #0
 80001c2:	d002      	beq.n	80001ca <SetSysClockTo72+0x4a>
 80001c4:	2301      	movs	r3, #1
 80001c6:	603b      	str	r3, [r7, #0]
 80001c8:	e001      	b.n	80001ce <SetSysClockTo72+0x4e>
 80001ca:	2300      	movs	r3, #0
 80001cc:	603b      	str	r3, [r7, #0]
 80001ce:	683b      	ldr	r3, [r7, #0]
 80001d0:	2b01      	cmp	r3, #1
 80001d2:	d14b      	bne.n	800026c <SetSysClockTo72+0xec>
 80001d4:	4b29      	ldr	r3, [pc, #164]	; (800027c <SetSysClockTo72+0xfc>)
 80001d6:	4a29      	ldr	r2, [pc, #164]	; (800027c <SetSysClockTo72+0xfc>)
 80001d8:	6812      	ldr	r2, [r2, #0]
 80001da:	f042 0210 	orr.w	r2, r2, #16
 80001de:	601a      	str	r2, [r3, #0]
 80001e0:	4b26      	ldr	r3, [pc, #152]	; (800027c <SetSysClockTo72+0xfc>)
 80001e2:	4a26      	ldr	r2, [pc, #152]	; (800027c <SetSysClockTo72+0xfc>)
 80001e4:	6812      	ldr	r2, [r2, #0]
 80001e6:	f022 0203 	bic.w	r2, r2, #3
 80001ea:	601a      	str	r2, [r3, #0]
 80001ec:	4b23      	ldr	r3, [pc, #140]	; (800027c <SetSysClockTo72+0xfc>)
 80001ee:	4a23      	ldr	r2, [pc, #140]	; (800027c <SetSysClockTo72+0xfc>)
 80001f0:	6812      	ldr	r2, [r2, #0]
 80001f2:	f042 0202 	orr.w	r2, r2, #2
 80001f6:	601a      	str	r2, [r3, #0]
 80001f8:	4b1f      	ldr	r3, [pc, #124]	; (8000278 <SetSysClockTo72+0xf8>)
 80001fa:	4a1f      	ldr	r2, [pc, #124]	; (8000278 <SetSysClockTo72+0xf8>)
 80001fc:	6852      	ldr	r2, [r2, #4]
 80001fe:	605a      	str	r2, [r3, #4]
 8000200:	4b1d      	ldr	r3, [pc, #116]	; (8000278 <SetSysClockTo72+0xf8>)
 8000202:	4a1d      	ldr	r2, [pc, #116]	; (8000278 <SetSysClockTo72+0xf8>)
 8000204:	6852      	ldr	r2, [r2, #4]
 8000206:	605a      	str	r2, [r3, #4]
 8000208:	4b1b      	ldr	r3, [pc, #108]	; (8000278 <SetSysClockTo72+0xf8>)
 800020a:	4a1b      	ldr	r2, [pc, #108]	; (8000278 <SetSysClockTo72+0xf8>)
 800020c:	6852      	ldr	r2, [r2, #4]
 800020e:	f442 6280 	orr.w	r2, r2, #1024	; 0x400
 8000212:	605a      	str	r2, [r3, #4]
 8000214:	4b18      	ldr	r3, [pc, #96]	; (8000278 <SetSysClockTo72+0xf8>)
 8000216:	4a18      	ldr	r2, [pc, #96]	; (8000278 <SetSysClockTo72+0xf8>)
 8000218:	6852      	ldr	r2, [r2, #4]
 800021a:	f422 127c 	bic.w	r2, r2, #4128768	; 0x3f0000
 800021e:	605a      	str	r2, [r3, #4]
 8000220:	4b15      	ldr	r3, [pc, #84]	; (8000278 <SetSysClockTo72+0xf8>)
 8000222:	4a15      	ldr	r2, [pc, #84]	; (8000278 <SetSysClockTo72+0xf8>)
 8000224:	6852      	ldr	r2, [r2, #4]
 8000226:	f442 12e8 	orr.w	r2, r2, #1900544	; 0x1d0000
 800022a:	605a      	str	r2, [r3, #4]
 800022c:	4b12      	ldr	r3, [pc, #72]	; (8000278 <SetSysClockTo72+0xf8>)
 800022e:	4a12      	ldr	r2, [pc, #72]	; (8000278 <SetSysClockTo72+0xf8>)
 8000230:	6812      	ldr	r2, [r2, #0]
 8000232:	f042 7280 	orr.w	r2, r2, #16777216	; 0x1000000
 8000236:	601a      	str	r2, [r3, #0]
 8000238:	bf00      	nop
 800023a:	4b0f      	ldr	r3, [pc, #60]	; (8000278 <SetSysClockTo72+0xf8>)
 800023c:	681b      	ldr	r3, [r3, #0]
 800023e:	f003 7300 	and.w	r3, r3, #33554432	; 0x2000000
 8000242:	2b00      	cmp	r3, #0
 8000244:	d0f9      	beq.n	800023a <SetSysClockTo72+0xba>
 8000246:	4b0c      	ldr	r3, [pc, #48]	; (8000278 <SetSysClockTo72+0xf8>)
 8000248:	4a0b      	ldr	r2, [pc, #44]	; (8000278 <SetSysClockTo72+0xf8>)
 800024a:	6852      	ldr	r2, [r2, #4]
 800024c:	f022 0203 	bic.w	r2, r2, #3
 8000250:	605a      	str	r2, [r3, #4]
 8000252:	4b09      	ldr	r3, [pc, #36]	; (8000278 <SetSysClockTo72+0xf8>)
 8000254:	4a08      	ldr	r2, [pc, #32]	; (8000278 <SetSysClockTo72+0xf8>)
 8000256:	6852      	ldr	r2, [r2, #4]
 8000258:	f042 0202 	orr.w	r2, r2, #2
 800025c:	605a      	str	r2, [r3, #4]
 800025e:	bf00      	nop
 8000260:	4b05      	ldr	r3, [pc, #20]	; (8000278 <SetSysClockTo72+0xf8>)
 8000262:	685b      	ldr	r3, [r3, #4]
 8000264:	f003 030c 	and.w	r3, r3, #12
 8000268:	2b08      	cmp	r3, #8
 800026a:	d1f9      	bne.n	8000260 <SetSysClockTo72+0xe0>
 800026c:	370c      	adds	r7, #12
 800026e:	46bd      	mov	sp, r7
 8000270:	f85d 7b04 	ldr.w	r7, [sp], #4
 8000274:	4770      	bx	lr
 8000276:	bf00      	nop
 8000278:	40021000 	andmi	r1, r2, r0
 800027c:	40022000 	andmi	r2, r2, r0

08000280 <Default_Reset_Handler>:
 8000280:	b580      	push	{r7, lr}
 8000282:	b082      	sub	sp, #8
 8000284:	af00      	add	r7, sp, #0
 8000286:	4b11      	ldr	r3, [pc, #68]	; (80002cc <zero_loop+0x1c>)
 8000288:	607b      	str	r3, [r7, #4]
 800028a:	4b11      	ldr	r3, [pc, #68]	; (80002d0 <zero_loop+0x20>)
 800028c:	603b      	str	r3, [r7, #0]
 800028e:	e007      	b.n	80002a0 <Default_Reset_Handler+0x20>
 8000290:	683b      	ldr	r3, [r7, #0]
 8000292:	1d1a      	adds	r2, r3, #4
 8000294:	603a      	str	r2, [r7, #0]
 8000296:	687a      	ldr	r2, [r7, #4]
 8000298:	1d11      	adds	r1, r2, #4
 800029a:	6079      	str	r1, [r7, #4]
 800029c:	6812      	ldr	r2, [r2, #0]
 800029e:	601a      	str	r2, [r3, #0]
 80002a0:	683a      	ldr	r2, [r7, #0]
 80002a2:	4b0c      	ldr	r3, [pc, #48]	; (80002d4 <zero_loop+0x24>)
 80002a4:	429a      	cmp	r2, r3
 80002a6:	d3f3      	bcc.n	8000290 <Default_Reset_Handler+0x10>
 80002a8:	480b      	ldr	r0, [pc, #44]	; (80002d8 <zero_loop+0x28>)
 80002aa:	490c      	ldr	r1, [pc, #48]	; (80002dc <zero_loop+0x2c>)
 80002ac:	f04f 0200 	mov.w	r2, #0

080002b0 <zero_loop>:
 80002b0:	4288      	cmp	r0, r1
 80002b2:	bfb8      	it	lt
 80002b4:	f840 2b04 	strlt.w	r2, [r0], #4
 80002b8:	f6ff affa 	blt.w	80002b0 <zero_loop>
 80002bc:	f7ff ff26 	bl	800010c <SystemInit>
 80002c0:	f000 f93c 	bl	800053c <main>
 80002c4:	3708      	adds	r7, #8
 80002c6:	46bd      	mov	sp, r7
 80002c8:	bd80      	pop	{r7, pc}
 80002ca:	bf00      	nop
 80002cc:	08001fb0 	stmdaeq	r0, {r4, r5, r7, r8, r9, sl, fp, ip}
 80002d0:	20000000 	andcs	r0, r0, r0
 80002d4:	2000008c 	andcs	r0, r0, ip, lsl #1
 80002d8:	2000008c 	andcs	r0, r0, ip, lsl #1
 80002dc:	200000b8 	strhcs	r0, [r0], -r8

080002e0 <ADC1_2_IRQHandler>:
 80002e0:	b480      	push	{r7}
 80002e2:	af00      	add	r7, sp, #0
 80002e4:	e7fe      	b.n	80002e4 <ADC1_2_IRQHandler+0x4>
 80002e6:	bf00      	nop

080002e8 <GPIO_Init>:
 80002e8:	b480      	push	{r7}
 80002ea:	b089      	sub	sp, #36	; 0x24
 80002ec:	af00      	add	r7, sp, #0
 80002ee:	6078      	str	r0, [r7, #4]
 80002f0:	6039      	str	r1, [r7, #0]
 80002f2:	2300      	movs	r3, #0
 80002f4:	61fb      	str	r3, [r7, #28]
 80002f6:	2300      	movs	r3, #0
 80002f8:	613b      	str	r3, [r7, #16]
 80002fa:	2300      	movs	r3, #0
 80002fc:	61bb      	str	r3, [r7, #24]
 80002fe:	2300      	movs	r3, #0
 8000300:	60fb      	str	r3, [r7, #12]
 8000302:	2300      	movs	r3, #0
 8000304:	617b      	str	r3, [r7, #20]
 8000306:	2300      	movs	r3, #0
 8000308:	60bb      	str	r3, [r7, #8]
 800030a:	683b      	ldr	r3, [r7, #0]
 800030c:	78db      	ldrb	r3, [r3, #3]
 800030e:	f003 030f 	and.w	r3, r3, #15
 8000312:	61fb      	str	r3, [r7, #28]
 8000314:	683b      	ldr	r3, [r7, #0]
 8000316:	78db      	ldrb	r3, [r3, #3]
 8000318:	f003 0310 	and.w	r3, r3, #16
 800031c:	2b00      	cmp	r3, #0
 800031e:	d004      	beq.n	800032a <GPIO_Init+0x42>
 8000320:	683b      	ldr	r3, [r7, #0]
 8000322:	789b      	ldrb	r3, [r3, #2]
 8000324:	69fa      	ldr	r2, [r7, #28]
 8000326:	4313      	orrs	r3, r2
 8000328:	61fb      	str	r3, [r7, #28]
 800032a:	683b      	ldr	r3, [r7, #0]
 800032c:	881b      	ldrh	r3, [r3, #0]
 800032e:	b2db      	uxtb	r3, r3
 8000330:	2b00      	cmp	r3, #0
 8000332:	d044      	beq.n	80003be <GPIO_Init+0xd6>
 8000334:	687b      	ldr	r3, [r7, #4]
 8000336:	681b      	ldr	r3, [r3, #0]
 8000338:	617b      	str	r3, [r7, #20]
 800033a:	2300      	movs	r3, #0
 800033c:	61bb      	str	r3, [r7, #24]
 800033e:	e038      	b.n	80003b2 <GPIO_Init+0xca>
 8000340:	69bb      	ldr	r3, [r7, #24]
 8000342:	2201      	movs	r2, #1
 8000344:	fa02 f303 	lsl.w	r3, r2, r3
 8000348:	60fb      	str	r3, [r7, #12]
 800034a:	683b      	ldr	r3, [r7, #0]
 800034c:	881b      	ldrh	r3, [r3, #0]
 800034e:	461a      	mov	r2, r3
 8000350:	68fb      	ldr	r3, [r7, #12]
 8000352:	4013      	ands	r3, r2
 8000354:	613b      	str	r3, [r7, #16]
 8000356:	693a      	ldr	r2, [r7, #16]
 8000358:	68fb      	ldr	r3, [r7, #12]
 800035a:	429a      	cmp	r2, r3
 800035c:	d126      	bne.n	80003ac <GPIO_Init+0xc4>
 800035e:	69bb      	ldr	r3, [r7, #24]
 8000360:	009b      	lsls	r3, r3, #2
 8000362:	60fb      	str	r3, [r7, #12]
 8000364:	68fb      	ldr	r3, [r7, #12]
 8000366:	220f      	movs	r2, #15
 8000368:	fa02 f303 	lsl.w	r3, r2, r3
 800036c:	60bb      	str	r3, [r7, #8]
 800036e:	68bb      	ldr	r3, [r7, #8]
 8000370:	43db      	mvns	r3, r3
 8000372:	697a      	ldr	r2, [r7, #20]
 8000374:	4013      	ands	r3, r2
 8000376:	617b      	str	r3, [r7, #20]
 8000378:	68fb      	ldr	r3, [r7, #12]
 800037a:	69fa      	ldr	r2, [r7, #28]
 800037c:	fa02 f303 	lsl.w	r3, r2, r3
 8000380:	697a      	ldr	r2, [r7, #20]
 8000382:	4313      	orrs	r3, r2
 8000384:	617b      	str	r3, [r7, #20]
 8000386:	683b      	ldr	r3, [r7, #0]
 8000388:	78db      	ldrb	r3, [r3, #3]
 800038a:	2b28      	cmp	r3, #40	; 0x28
 800038c:	d105      	bne.n	800039a <GPIO_Init+0xb2>
 800038e:	69bb      	ldr	r3, [r7, #24]
 8000390:	2201      	movs	r2, #1
 8000392:	409a      	lsls	r2, r3
 8000394:	687b      	ldr	r3, [r7, #4]
 8000396:	615a      	str	r2, [r3, #20]
 8000398:	e008      	b.n	80003ac <GPIO_Init+0xc4>
 800039a:	683b      	ldr	r3, [r7, #0]
 800039c:	78db      	ldrb	r3, [r3, #3]
 800039e:	2b48      	cmp	r3, #72	; 0x48
 80003a0:	d104      	bne.n	80003ac <GPIO_Init+0xc4>
 80003a2:	69bb      	ldr	r3, [r7, #24]
 80003a4:	2201      	movs	r2, #1
 80003a6:	409a      	lsls	r2, r3
 80003a8:	687b      	ldr	r3, [r7, #4]
 80003aa:	611a      	str	r2, [r3, #16]
 80003ac:	69bb      	ldr	r3, [r7, #24]
 80003ae:	3301      	adds	r3, #1
 80003b0:	61bb      	str	r3, [r7, #24]
 80003b2:	69bb      	ldr	r3, [r7, #24]
 80003b4:	2b07      	cmp	r3, #7
 80003b6:	d9c3      	bls.n	8000340 <GPIO_Init+0x58>
 80003b8:	687b      	ldr	r3, [r7, #4]
 80003ba:	697a      	ldr	r2, [r7, #20]
 80003bc:	601a      	str	r2, [r3, #0]
 80003be:	683b      	ldr	r3, [r7, #0]
 80003c0:	881b      	ldrh	r3, [r3, #0]
 80003c2:	2bff      	cmp	r3, #255	; 0xff
 80003c4:	d946      	bls.n	8000454 <GPIO_Init+0x16c>
 80003c6:	687b      	ldr	r3, [r7, #4]
 80003c8:	685b      	ldr	r3, [r3, #4]
 80003ca:	617b      	str	r3, [r7, #20]
 80003cc:	2300      	movs	r3, #0
 80003ce:	61bb      	str	r3, [r7, #24]
 80003d0:	e03a      	b.n	8000448 <GPIO_Init+0x160>
 80003d2:	69bb      	ldr	r3, [r7, #24]
 80003d4:	3308      	adds	r3, #8
 80003d6:	2201      	movs	r2, #1
 80003d8:	fa02 f303 	lsl.w	r3, r2, r3
 80003dc:	60fb      	str	r3, [r7, #12]
 80003de:	683b      	ldr	r3, [r7, #0]
 80003e0:	881b      	ldrh	r3, [r3, #0]
 80003e2:	461a      	mov	r2, r3
 80003e4:	68fb      	ldr	r3, [r7, #12]
 80003e6:	4013      	ands	r3, r2
 80003e8:	613b      	str	r3, [r7, #16]
 80003ea:	693a      	ldr	r2, [r7, #16]
 80003ec:	68fb      	ldr	r3, [r7, #12]
 80003ee:	429a      	cmp	r2, r3
 80003f0:	d127      	bne.n	8000442 <GPIO_Init+0x15a>
 80003f2:	69bb      	ldr	r3, [r7, #24]
 80003f4:	009b      	lsls	r3, r3, #2
 80003f6:	60fb      	str	r3, [r7, #12]
 80003f8:	68fb      	ldr	r3, [r7, #12]
 80003fa:	220f      	movs	r2, #15
 80003fc:	fa02 f303 	lsl.w	r3, r2, r3
 8000400:	60bb      	str	r3, [r7, #8]
 8000402:	68bb      	ldr	r3, [r7, #8]
 8000404:	43db      	mvns	r3, r3
 8000406:	697a      	ldr	r2, [r7, #20]
 8000408:	4013      	ands	r3, r2
 800040a:	617b      	str	r3, [r7, #20]
 800040c:	68fb      	ldr	r3, [r7, #12]
 800040e:	69fa      	ldr	r2, [r7, #28]
 8000410:	fa02 f303 	lsl.w	r3, r2, r3
 8000414:	697a      	ldr	r2, [r7, #20]
 8000416:	4313      	orrs	r3, r2
 8000418:	617b      	str	r3, [r7, #20]
 800041a:	683b      	ldr	r3, [r7, #0]
 800041c:	78db      	ldrb	r3, [r3, #3]
 800041e:	2b28      	cmp	r3, #40	; 0x28
 8000420:	d105      	bne.n	800042e <GPIO_Init+0x146>
 8000422:	69bb      	ldr	r3, [r7, #24]
 8000424:	3308      	adds	r3, #8
 8000426:	2201      	movs	r2, #1
 8000428:	409a      	lsls	r2, r3
 800042a:	687b      	ldr	r3, [r7, #4]
 800042c:	615a      	str	r2, [r3, #20]
 800042e:	683b      	ldr	r3, [r7, #0]
 8000430:	78db      	ldrb	r3, [r3, #3]
 8000432:	2b48      	cmp	r3, #72	; 0x48
 8000434:	d105      	bne.n	8000442 <GPIO_Init+0x15a>
 8000436:	69bb      	ldr	r3, [r7, #24]
 8000438:	3308      	adds	r3, #8
 800043a:	2201      	movs	r2, #1
 800043c:	409a      	lsls	r2, r3
 800043e:	687b      	ldr	r3, [r7, #4]
 8000440:	611a      	str	r2, [r3, #16]
 8000442:	69bb      	ldr	r3, [r7, #24]
 8000444:	3301      	adds	r3, #1
 8000446:	61bb      	str	r3, [r7, #24]
 8000448:	69bb      	ldr	r3, [r7, #24]
 800044a:	2b07      	cmp	r3, #7
 800044c:	d9c1      	bls.n	80003d2 <GPIO_Init+0xea>
 800044e:	687b      	ldr	r3, [r7, #4]
 8000450:	697a      	ldr	r2, [r7, #20]
 8000452:	605a      	str	r2, [r3, #4]
 8000454:	3724      	adds	r7, #36	; 0x24
 8000456:	46bd      	mov	sp, r7
 8000458:	f85d 7b04 	ldr.w	r7, [sp], #4
 800045c:	4770      	bx	lr
 800045e:	bf00      	nop

08000460 <GPIO_ToggleBit>:
 8000460:	b480      	push	{r7}
 8000462:	b083      	sub	sp, #12
 8000464:	af00      	add	r7, sp, #0
 8000466:	6078      	str	r0, [r7, #4]
 8000468:	460b      	mov	r3, r1
 800046a:	807b      	strh	r3, [r7, #2]
 800046c:	4b05      	ldr	r3, [pc, #20]	; (8000484 <GPIO_ToggleBit+0x24>)
 800046e:	4a05      	ldr	r2, [pc, #20]	; (8000484 <GPIO_ToggleBit+0x24>)
 8000470:	68d2      	ldr	r2, [r2, #12]
 8000472:	f482 5200 	eor.w	r2, r2, #8192	; 0x2000
 8000476:	60da      	str	r2, [r3, #12]
 8000478:	370c      	adds	r7, #12
 800047a:	46bd      	mov	sp, r7
 800047c:	f85d 7b04 	ldr.w	r7, [sp], #4
 8000480:	4770      	bx	lr
 8000482:	bf00      	nop
 8000484:	40011000 	andmi	r1, r1, r0

08000488 <NVIC_SetPriority>:
 8000488:	b480      	push	{r7}
 800048a:	b083      	sub	sp, #12
 800048c:	af00      	add	r7, sp, #0
 800048e:	4603      	mov	r3, r0
 8000490:	6039      	str	r1, [r7, #0]
 8000492:	71fb      	strb	r3, [r7, #7]
 8000494:	f997 3007 	ldrsb.w	r3, [r7, #7]
 8000498:	2b00      	cmp	r3, #0
 800049a:	da0b      	bge.n	80004b4 <NVIC_SetPriority+0x2c>
 800049c:	490d      	ldr	r1, [pc, #52]	; (80004d4 <NVIC_SetPriority+0x4c>)
 800049e:	79fb      	ldrb	r3, [r7, #7]
 80004a0:	f003 030f 	and.w	r3, r3, #15
 80004a4:	3b04      	subs	r3, #4
 80004a6:	683a      	ldr	r2, [r7, #0]
 80004a8:	b2d2      	uxtb	r2, r2
 80004aa:	0112      	lsls	r2, r2, #4
 80004ac:	b2d2      	uxtb	r2, r2
 80004ae:	440b      	add	r3, r1
 80004b0:	761a      	strb	r2, [r3, #24]
 80004b2:	e009      	b.n	80004c8 <NVIC_SetPriority+0x40>
 80004b4:	4908      	ldr	r1, [pc, #32]	; (80004d8 <NVIC_SetPriority+0x50>)
 80004b6:	f997 3007 	ldrsb.w	r3, [r7, #7]
 80004ba:	683a      	ldr	r2, [r7, #0]
 80004bc:	b2d2      	uxtb	r2, r2
 80004be:	0112      	lsls	r2, r2, #4
 80004c0:	b2d2      	uxtb	r2, r2
 80004c2:	440b      	add	r3, r1
 80004c4:	f883 2300 	strb.w	r2, [r3, #768]	; 0x300
 80004c8:	370c      	adds	r7, #12
 80004ca:	46bd      	mov	sp, r7
 80004cc:	f85d 7b04 	ldr.w	r7, [sp], #4
 80004d0:	4770      	bx	lr
 80004d2:	bf00      	nop
 80004d4:	e000ed00 	and	lr, r0, r0, lsl #26
 80004d8:	e000e100 	and	lr, r0, r0, lsl #2

080004dc <SysTick_Config>:
 80004dc:	b580      	push	{r7, lr}
 80004de:	b082      	sub	sp, #8
 80004e0:	af00      	add	r7, sp, #0
 80004e2:	6078      	str	r0, [r7, #4]
 80004e4:	687b      	ldr	r3, [r7, #4]
 80004e6:	f1b3 7f80 	cmp.w	r3, #16777216	; 0x1000000
 80004ea:	d301      	bcc.n	80004f0 <SysTick_Config+0x14>
 80004ec:	2301      	movs	r3, #1
 80004ee:	e011      	b.n	8000514 <SysTick_Config+0x38>
 80004f0:	4b0a      	ldr	r3, [pc, #40]	; (800051c <SysTick_Config+0x40>)
 80004f2:	687a      	ldr	r2, [r7, #4]
 80004f4:	f022 427f 	bic.w	r2, r2, #4278190080	; 0xff000000
 80004f8:	3a01      	subs	r2, #1
 80004fa:	605a      	str	r2, [r3, #4]
 80004fc:	f04f 30ff 	mov.w	r0, #4294967295
 8000500:	210f      	movs	r1, #15
 8000502:	f7ff ffc1 	bl	8000488 <NVIC_SetPriority>
 8000506:	4b05      	ldr	r3, [pc, #20]	; (800051c <SysTick_Config+0x40>)
 8000508:	2200      	movs	r2, #0
 800050a:	609a      	str	r2, [r3, #8]
 800050c:	4b03      	ldr	r3, [pc, #12]	; (800051c <SysTick_Config+0x40>)
 800050e:	2207      	movs	r2, #7
 8000510:	601a      	str	r2, [r3, #0]
 8000512:	2300      	movs	r3, #0
 8000514:	4618      	mov	r0, r3
 8000516:	3708      	adds	r7, #8
 8000518:	46bd      	mov	sp, r7
 800051a:	bd80      	pop	{r7, pc}
 800051c:	e000e010 	and	lr, r0, r0, lsl r0

08000520 <SysTick_Handler>:
 8000520:	b480      	push	{r7}
 8000522:	af00      	add	r7, sp, #0
 8000524:	4b04      	ldr	r3, [pc, #16]	; (8000538 <SysTick_Handler+0x18>)
 8000526:	681b      	ldr	r3, [r3, #0]
 8000528:	1c5a      	adds	r2, r3, #1
 800052a:	4b03      	ldr	r3, [pc, #12]	; (8000538 <SysTick_Handler+0x18>)
 800052c:	601a      	str	r2, [r3, #0]
 800052e:	46bd      	mov	sp, r7
 8000530:	f85d 7b04 	ldr.w	r7, [sp], #4
 8000534:	4770      	bx	lr
 8000536:	bf00      	nop
 8000538:	200000ac 	andcs	r0, r0, ip, lsr #1

0800053c <main>:
 800053c:	b580      	push	{r7, lr}
 800053e:	af00      	add	r7, sp, #0
 8000540:	4b86      	ldr	r3, [pc, #536]	; (800075c <main+0x220>)
 8000542:	681a      	ldr	r2, [r3, #0]
 8000544:	4b86      	ldr	r3, [pc, #536]	; (8000760 <main+0x224>)
 8000546:	fba3 1302 	umull	r1, r3, r3, r2
 800054a:	099b      	lsrs	r3, r3, #6
 800054c:	4618      	mov	r0, r3
 800054e:	f7ff ffc5 	bl	80004dc <SysTick_Config>
 8000552:	f000 f91b 	bl	800078c <Init>
 8000556:	4b83      	ldr	r3, [pc, #524]	; (8000764 <main+0x228>)
 8000558:	681b      	ldr	r3, [r3, #0]
 800055a:	685b      	ldr	r3, [r3, #4]
 800055c:	4618      	mov	r0, r3
 800055e:	2100      	movs	r1, #0
 8000560:	2202      	movs	r2, #2
 8000562:	2300      	movs	r3, #0
 8000564:	f000 fcc4 	bl	8000ef0 <setvbuf>
 8000568:	4b7e      	ldr	r3, [pc, #504]	; (8000764 <main+0x228>)
 800056a:	681b      	ldr	r3, [r3, #0]
 800056c:	689b      	ldr	r3, [r3, #8]
 800056e:	4618      	mov	r0, r3
 8000570:	2100      	movs	r1, #0
 8000572:	2202      	movs	r2, #2
 8000574:	2300      	movs	r3, #0
 8000576:	f000 fcbb 	bl	8000ef0 <setvbuf>
 800057a:	4b7a      	ldr	r3, [pc, #488]	; (8000764 <main+0x228>)
 800057c:	681b      	ldr	r3, [r3, #0]
 800057e:	68db      	ldr	r3, [r3, #12]
 8000580:	4618      	mov	r0, r3
 8000582:	2100      	movs	r1, #0
 8000584:	2202      	movs	r2, #2
 8000586:	2300      	movs	r3, #0
 8000588:	f000 fcb2 	bl	8000ef0 <setvbuf>
 800058c:	4876      	ldr	r0, [pc, #472]	; (8000768 <main+0x22c>)
 800058e:	f000 fc7b 	bl	8000e88 <puts>
 8000592:	4b76      	ldr	r3, [pc, #472]	; (800076c <main+0x230>)
 8000594:	681a      	ldr	r2, [r3, #0]
 8000596:	4b76      	ldr	r3, [pc, #472]	; (8000770 <main+0x234>)
 8000598:	601a      	str	r2, [r3, #0]
 800059a:	4b75      	ldr	r3, [pc, #468]	; (8000770 <main+0x234>)
 800059c:	681a      	ldr	r2, [r3, #0]
 800059e:	4b75      	ldr	r3, [pc, #468]	; (8000774 <main+0x238>)
 80005a0:	681b      	ldr	r3, [r3, #0]
 80005a2:	1ad3      	subs	r3, r2, r3
 80005a4:	f5b3 7ffa 	cmp.w	r3, #500	; 0x1f4
 80005a8:	d961      	bls.n	800066e <main+0x132>
 80005aa:	4b71      	ldr	r3, [pc, #452]	; (8000770 <main+0x234>)
 80005ac:	681a      	ldr	r2, [r3, #0]
 80005ae:	4b71      	ldr	r3, [pc, #452]	; (8000774 <main+0x238>)
 80005b0:	601a      	str	r2, [r3, #0]
 80005b2:	4871      	ldr	r0, [pc, #452]	; (8000778 <main+0x23c>)
 80005b4:	f44f 5100 	mov.w	r1, #8192	; 0x2000
 80005b8:	f7ff ff52 	bl	8000460 <GPIO_ToggleBit>
 80005bc:	486f      	ldr	r0, [pc, #444]	; (800077c <main+0x240>)
 80005be:	2161      	movs	r1, #97	; 0x61
 80005c0:	f000 fb12 	bl	8000be8 <USART_SendData>
 80005c4:	4b67      	ldr	r3, [pc, #412]	; (8000764 <main+0x228>)
 80005c6:	681b      	ldr	r3, [r3, #0]
 80005c8:	689b      	ldr	r3, [r3, #8]
 80005ca:	689a      	ldr	r2, [r3, #8]
 80005cc:	3a01      	subs	r2, #1
 80005ce:	609a      	str	r2, [r3, #8]
 80005d0:	689b      	ldr	r3, [r3, #8]
 80005d2:	2b00      	cmp	r3, #0
 80005d4:	da33      	bge.n	800063e <main+0x102>
 80005d6:	4b63      	ldr	r3, [pc, #396]	; (8000764 <main+0x228>)
 80005d8:	681b      	ldr	r3, [r3, #0]
 80005da:	689b      	ldr	r3, [r3, #8]
 80005dc:	689a      	ldr	r2, [r3, #8]
 80005de:	4b61      	ldr	r3, [pc, #388]	; (8000764 <main+0x228>)
 80005e0:	681b      	ldr	r3, [r3, #0]
 80005e2:	689b      	ldr	r3, [r3, #8]
 80005e4:	699b      	ldr	r3, [r3, #24]
 80005e6:	429a      	cmp	r2, r3
 80005e8:	db1e      	blt.n	8000628 <main+0xec>
 80005ea:	4b5e      	ldr	r3, [pc, #376]	; (8000764 <main+0x228>)
 80005ec:	681b      	ldr	r3, [r3, #0]
 80005ee:	689b      	ldr	r3, [r3, #8]
 80005f0:	681b      	ldr	r3, [r3, #0]
 80005f2:	2262      	movs	r2, #98	; 0x62
 80005f4:	701a      	strb	r2, [r3, #0]
 80005f6:	4b5b      	ldr	r3, [pc, #364]	; (8000764 <main+0x228>)
 80005f8:	681b      	ldr	r3, [r3, #0]
 80005fa:	689b      	ldr	r3, [r3, #8]
 80005fc:	681b      	ldr	r3, [r3, #0]
 80005fe:	781b      	ldrb	r3, [r3, #0]
 8000600:	2b0a      	cmp	r3, #10
 8000602:	d006      	beq.n	8000612 <main+0xd6>
 8000604:	4b57      	ldr	r3, [pc, #348]	; (8000764 <main+0x228>)
 8000606:	681b      	ldr	r3, [r3, #0]
 8000608:	689b      	ldr	r3, [r3, #8]
 800060a:	681a      	ldr	r2, [r3, #0]
 800060c:	3201      	adds	r2, #1
 800060e:	601a      	str	r2, [r3, #0]
 8000610:	e021      	b.n	8000656 <main+0x11a>
 8000612:	4b54      	ldr	r3, [pc, #336]	; (8000764 <main+0x228>)
 8000614:	681a      	ldr	r2, [r3, #0]
 8000616:	4b53      	ldr	r3, [pc, #332]	; (8000764 <main+0x228>)
 8000618:	681b      	ldr	r3, [r3, #0]
 800061a:	689b      	ldr	r3, [r3, #8]
 800061c:	4610      	mov	r0, r2
 800061e:	210a      	movs	r1, #10
 8000620:	461a      	mov	r2, r3
 8000622:	f000 ff9f 	bl	8001564 <__swbuf_r>
 8000626:	e016      	b.n	8000656 <main+0x11a>
 8000628:	4b4e      	ldr	r3, [pc, #312]	; (8000764 <main+0x228>)
 800062a:	681a      	ldr	r2, [r3, #0]
 800062c:	4b4d      	ldr	r3, [pc, #308]	; (8000764 <main+0x228>)
 800062e:	681b      	ldr	r3, [r3, #0]
 8000630:	689b      	ldr	r3, [r3, #8]
 8000632:	4610      	mov	r0, r2
 8000634:	2162      	movs	r1, #98	; 0x62
 8000636:	461a      	mov	r2, r3
 8000638:	f000 ff94 	bl	8001564 <__swbuf_r>
 800063c:	e00b      	b.n	8000656 <main+0x11a>
 800063e:	4b49      	ldr	r3, [pc, #292]	; (8000764 <main+0x228>)
 8000640:	681b      	ldr	r3, [r3, #0]
 8000642:	689b      	ldr	r3, [r3, #8]
 8000644:	681b      	ldr	r3, [r3, #0]
 8000646:	2262      	movs	r2, #98	; 0x62
 8000648:	701a      	strb	r2, [r3, #0]
 800064a:	4b46      	ldr	r3, [pc, #280]	; (8000764 <main+0x228>)
 800064c:	681b      	ldr	r3, [r3, #0]
 800064e:	689b      	ldr	r3, [r3, #8]
 8000650:	681a      	ldr	r2, [r3, #0]
 8000652:	3201      	adds	r2, #1
 8000654:	601a      	str	r2, [r3, #0]
 8000656:	4b4a      	ldr	r3, [pc, #296]	; (8000780 <main+0x244>)
 8000658:	781b      	ldrb	r3, [r3, #0]
 800065a:	484a      	ldr	r0, [pc, #296]	; (8000784 <main+0x248>)
 800065c:	4619      	mov	r1, r3
 800065e:	f000 fb9b 	bl	8000d98 <iprintf>
 8000662:	4b47      	ldr	r3, [pc, #284]	; (8000780 <main+0x244>)
 8000664:	781b      	ldrb	r3, [r3, #0]
 8000666:	3301      	adds	r3, #1
 8000668:	b2da      	uxtb	r2, r3
 800066a:	4b45      	ldr	r3, [pc, #276]	; (8000780 <main+0x244>)
 800066c:	701a      	strb	r2, [r3, #0]
 800066e:	4b3d      	ldr	r3, [pc, #244]	; (8000764 <main+0x228>)
 8000670:	681b      	ldr	r3, [r3, #0]
 8000672:	685b      	ldr	r3, [r3, #4]
 8000674:	685a      	ldr	r2, [r3, #4]
 8000676:	3a01      	subs	r2, #1
 8000678:	605a      	str	r2, [r3, #4]
 800067a:	685b      	ldr	r3, [r3, #4]
 800067c:	2b00      	cmp	r3, #0
 800067e:	da0b      	bge.n	8000698 <main+0x15c>
 8000680:	4b38      	ldr	r3, [pc, #224]	; (8000764 <main+0x228>)
 8000682:	681a      	ldr	r2, [r3, #0]
 8000684:	4b37      	ldr	r3, [pc, #220]	; (8000764 <main+0x228>)
 8000686:	681b      	ldr	r3, [r3, #0]
 8000688:	685b      	ldr	r3, [r3, #4]
 800068a:	4610      	mov	r0, r2
 800068c:	4619      	mov	r1, r3
 800068e:	f000 fc03 	bl	8000e98 <__srget_r>
 8000692:	4603      	mov	r3, r0
 8000694:	b2db      	uxtb	r3, r3
 8000696:	e007      	b.n	80006a8 <main+0x16c>
 8000698:	4b32      	ldr	r3, [pc, #200]	; (8000764 <main+0x228>)
 800069a:	681b      	ldr	r3, [r3, #0]
 800069c:	685a      	ldr	r2, [r3, #4]
 800069e:	6813      	ldr	r3, [r2, #0]
 80006a0:	1c59      	adds	r1, r3, #1
 80006a2:	6011      	str	r1, [r2, #0]
 80006a4:	781b      	ldrb	r3, [r3, #0]
 80006a6:	b2db      	uxtb	r3, r3
 80006a8:	4a37      	ldr	r2, [pc, #220]	; (8000788 <main+0x24c>)
 80006aa:	7013      	strb	r3, [r2, #0]
 80006ac:	4b36      	ldr	r3, [pc, #216]	; (8000788 <main+0x24c>)
 80006ae:	781b      	ldrb	r3, [r3, #0]
 80006b0:	b25b      	sxtb	r3, r3
 80006b2:	f1b3 3fff 	cmp.w	r3, #4294967295
 80006b6:	d050      	beq.n	800075a <main+0x21e>
 80006b8:	4b2a      	ldr	r3, [pc, #168]	; (8000764 <main+0x228>)
 80006ba:	681b      	ldr	r3, [r3, #0]
 80006bc:	689b      	ldr	r3, [r3, #8]
 80006be:	689a      	ldr	r2, [r3, #8]
 80006c0:	3a01      	subs	r2, #1
 80006c2:	609a      	str	r2, [r3, #8]
 80006c4:	689b      	ldr	r3, [r3, #8]
 80006c6:	2b00      	cmp	r3, #0
 80006c8:	da38      	bge.n	800073c <main+0x200>
 80006ca:	4b26      	ldr	r3, [pc, #152]	; (8000764 <main+0x228>)
 80006cc:	681b      	ldr	r3, [r3, #0]
 80006ce:	689b      	ldr	r3, [r3, #8]
 80006d0:	689a      	ldr	r2, [r3, #8]
 80006d2:	4b24      	ldr	r3, [pc, #144]	; (8000764 <main+0x228>)
 80006d4:	681b      	ldr	r3, [r3, #0]
 80006d6:	689b      	ldr	r3, [r3, #8]
 80006d8:	699b      	ldr	r3, [r3, #24]
 80006da:	429a      	cmp	r2, r3
 80006dc:	db20      	blt.n	8000720 <main+0x1e4>
 80006de:	4b21      	ldr	r3, [pc, #132]	; (8000764 <main+0x228>)
 80006e0:	681b      	ldr	r3, [r3, #0]
 80006e2:	689b      	ldr	r3, [r3, #8]
 80006e4:	681b      	ldr	r3, [r3, #0]
 80006e6:	4a28      	ldr	r2, [pc, #160]	; (8000788 <main+0x24c>)
 80006e8:	7812      	ldrb	r2, [r2, #0]
 80006ea:	b2d2      	uxtb	r2, r2
 80006ec:	701a      	strb	r2, [r3, #0]
 80006ee:	4b1d      	ldr	r3, [pc, #116]	; (8000764 <main+0x228>)
 80006f0:	681b      	ldr	r3, [r3, #0]
 80006f2:	689b      	ldr	r3, [r3, #8]
 80006f4:	681b      	ldr	r3, [r3, #0]
 80006f6:	781b      	ldrb	r3, [r3, #0]
 80006f8:	2b0a      	cmp	r3, #10
 80006fa:	d006      	beq.n	800070a <main+0x1ce>
 80006fc:	4b19      	ldr	r3, [pc, #100]	; (8000764 <main+0x228>)
 80006fe:	681b      	ldr	r3, [r3, #0]
 8000700:	689b      	ldr	r3, [r3, #8]
 8000702:	681a      	ldr	r2, [r3, #0]
 8000704:	3201      	adds	r2, #1
 8000706:	601a      	str	r2, [r3, #0]
 8000708:	e027      	b.n	800075a <main+0x21e>
 800070a:	4b16      	ldr	r3, [pc, #88]	; (8000764 <main+0x228>)
 800070c:	681a      	ldr	r2, [r3, #0]
 800070e:	4b15      	ldr	r3, [pc, #84]	; (8000764 <main+0x228>)
 8000710:	681b      	ldr	r3, [r3, #0]
 8000712:	689b      	ldr	r3, [r3, #8]
 8000714:	4610      	mov	r0, r2
 8000716:	210a      	movs	r1, #10
 8000718:	461a      	mov	r2, r3
 800071a:	f000 ff23 	bl	8001564 <__swbuf_r>
 800071e:	e01c      	b.n	800075a <main+0x21e>
 8000720:	4b10      	ldr	r3, [pc, #64]	; (8000764 <main+0x228>)
 8000722:	6819      	ldr	r1, [r3, #0]
 8000724:	4b18      	ldr	r3, [pc, #96]	; (8000788 <main+0x24c>)
 8000726:	781b      	ldrb	r3, [r3, #0]
 8000728:	b25a      	sxtb	r2, r3
 800072a:	4b0e      	ldr	r3, [pc, #56]	; (8000764 <main+0x228>)
 800072c:	681b      	ldr	r3, [r3, #0]
 800072e:	689b      	ldr	r3, [r3, #8]
 8000730:	4608      	mov	r0, r1
 8000732:	4611      	mov	r1, r2
 8000734:	461a      	mov	r2, r3
 8000736:	f000 ff15 	bl	8001564 <__swbuf_r>
 800073a:	e72a      	b.n	8000592 <main+0x56>
 800073c:	4b09      	ldr	r3, [pc, #36]	; (8000764 <main+0x228>)
 800073e:	681b      	ldr	r3, [r3, #0]
 8000740:	689b      	ldr	r3, [r3, #8]
 8000742:	681b      	ldr	r3, [r3, #0]
 8000744:	4a10      	ldr	r2, [pc, #64]	; (8000788 <main+0x24c>)
 8000746:	7812      	ldrb	r2, [r2, #0]
 8000748:	b2d2      	uxtb	r2, r2
 800074a:	701a      	strb	r2, [r3, #0]
 800074c:	4b05      	ldr	r3, [pc, #20]	; (8000764 <main+0x228>)
 800074e:	681b      	ldr	r3, [r3, #0]
 8000750:	689b      	ldr	r3, [r3, #8]
 8000752:	681a      	ldr	r2, [r3, #0]
 8000754:	3201      	adds	r2, #1
 8000756:	601a      	str	r2, [r3, #0]
 8000758:	e71b      	b.n	8000592 <main+0x56>
 800075a:	e71a      	b.n	8000592 <main+0x56>
 800075c:	20000000 	andcs	r0, r0, r0
 8000760:	10624dd3 	ldrdne	r4, [r2], #-211	; 0xffffff2d	; <UNPREDICTABLE>
 8000764:	20000088 	andcs	r0, r0, r8, lsl #1
 8000768:	08001f04 	stmdaeq	r0, {r2, r8, r9, sl, fp, ip}
 800076c:	200000ac 	andcs	r0, r0, ip, lsr #1
 8000770:	200000a0 	andcs	r0, r0, r0, lsr #1
 8000774:	2000008c 	andcs	r0, r0, ip, lsl #1
 8000778:	40011000 	andmi	r1, r1, r0
 800077c:	40013800 	andmi	r3, r1, r0, lsl #16
 8000780:	20000090 	mulcs	r0, r0, r0
 8000784:	08001f0c 	stmdaeq	r0, {r2, r3, r8, r9, sl, fp, ip}
 8000788:	200000a4 	andcs	r0, r0, r4, lsr #1

0800078c <Init>:
 800078c:	b580      	push	{r7, lr}
 800078e:	b084      	sub	sp, #16
 8000790:	af00      	add	r7, sp, #0
 8000792:	2010      	movs	r0, #16
 8000794:	2101      	movs	r1, #1
 8000796:	f000 f92f 	bl	80009f8 <RCC_APB2PeriphClockCmd>
 800079a:	4b22      	ldr	r3, [pc, #136]	; (8000824 <Init+0x98>)
 800079c:	f44f 5200 	mov.w	r2, #8192	; 0x2000
 80007a0:	801a      	strh	r2, [r3, #0]
 80007a2:	4b20      	ldr	r3, [pc, #128]	; (8000824 <Init+0x98>)
 80007a4:	2210      	movs	r2, #16
 80007a6:	70da      	strb	r2, [r3, #3]
 80007a8:	4b1e      	ldr	r3, [pc, #120]	; (8000824 <Init+0x98>)
 80007aa:	2203      	movs	r2, #3
 80007ac:	709a      	strb	r2, [r3, #2]
 80007ae:	481e      	ldr	r0, [pc, #120]	; (8000828 <Init+0x9c>)
 80007b0:	491c      	ldr	r1, [pc, #112]	; (8000824 <Init+0x98>)
 80007b2:	f7ff fd99 	bl	80002e8 <GPIO_Init>
 80007b6:	f244 0004 	movw	r0, #16388	; 0x4004
 80007ba:	2101      	movs	r1, #1
 80007bc:	f000 f91c 	bl	80009f8 <RCC_APB2PeriphClockCmd>
 80007c0:	4b18      	ldr	r3, [pc, #96]	; (8000824 <Init+0x98>)
 80007c2:	f44f 7200 	mov.w	r2, #512	; 0x200
 80007c6:	801a      	strh	r2, [r3, #0]
 80007c8:	4b16      	ldr	r3, [pc, #88]	; (8000824 <Init+0x98>)
 80007ca:	2218      	movs	r2, #24
 80007cc:	70da      	strb	r2, [r3, #3]
 80007ce:	4b15      	ldr	r3, [pc, #84]	; (8000824 <Init+0x98>)
 80007d0:	2203      	movs	r2, #3
 80007d2:	709a      	strb	r2, [r3, #2]
 80007d4:	4815      	ldr	r0, [pc, #84]	; (800082c <Init+0xa0>)
 80007d6:	4913      	ldr	r1, [pc, #76]	; (8000824 <Init+0x98>)
 80007d8:	f7ff fd86 	bl	80002e8 <GPIO_Init>
 80007dc:	4b11      	ldr	r3, [pc, #68]	; (8000824 <Init+0x98>)
 80007de:	f44f 6280 	mov.w	r2, #1024	; 0x400
 80007e2:	801a      	strh	r2, [r3, #0]
 80007e4:	4b0f      	ldr	r3, [pc, #60]	; (8000824 <Init+0x98>)
 80007e6:	2204      	movs	r2, #4
 80007e8:	70da      	strb	r2, [r3, #3]
 80007ea:	4810      	ldr	r0, [pc, #64]	; (800082c <Init+0xa0>)
 80007ec:	490d      	ldr	r1, [pc, #52]	; (8000824 <Init+0x98>)
 80007ee:	f7ff fd7b 	bl	80002e8 <GPIO_Init>
 80007f2:	f44f 33e1 	mov.w	r3, #115200	; 0x1c200
 80007f6:	603b      	str	r3, [r7, #0]
 80007f8:	2300      	movs	r3, #0
 80007fa:	80bb      	strh	r3, [r7, #4]
 80007fc:	2300      	movs	r3, #0
 80007fe:	80fb      	strh	r3, [r7, #6]
 8000800:	2300      	movs	r3, #0
 8000802:	813b      	strh	r3, [r7, #8]
 8000804:	2300      	movs	r3, #0
 8000806:	81bb      	strh	r3, [r7, #12]
 8000808:	230c      	movs	r3, #12
 800080a:	817b      	strh	r3, [r7, #10]
 800080c:	463b      	mov	r3, r7
 800080e:	4808      	ldr	r0, [pc, #32]	; (8000830 <Init+0xa4>)
 8000810:	4619      	mov	r1, r3
 8000812:	f000 f90f 	bl	8000a34 <USART_Init>
 8000816:	4806      	ldr	r0, [pc, #24]	; (8000830 <Init+0xa4>)
 8000818:	2101      	movs	r1, #1
 800081a:	f000 f9c5 	bl	8000ba8 <USART_Cmd>
 800081e:	3710      	adds	r7, #16
 8000820:	46bd      	mov	sp, r7
 8000822:	bd80      	pop	{r7, pc}
 8000824:	200000a8 	andcs	r0, r0, r8, lsr #1
 8000828:	40011000 	andmi	r1, r1, r0
 800082c:	40010800 	andmi	r0, r1, r0, lsl #16
 8000830:	40013800 	andmi	r3, r1, r0, lsl #16

08000834 <__io_putchar>:
 8000834:	b580      	push	{r7, lr}
 8000836:	b082      	sub	sp, #8
 8000838:	af00      	add	r7, sp, #0
 800083a:	6078      	str	r0, [r7, #4]
 800083c:	bf00      	nop
 800083e:	4809      	ldr	r0, [pc, #36]	; (8000864 <__io_putchar+0x30>)
 8000840:	2140      	movs	r1, #64	; 0x40
 8000842:	f000 f9f3 	bl	8000c2c <USART_GetFlagStatus>
 8000846:	4603      	mov	r3, r0
 8000848:	2b00      	cmp	r3, #0
 800084a:	d0f8      	beq.n	800083e <__io_putchar+0xa>
 800084c:	687b      	ldr	r3, [r7, #4]
 800084e:	b2db      	uxtb	r3, r3
 8000850:	4804      	ldr	r0, [pc, #16]	; (8000864 <__io_putchar+0x30>)
 8000852:	4619      	mov	r1, r3
 8000854:	f000 f9c8 	bl	8000be8 <USART_SendData>
 8000858:	687b      	ldr	r3, [r7, #4]
 800085a:	4618      	mov	r0, r3
 800085c:	3708      	adds	r7, #8
 800085e:	46bd      	mov	sp, r7
 8000860:	bd80      	pop	{r7, pc}
 8000862:	bf00      	nop
 8000864:	40013800 	andmi	r3, r1, r0, lsl #16

08000868 <__io_getchar>:
 8000868:	b580      	push	{r7, lr}
 800086a:	b082      	sub	sp, #8
 800086c:	af00      	add	r7, sp, #0
 800086e:	6078      	str	r0, [r7, #4]
 8000870:	bf00      	nop
 8000872:	4807      	ldr	r0, [pc, #28]	; (8000890 <__io_getchar+0x28>)
 8000874:	2120      	movs	r1, #32
 8000876:	f000 f9d9 	bl	8000c2c <USART_GetFlagStatus>
 800087a:	4603      	mov	r3, r0
 800087c:	2b00      	cmp	r3, #0
 800087e:	d0f8      	beq.n	8000872 <__io_getchar+0xa>
 8000880:	4803      	ldr	r0, [pc, #12]	; (8000890 <__io_getchar+0x28>)
 8000882:	f000 f9c3 	bl	8000c0c <USART_ReceiveData>
 8000886:	4603      	mov	r3, r0
 8000888:	4618      	mov	r0, r3
 800088a:	3708      	adds	r7, #8
 800088c:	46bd      	mov	sp, r7
 800088e:	bd80      	pop	{r7, pc}
 8000890:	40013800 	andmi	r3, r1, r0, lsl #16

08000894 <RCC_GetClocksFreq>:
 8000894:	b480      	push	{r7}
 8000896:	b087      	sub	sp, #28
 8000898:	af00      	add	r7, sp, #0
 800089a:	6078      	str	r0, [r7, #4]
 800089c:	2300      	movs	r3, #0
 800089e:	617b      	str	r3, [r7, #20]
 80008a0:	2300      	movs	r3, #0
 80008a2:	613b      	str	r3, [r7, #16]
 80008a4:	2300      	movs	r3, #0
 80008a6:	60fb      	str	r3, [r7, #12]
 80008a8:	2300      	movs	r3, #0
 80008aa:	60bb      	str	r3, [r7, #8]
 80008ac:	4b4d      	ldr	r3, [pc, #308]	; (80009e4 <RCC_GetClocksFreq+0x150>)
 80008ae:	685b      	ldr	r3, [r3, #4]
 80008b0:	f003 030c 	and.w	r3, r3, #12
 80008b4:	617b      	str	r3, [r7, #20]
 80008b6:	697b      	ldr	r3, [r7, #20]
 80008b8:	2b04      	cmp	r3, #4
 80008ba:	d007      	beq.n	80008cc <RCC_GetClocksFreq+0x38>
 80008bc:	2b08      	cmp	r3, #8
 80008be:	d009      	beq.n	80008d4 <RCC_GetClocksFreq+0x40>
 80008c0:	2b00      	cmp	r3, #0
 80008c2:	d134      	bne.n	800092e <RCC_GetClocksFreq+0x9a>
 80008c4:	687b      	ldr	r3, [r7, #4]
 80008c6:	4a48      	ldr	r2, [pc, #288]	; (80009e8 <RCC_GetClocksFreq+0x154>)
 80008c8:	601a      	str	r2, [r3, #0]
 80008ca:	e034      	b.n	8000936 <RCC_GetClocksFreq+0xa2>
 80008cc:	687b      	ldr	r3, [r7, #4]
 80008ce:	4a46      	ldr	r2, [pc, #280]	; (80009e8 <RCC_GetClocksFreq+0x154>)
 80008d0:	601a      	str	r2, [r3, #0]
 80008d2:	e030      	b.n	8000936 <RCC_GetClocksFreq+0xa2>
 80008d4:	4b43      	ldr	r3, [pc, #268]	; (80009e4 <RCC_GetClocksFreq+0x150>)
 80008d6:	685b      	ldr	r3, [r3, #4]
 80008d8:	f403 1370 	and.w	r3, r3, #3932160	; 0x3c0000
 80008dc:	613b      	str	r3, [r7, #16]
 80008de:	4b41      	ldr	r3, [pc, #260]	; (80009e4 <RCC_GetClocksFreq+0x150>)
 80008e0:	685b      	ldr	r3, [r3, #4]
 80008e2:	f403 3380 	and.w	r3, r3, #65536	; 0x10000
 80008e6:	60fb      	str	r3, [r7, #12]
 80008e8:	693b      	ldr	r3, [r7, #16]
 80008ea:	0c9b      	lsrs	r3, r3, #18
 80008ec:	3302      	adds	r3, #2
 80008ee:	613b      	str	r3, [r7, #16]
 80008f0:	68fb      	ldr	r3, [r7, #12]
 80008f2:	2b00      	cmp	r3, #0
 80008f4:	d106      	bne.n	8000904 <RCC_GetClocksFreq+0x70>
 80008f6:	693b      	ldr	r3, [r7, #16]
 80008f8:	4a3c      	ldr	r2, [pc, #240]	; (80009ec <RCC_GetClocksFreq+0x158>)
 80008fa:	fb02 f203 	mul.w	r2, r2, r3
 80008fe:	687b      	ldr	r3, [r7, #4]
 8000900:	601a      	str	r2, [r3, #0]
 8000902:	e013      	b.n	800092c <RCC_GetClocksFreq+0x98>
 8000904:	4b37      	ldr	r3, [pc, #220]	; (80009e4 <RCC_GetClocksFreq+0x150>)
 8000906:	685b      	ldr	r3, [r3, #4]
 8000908:	f403 3300 	and.w	r3, r3, #131072	; 0x20000
 800090c:	2b00      	cmp	r3, #0
 800090e:	d006      	beq.n	800091e <RCC_GetClocksFreq+0x8a>
 8000910:	693b      	ldr	r3, [r7, #16]
 8000912:	4a36      	ldr	r2, [pc, #216]	; (80009ec <RCC_GetClocksFreq+0x158>)
 8000914:	fb02 f203 	mul.w	r2, r2, r3
 8000918:	687b      	ldr	r3, [r7, #4]
 800091a:	601a      	str	r2, [r3, #0]
 800091c:	e006      	b.n	800092c <RCC_GetClocksFreq+0x98>
 800091e:	693b      	ldr	r3, [r7, #16]
 8000920:	4a31      	ldr	r2, [pc, #196]	; (80009e8 <RCC_GetClocksFreq+0x154>)
 8000922:	fb02 f203 	mul.w	r2, r2, r3
 8000926:	687b      	ldr	r3, [r7, #4]
 8000928:	601a      	str	r2, [r3, #0]
 800092a:	e004      	b.n	8000936 <RCC_GetClocksFreq+0xa2>
 800092c:	e003      	b.n	8000936 <RCC_GetClocksFreq+0xa2>
 800092e:	687b      	ldr	r3, [r7, #4]
 8000930:	4a2d      	ldr	r2, [pc, #180]	; (80009e8 <RCC_GetClocksFreq+0x154>)
 8000932:	601a      	str	r2, [r3, #0]
 8000934:	bf00      	nop
 8000936:	4b2b      	ldr	r3, [pc, #172]	; (80009e4 <RCC_GetClocksFreq+0x150>)
 8000938:	685b      	ldr	r3, [r3, #4]
 800093a:	f003 03f0 	and.w	r3, r3, #240	; 0xf0
 800093e:	617b      	str	r3, [r7, #20]
 8000940:	697b      	ldr	r3, [r7, #20]
 8000942:	091b      	lsrs	r3, r3, #4
 8000944:	617b      	str	r3, [r7, #20]
 8000946:	4a2a      	ldr	r2, [pc, #168]	; (80009f0 <RCC_GetClocksFreq+0x15c>)
 8000948:	697b      	ldr	r3, [r7, #20]
 800094a:	4413      	add	r3, r2
 800094c:	781b      	ldrb	r3, [r3, #0]
 800094e:	b2db      	uxtb	r3, r3
 8000950:	60bb      	str	r3, [r7, #8]
 8000952:	687b      	ldr	r3, [r7, #4]
 8000954:	681a      	ldr	r2, [r3, #0]
 8000956:	68bb      	ldr	r3, [r7, #8]
 8000958:	40da      	lsrs	r2, r3
 800095a:	687b      	ldr	r3, [r7, #4]
 800095c:	605a      	str	r2, [r3, #4]
 800095e:	4b21      	ldr	r3, [pc, #132]	; (80009e4 <RCC_GetClocksFreq+0x150>)
 8000960:	685b      	ldr	r3, [r3, #4]
 8000962:	f403 63e0 	and.w	r3, r3, #1792	; 0x700
 8000966:	617b      	str	r3, [r7, #20]
 8000968:	697b      	ldr	r3, [r7, #20]
 800096a:	0a1b      	lsrs	r3, r3, #8
 800096c:	617b      	str	r3, [r7, #20]
 800096e:	4a20      	ldr	r2, [pc, #128]	; (80009f0 <RCC_GetClocksFreq+0x15c>)
 8000970:	697b      	ldr	r3, [r7, #20]
 8000972:	4413      	add	r3, r2
 8000974:	781b      	ldrb	r3, [r3, #0]
 8000976:	b2db      	uxtb	r3, r3
 8000978:	60bb      	str	r3, [r7, #8]
 800097a:	687b      	ldr	r3, [r7, #4]
 800097c:	685a      	ldr	r2, [r3, #4]
 800097e:	68bb      	ldr	r3, [r7, #8]
 8000980:	40da      	lsrs	r2, r3
 8000982:	687b      	ldr	r3, [r7, #4]
 8000984:	609a      	str	r2, [r3, #8]
 8000986:	4b17      	ldr	r3, [pc, #92]	; (80009e4 <RCC_GetClocksFreq+0x150>)
 8000988:	685b      	ldr	r3, [r3, #4]
 800098a:	f403 5360 	and.w	r3, r3, #14336	; 0x3800
 800098e:	617b      	str	r3, [r7, #20]
 8000990:	697b      	ldr	r3, [r7, #20]
 8000992:	0adb      	lsrs	r3, r3, #11
 8000994:	617b      	str	r3, [r7, #20]
 8000996:	4a16      	ldr	r2, [pc, #88]	; (80009f0 <RCC_GetClocksFreq+0x15c>)
 8000998:	697b      	ldr	r3, [r7, #20]
 800099a:	4413      	add	r3, r2
 800099c:	781b      	ldrb	r3, [r3, #0]
 800099e:	b2db      	uxtb	r3, r3
 80009a0:	60bb      	str	r3, [r7, #8]
 80009a2:	687b      	ldr	r3, [r7, #4]
 80009a4:	685a      	ldr	r2, [r3, #4]
 80009a6:	68bb      	ldr	r3, [r7, #8]
 80009a8:	40da      	lsrs	r2, r3
 80009aa:	687b      	ldr	r3, [r7, #4]
 80009ac:	60da      	str	r2, [r3, #12]
 80009ae:	4b0d      	ldr	r3, [pc, #52]	; (80009e4 <RCC_GetClocksFreq+0x150>)
 80009b0:	685b      	ldr	r3, [r3, #4]
 80009b2:	f403 4340 	and.w	r3, r3, #49152	; 0xc000
 80009b6:	617b      	str	r3, [r7, #20]
 80009b8:	697b      	ldr	r3, [r7, #20]
 80009ba:	0b9b      	lsrs	r3, r3, #14
 80009bc:	617b      	str	r3, [r7, #20]
 80009be:	4a0d      	ldr	r2, [pc, #52]	; (80009f4 <RCC_GetClocksFreq+0x160>)
 80009c0:	697b      	ldr	r3, [r7, #20]
 80009c2:	4413      	add	r3, r2
 80009c4:	781b      	ldrb	r3, [r3, #0]
 80009c6:	b2db      	uxtb	r3, r3
 80009c8:	60bb      	str	r3, [r7, #8]
 80009ca:	687b      	ldr	r3, [r7, #4]
 80009cc:	68da      	ldr	r2, [r3, #12]
 80009ce:	68bb      	ldr	r3, [r7, #8]
 80009d0:	fbb2 f2f3 	udiv	r2, r2, r3
 80009d4:	687b      	ldr	r3, [r7, #4]
 80009d6:	611a      	str	r2, [r3, #16]
 80009d8:	371c      	adds	r7, #28
 80009da:	46bd      	mov	sp, r7
 80009dc:	f85d 7b04 	ldr.w	r7, [sp], #4
 80009e0:	4770      	bx	lr
 80009e2:	bf00      	nop
 80009e4:	40021000 	andmi	r1, r2, r0
 80009e8:	007a1200 	rsbseq	r1, sl, r0, lsl #4
 80009ec:	003d0900 	eorseq	r0, sp, r0, lsl #18
 80009f0:	20000014 	andcs	r0, r0, r4, lsl r0
 80009f4:	20000024 	andcs	r0, r0, r4, lsr #32

080009f8 <RCC_APB2PeriphClockCmd>:
 80009f8:	b480      	push	{r7}
 80009fa:	b083      	sub	sp, #12
 80009fc:	af00      	add	r7, sp, #0
 80009fe:	6078      	str	r0, [r7, #4]
 8000a00:	460b      	mov	r3, r1
 8000a02:	70fb      	strb	r3, [r7, #3]
 8000a04:	78fb      	ldrb	r3, [r7, #3]
 8000a06:	2b00      	cmp	r3, #0
 8000a08:	d006      	beq.n	8000a18 <RCC_APB2PeriphClockCmd+0x20>
 8000a0a:	4b09      	ldr	r3, [pc, #36]	; (8000a30 <RCC_APB2PeriphClockCmd+0x38>)
 8000a0c:	4a08      	ldr	r2, [pc, #32]	; (8000a30 <RCC_APB2PeriphClockCmd+0x38>)
 8000a0e:	6991      	ldr	r1, [r2, #24]
 8000a10:	687a      	ldr	r2, [r7, #4]
 8000a12:	430a      	orrs	r2, r1
 8000a14:	619a      	str	r2, [r3, #24]
 8000a16:	e006      	b.n	8000a26 <RCC_APB2PeriphClockCmd+0x2e>
 8000a18:	4b05      	ldr	r3, [pc, #20]	; (8000a30 <RCC_APB2PeriphClockCmd+0x38>)
 8000a1a:	4a05      	ldr	r2, [pc, #20]	; (8000a30 <RCC_APB2PeriphClockCmd+0x38>)
 8000a1c:	6991      	ldr	r1, [r2, #24]
 8000a1e:	687a      	ldr	r2, [r7, #4]
 8000a20:	43d2      	mvns	r2, r2
 8000a22:	400a      	ands	r2, r1
 8000a24:	619a      	str	r2, [r3, #24]
 8000a26:	370c      	adds	r7, #12
 8000a28:	46bd      	mov	sp, r7
 8000a2a:	f85d 7b04 	ldr.w	r7, [sp], #4
 8000a2e:	4770      	bx	lr
 8000a30:	40021000 	andmi	r1, r2, r0

08000a34 <USART_Init>:
 8000a34:	b580      	push	{r7, lr}
 8000a36:	b08c      	sub	sp, #48	; 0x30
 8000a38:	af00      	add	r7, sp, #0
 8000a3a:	6078      	str	r0, [r7, #4]
 8000a3c:	6039      	str	r1, [r7, #0]
 8000a3e:	2300      	movs	r3, #0
 8000a40:	62fb      	str	r3, [r7, #44]	; 0x2c
 8000a42:	2300      	movs	r3, #0
 8000a44:	62bb      	str	r3, [r7, #40]	; 0x28
 8000a46:	2300      	movs	r3, #0
 8000a48:	627b      	str	r3, [r7, #36]	; 0x24
 8000a4a:	2300      	movs	r3, #0
 8000a4c:	623b      	str	r3, [r7, #32]
 8000a4e:	2300      	movs	r3, #0
 8000a50:	61fb      	str	r3, [r7, #28]
 8000a52:	687b      	ldr	r3, [r7, #4]
 8000a54:	61fb      	str	r3, [r7, #28]
 8000a56:	687b      	ldr	r3, [r7, #4]
 8000a58:	8a1b      	ldrh	r3, [r3, #16]
 8000a5a:	b29b      	uxth	r3, r3
 8000a5c:	62fb      	str	r3, [r7, #44]	; 0x2c
 8000a5e:	6afa      	ldr	r2, [r7, #44]	; 0x2c
 8000a60:	f64c 73ff 	movw	r3, #53247	; 0xcfff
 8000a64:	4013      	ands	r3, r2
 8000a66:	62fb      	str	r3, [r7, #44]	; 0x2c
 8000a68:	683b      	ldr	r3, [r7, #0]
 8000a6a:	88db      	ldrh	r3, [r3, #6]
 8000a6c:	6afa      	ldr	r2, [r7, #44]	; 0x2c
 8000a6e:	4313      	orrs	r3, r2
 8000a70:	62fb      	str	r3, [r7, #44]	; 0x2c
 8000a72:	6afb      	ldr	r3, [r7, #44]	; 0x2c
 8000a74:	b29a      	uxth	r2, r3
 8000a76:	687b      	ldr	r3, [r7, #4]
 8000a78:	821a      	strh	r2, [r3, #16]
 8000a7a:	687b      	ldr	r3, [r7, #4]
 8000a7c:	899b      	ldrh	r3, [r3, #12]
 8000a7e:	b29b      	uxth	r3, r3
 8000a80:	62fb      	str	r3, [r7, #44]	; 0x2c
 8000a82:	6afa      	ldr	r2, [r7, #44]	; 0x2c
 8000a84:	f64e 13f3 	movw	r3, #59891	; 0xe9f3
 8000a88:	4013      	ands	r3, r2
 8000a8a:	62fb      	str	r3, [r7, #44]	; 0x2c
 8000a8c:	683b      	ldr	r3, [r7, #0]
 8000a8e:	889a      	ldrh	r2, [r3, #4]
 8000a90:	683b      	ldr	r3, [r7, #0]
 8000a92:	891b      	ldrh	r3, [r3, #8]
 8000a94:	4313      	orrs	r3, r2
 8000a96:	b29a      	uxth	r2, r3
 8000a98:	683b      	ldr	r3, [r7, #0]
 8000a9a:	895b      	ldrh	r3, [r3, #10]
 8000a9c:	4313      	orrs	r3, r2
 8000a9e:	b29b      	uxth	r3, r3
 8000aa0:	6afa      	ldr	r2, [r7, #44]	; 0x2c
 8000aa2:	4313      	orrs	r3, r2
 8000aa4:	62fb      	str	r3, [r7, #44]	; 0x2c
 8000aa6:	6afb      	ldr	r3, [r7, #44]	; 0x2c
 8000aa8:	b29a      	uxth	r2, r3
 8000aaa:	687b      	ldr	r3, [r7, #4]
 8000aac:	819a      	strh	r2, [r3, #12]
 8000aae:	687b      	ldr	r3, [r7, #4]
 8000ab0:	8a9b      	ldrh	r3, [r3, #20]
 8000ab2:	b29b      	uxth	r3, r3
 8000ab4:	62fb      	str	r3, [r7, #44]	; 0x2c
 8000ab6:	6afa      	ldr	r2, [r7, #44]	; 0x2c
 8000ab8:	f64f 43ff 	movw	r3, #64767	; 0xfcff
 8000abc:	4013      	ands	r3, r2
 8000abe:	62fb      	str	r3, [r7, #44]	; 0x2c
 8000ac0:	683b      	ldr	r3, [r7, #0]
 8000ac2:	899b      	ldrh	r3, [r3, #12]
 8000ac4:	6afa      	ldr	r2, [r7, #44]	; 0x2c
 8000ac6:	4313      	orrs	r3, r2
 8000ac8:	62fb      	str	r3, [r7, #44]	; 0x2c
 8000aca:	6afb      	ldr	r3, [r7, #44]	; 0x2c
 8000acc:	b29a      	uxth	r2, r3
 8000ace:	687b      	ldr	r3, [r7, #4]
 8000ad0:	829a      	strh	r2, [r3, #20]
 8000ad2:	f107 0308 	add.w	r3, r7, #8
 8000ad6:	4618      	mov	r0, r3
 8000ad8:	f7ff fedc 	bl	8000894 <RCC_GetClocksFreq>
 8000adc:	69fa      	ldr	r2, [r7, #28]
 8000ade:	4b30      	ldr	r3, [pc, #192]	; (8000ba0 <USART_Init+0x16c>)
 8000ae0:	429a      	cmp	r2, r3
 8000ae2:	d102      	bne.n	8000aea <USART_Init+0xb6>
 8000ae4:	697b      	ldr	r3, [r7, #20]
 8000ae6:	62bb      	str	r3, [r7, #40]	; 0x28
 8000ae8:	e001      	b.n	8000aee <USART_Init+0xba>
 8000aea:	693b      	ldr	r3, [r7, #16]
 8000aec:	62bb      	str	r3, [r7, #40]	; 0x28
 8000aee:	687b      	ldr	r3, [r7, #4]
 8000af0:	899b      	ldrh	r3, [r3, #12]
 8000af2:	b29b      	uxth	r3, r3
 8000af4:	b29b      	uxth	r3, r3
 8000af6:	b21b      	sxth	r3, r3
 8000af8:	2b00      	cmp	r3, #0
 8000afa:	da0c      	bge.n	8000b16 <USART_Init+0xe2>
 8000afc:	6aba      	ldr	r2, [r7, #40]	; 0x28
 8000afe:	4613      	mov	r3, r2
 8000b00:	009b      	lsls	r3, r3, #2
 8000b02:	4413      	add	r3, r2
 8000b04:	009a      	lsls	r2, r3, #2
 8000b06:	441a      	add	r2, r3
 8000b08:	683b      	ldr	r3, [r7, #0]
 8000b0a:	681b      	ldr	r3, [r3, #0]
 8000b0c:	005b      	lsls	r3, r3, #1
 8000b0e:	fbb2 f3f3 	udiv	r3, r2, r3
 8000b12:	627b      	str	r3, [r7, #36]	; 0x24
 8000b14:	e00b      	b.n	8000b2e <USART_Init+0xfa>
 8000b16:	6aba      	ldr	r2, [r7, #40]	; 0x28
 8000b18:	4613      	mov	r3, r2
 8000b1a:	009b      	lsls	r3, r3, #2
 8000b1c:	4413      	add	r3, r2
 8000b1e:	009a      	lsls	r2, r3, #2
 8000b20:	441a      	add	r2, r3
 8000b22:	683b      	ldr	r3, [r7, #0]
 8000b24:	681b      	ldr	r3, [r3, #0]
 8000b26:	009b      	lsls	r3, r3, #2
 8000b28:	fbb2 f3f3 	udiv	r3, r2, r3
 8000b2c:	627b      	str	r3, [r7, #36]	; 0x24
 8000b2e:	6a7a      	ldr	r2, [r7, #36]	; 0x24
 8000b30:	4b1c      	ldr	r3, [pc, #112]	; (8000ba4 <USART_Init+0x170>)
 8000b32:	fba3 1302 	umull	r1, r3, r3, r2
 8000b36:	095b      	lsrs	r3, r3, #5
 8000b38:	011b      	lsls	r3, r3, #4
 8000b3a:	62fb      	str	r3, [r7, #44]	; 0x2c
 8000b3c:	6afb      	ldr	r3, [r7, #44]	; 0x2c
 8000b3e:	091b      	lsrs	r3, r3, #4
 8000b40:	2264      	movs	r2, #100	; 0x64
 8000b42:	fb02 f303 	mul.w	r3, r2, r3
 8000b46:	6a7a      	ldr	r2, [r7, #36]	; 0x24
 8000b48:	1ad3      	subs	r3, r2, r3
 8000b4a:	623b      	str	r3, [r7, #32]
 8000b4c:	687b      	ldr	r3, [r7, #4]
 8000b4e:	899b      	ldrh	r3, [r3, #12]
 8000b50:	b29b      	uxth	r3, r3
 8000b52:	b29b      	uxth	r3, r3
 8000b54:	b21b      	sxth	r3, r3
 8000b56:	2b00      	cmp	r3, #0
 8000b58:	da0d      	bge.n	8000b76 <USART_Init+0x142>
 8000b5a:	6a3b      	ldr	r3, [r7, #32]
 8000b5c:	00db      	lsls	r3, r3, #3
 8000b5e:	f103 0232 	add.w	r2, r3, #50	; 0x32
 8000b62:	4b10      	ldr	r3, [pc, #64]	; (8000ba4 <USART_Init+0x170>)
 8000b64:	fba3 1302 	umull	r1, r3, r3, r2
 8000b68:	095b      	lsrs	r3, r3, #5
 8000b6a:	f003 0307 	and.w	r3, r3, #7
 8000b6e:	6afa      	ldr	r2, [r7, #44]	; 0x2c
 8000b70:	4313      	orrs	r3, r2
 8000b72:	62fb      	str	r3, [r7, #44]	; 0x2c
 8000b74:	e00c      	b.n	8000b90 <USART_Init+0x15c>
 8000b76:	6a3b      	ldr	r3, [r7, #32]
 8000b78:	011b      	lsls	r3, r3, #4
 8000b7a:	f103 0232 	add.w	r2, r3, #50	; 0x32
 8000b7e:	4b09      	ldr	r3, [pc, #36]	; (8000ba4 <USART_Init+0x170>)
 8000b80:	fba3 1302 	umull	r1, r3, r3, r2
 8000b84:	095b      	lsrs	r3, r3, #5
 8000b86:	f003 030f 	and.w	r3, r3, #15
 8000b8a:	6afa      	ldr	r2, [r7, #44]	; 0x2c
 8000b8c:	4313      	orrs	r3, r2
 8000b8e:	62fb      	str	r3, [r7, #44]	; 0x2c
 8000b90:	6afb      	ldr	r3, [r7, #44]	; 0x2c
 8000b92:	b29a      	uxth	r2, r3
 8000b94:	687b      	ldr	r3, [r7, #4]
 8000b96:	811a      	strh	r2, [r3, #8]
 8000b98:	3730      	adds	r7, #48	; 0x30
 8000b9a:	46bd      	mov	sp, r7
 8000b9c:	bd80      	pop	{r7, pc}
 8000b9e:	bf00      	nop
 8000ba0:	40013800 	andmi	r3, r1, r0, lsl #16
 8000ba4:	51eb851f 	mvnpl	r8, pc, lsl r5

08000ba8 <USART_Cmd>:
 8000ba8:	b480      	push	{r7}
 8000baa:	b083      	sub	sp, #12
 8000bac:	af00      	add	r7, sp, #0
 8000bae:	6078      	str	r0, [r7, #4]
 8000bb0:	460b      	mov	r3, r1
 8000bb2:	70fb      	strb	r3, [r7, #3]
 8000bb4:	78fb      	ldrb	r3, [r7, #3]
 8000bb6:	2b00      	cmp	r3, #0
 8000bb8:	d008      	beq.n	8000bcc <USART_Cmd+0x24>
 8000bba:	687b      	ldr	r3, [r7, #4]
 8000bbc:	899b      	ldrh	r3, [r3, #12]
 8000bbe:	b29b      	uxth	r3, r3
 8000bc0:	f443 5300 	orr.w	r3, r3, #8192	; 0x2000
 8000bc4:	b29a      	uxth	r2, r3
 8000bc6:	687b      	ldr	r3, [r7, #4]
 8000bc8:	819a      	strh	r2, [r3, #12]
 8000bca:	e007      	b.n	8000bdc <USART_Cmd+0x34>
 8000bcc:	687b      	ldr	r3, [r7, #4]
 8000bce:	899b      	ldrh	r3, [r3, #12]
 8000bd0:	b29b      	uxth	r3, r3
 8000bd2:	f423 5300 	bic.w	r3, r3, #8192	; 0x2000
 8000bd6:	b29a      	uxth	r2, r3
 8000bd8:	687b      	ldr	r3, [r7, #4]
 8000bda:	819a      	strh	r2, [r3, #12]
 8000bdc:	370c      	adds	r7, #12
 8000bde:	46bd      	mov	sp, r7
 8000be0:	f85d 7b04 	ldr.w	r7, [sp], #4
 8000be4:	4770      	bx	lr
 8000be6:	bf00      	nop

08000be8 <USART_SendData>:
 8000be8:	b480      	push	{r7}
 8000bea:	b083      	sub	sp, #12
 8000bec:	af00      	add	r7, sp, #0
 8000bee:	6078      	str	r0, [r7, #4]
 8000bf0:	460b      	mov	r3, r1
 8000bf2:	807b      	strh	r3, [r7, #2]
 8000bf4:	887b      	ldrh	r3, [r7, #2]
 8000bf6:	f3c3 0308 	ubfx	r3, r3, #0, #9
 8000bfa:	b29a      	uxth	r2, r3
 8000bfc:	687b      	ldr	r3, [r7, #4]
 8000bfe:	809a      	strh	r2, [r3, #4]
 8000c00:	370c      	adds	r7, #12
 8000c02:	46bd      	mov	sp, r7
 8000c04:	f85d 7b04 	ldr.w	r7, [sp], #4
 8000c08:	4770      	bx	lr
 8000c0a:	bf00      	nop

08000c0c <USART_ReceiveData>:
 8000c0c:	b480      	push	{r7}
 8000c0e:	b083      	sub	sp, #12
 8000c10:	af00      	add	r7, sp, #0
 8000c12:	6078      	str	r0, [r7, #4]
 8000c14:	687b      	ldr	r3, [r7, #4]
 8000c16:	889b      	ldrh	r3, [r3, #4]
 8000c18:	b29b      	uxth	r3, r3
 8000c1a:	f3c3 0308 	ubfx	r3, r3, #0, #9
 8000c1e:	b29b      	uxth	r3, r3
 8000c20:	4618      	mov	r0, r3
 8000c22:	370c      	adds	r7, #12
 8000c24:	46bd      	mov	sp, r7
 8000c26:	f85d 7b04 	ldr.w	r7, [sp], #4
 8000c2a:	4770      	bx	lr

08000c2c <USART_GetFlagStatus>:
 8000c2c:	b480      	push	{r7}
 8000c2e:	b085      	sub	sp, #20
 8000c30:	af00      	add	r7, sp, #0
 8000c32:	6078      	str	r0, [r7, #4]
 8000c34:	460b      	mov	r3, r1
 8000c36:	807b      	strh	r3, [r7, #2]
 8000c38:	2300      	movs	r3, #0
 8000c3a:	73fb      	strb	r3, [r7, #15]
 8000c3c:	687b      	ldr	r3, [r7, #4]
 8000c3e:	881b      	ldrh	r3, [r3, #0]
 8000c40:	b29a      	uxth	r2, r3
 8000c42:	887b      	ldrh	r3, [r7, #2]
 8000c44:	4013      	ands	r3, r2
 8000c46:	b29b      	uxth	r3, r3
 8000c48:	2b00      	cmp	r3, #0
 8000c4a:	d002      	beq.n	8000c52 <USART_GetFlagStatus+0x26>
 8000c4c:	2301      	movs	r3, #1
 8000c4e:	73fb      	strb	r3, [r7, #15]
 8000c50:	e001      	b.n	8000c56 <USART_GetFlagStatus+0x2a>
 8000c52:	2300      	movs	r3, #0
 8000c54:	73fb      	strb	r3, [r7, #15]
 8000c56:	7bfb      	ldrb	r3, [r7, #15]
 8000c58:	4618      	mov	r0, r3
 8000c5a:	3714      	adds	r7, #20
 8000c5c:	46bd      	mov	sp, r7
 8000c5e:	f85d 7b04 	ldr.w	r7, [sp], #4
 8000c62:	4770      	bx	lr

08000c64 <_sbrk>:
 8000c64:	b480      	push	{r7}
 8000c66:	b085      	sub	sp, #20
 8000c68:	af00      	add	r7, sp, #0
 8000c6a:	6078      	str	r0, [r7, #4]
 8000c6c:	4b0b      	ldr	r3, [pc, #44]	; (8000c9c <_sbrk+0x38>)
 8000c6e:	681b      	ldr	r3, [r3, #0]
 8000c70:	2b00      	cmp	r3, #0
 8000c72:	d102      	bne.n	8000c7a <_sbrk+0x16>
 8000c74:	4b09      	ldr	r3, [pc, #36]	; (8000c9c <_sbrk+0x38>)
 8000c76:	4a0a      	ldr	r2, [pc, #40]	; (8000ca0 <_sbrk+0x3c>)
 8000c78:	601a      	str	r2, [r3, #0]
 8000c7a:	4b08      	ldr	r3, [pc, #32]	; (8000c9c <_sbrk+0x38>)
 8000c7c:	681b      	ldr	r3, [r3, #0]
 8000c7e:	60fb      	str	r3, [r7, #12]
 8000c80:	4b06      	ldr	r3, [pc, #24]	; (8000c9c <_sbrk+0x38>)
 8000c82:	681a      	ldr	r2, [r3, #0]
 8000c84:	687b      	ldr	r3, [r7, #4]
 8000c86:	441a      	add	r2, r3
 8000c88:	4b04      	ldr	r3, [pc, #16]	; (8000c9c <_sbrk+0x38>)
 8000c8a:	601a      	str	r2, [r3, #0]
 8000c8c:	68fb      	ldr	r3, [r7, #12]
 8000c8e:	4618      	mov	r0, r3
 8000c90:	3714      	adds	r7, #20
 8000c92:	46bd      	mov	sp, r7
 8000c94:	f85d 7b04 	ldr.w	r7, [sp], #4
 8000c98:	4770      	bx	lr
 8000c9a:	bf00      	nop
 8000c9c:	20000094 	mulcs	r0, r4, r0
 8000ca0:	200000b8 	strhcs	r0, [r0], -r8

08000ca4 <_close>:
 8000ca4:	b480      	push	{r7}
 8000ca6:	b083      	sub	sp, #12
 8000ca8:	af00      	add	r7, sp, #0
 8000caa:	6078      	str	r0, [r7, #4]
 8000cac:	f04f 33ff 	mov.w	r3, #4294967295
 8000cb0:	4618      	mov	r0, r3
 8000cb2:	370c      	adds	r7, #12
 8000cb4:	46bd      	mov	sp, r7
 8000cb6:	f85d 7b04 	ldr.w	r7, [sp], #4
 8000cba:	4770      	bx	lr

08000cbc <_fstat>:
 8000cbc:	b480      	push	{r7}
 8000cbe:	b083      	sub	sp, #12
 8000cc0:	af00      	add	r7, sp, #0
 8000cc2:	6078      	str	r0, [r7, #4]
 8000cc4:	6039      	str	r1, [r7, #0]
 8000cc6:	683b      	ldr	r3, [r7, #0]
 8000cc8:	f44f 5200 	mov.w	r2, #8192	; 0x2000
 8000ccc:	605a      	str	r2, [r3, #4]
 8000cce:	2300      	movs	r3, #0
 8000cd0:	4618      	mov	r0, r3
 8000cd2:	370c      	adds	r7, #12
 8000cd4:	46bd      	mov	sp, r7
 8000cd6:	f85d 7b04 	ldr.w	r7, [sp], #4
 8000cda:	4770      	bx	lr

08000cdc <_isatty>:
 8000cdc:	b480      	push	{r7}
 8000cde:	b083      	sub	sp, #12
 8000ce0:	af00      	add	r7, sp, #0
 8000ce2:	6078      	str	r0, [r7, #4]
 8000ce4:	2301      	movs	r3, #1
 8000ce6:	4618      	mov	r0, r3
 8000ce8:	370c      	adds	r7, #12
 8000cea:	46bd      	mov	sp, r7
 8000cec:	f85d 7b04 	ldr.w	r7, [sp], #4
 8000cf0:	4770      	bx	lr
 8000cf2:	bf00      	nop

08000cf4 <_lseek>:
 8000cf4:	b480      	push	{r7}
 8000cf6:	b085      	sub	sp, #20
 8000cf8:	af00      	add	r7, sp, #0
 8000cfa:	60f8      	str	r0, [r7, #12]
 8000cfc:	60b9      	str	r1, [r7, #8]
 8000cfe:	607a      	str	r2, [r7, #4]
 8000d00:	2300      	movs	r3, #0
 8000d02:	4618      	mov	r0, r3
 8000d04:	3714      	adds	r7, #20
 8000d06:	46bd      	mov	sp, r7
 8000d08:	f85d 7b04 	ldr.w	r7, [sp], #4
 8000d0c:	4770      	bx	lr
 8000d0e:	bf00      	nop

08000d10 <_read>:
 8000d10:	b590      	push	{r4, r7, lr}
 8000d12:	b087      	sub	sp, #28
 8000d14:	af00      	add	r7, sp, #0
 8000d16:	60f8      	str	r0, [r7, #12]
 8000d18:	60b9      	str	r1, [r7, #8]
 8000d1a:	607a      	str	r2, [r7, #4]
 8000d1c:	2300      	movs	r3, #0
 8000d1e:	617b      	str	r3, [r7, #20]
 8000d20:	e00a      	b.n	8000d38 <_read+0x28>
 8000d22:	68bc      	ldr	r4, [r7, #8]
 8000d24:	1c63      	adds	r3, r4, #1
 8000d26:	60bb      	str	r3, [r7, #8]
 8000d28:	f7ff fd9e 	bl	8000868 <__io_getchar>
 8000d2c:	4603      	mov	r3, r0
 8000d2e:	b2db      	uxtb	r3, r3
 8000d30:	7023      	strb	r3, [r4, #0]
 8000d32:	697b      	ldr	r3, [r7, #20]
 8000d34:	3301      	adds	r3, #1
 8000d36:	617b      	str	r3, [r7, #20]
 8000d38:	4808      	ldr	r0, [pc, #32]	; (8000d5c <_read+0x4c>)
 8000d3a:	2120      	movs	r1, #32
 8000d3c:	f7ff ff76 	bl	8000c2c <USART_GetFlagStatus>
 8000d40:	4603      	mov	r3, r0
 8000d42:	2b01      	cmp	r3, #1
 8000d44:	d0ed      	beq.n	8000d22 <_read+0x12>
 8000d46:	697b      	ldr	r3, [r7, #20]
 8000d48:	2b00      	cmp	r3, #0
 8000d4a:	d102      	bne.n	8000d52 <_read+0x42>
 8000d4c:	f04f 33ff 	mov.w	r3, #4294967295
 8000d50:	617b      	str	r3, [r7, #20]
 8000d52:	697b      	ldr	r3, [r7, #20]
 8000d54:	4618      	mov	r0, r3
 8000d56:	371c      	adds	r7, #28
 8000d58:	46bd      	mov	sp, r7
 8000d5a:	bd90      	pop	{r4, r7, pc}
 8000d5c:	40013800 	andmi	r3, r1, r0, lsl #16

08000d60 <_write>:
 8000d60:	b580      	push	{r7, lr}
 8000d62:	b086      	sub	sp, #24
 8000d64:	af00      	add	r7, sp, #0
 8000d66:	60f8      	str	r0, [r7, #12]
 8000d68:	60b9      	str	r1, [r7, #8]
 8000d6a:	607a      	str	r2, [r7, #4]
 8000d6c:	2300      	movs	r3, #0
 8000d6e:	617b      	str	r3, [r7, #20]
 8000d70:	e009      	b.n	8000d86 <_write+0x26>
 8000d72:	68bb      	ldr	r3, [r7, #8]
 8000d74:	1c5a      	adds	r2, r3, #1
 8000d76:	60ba      	str	r2, [r7, #8]
 8000d78:	781b      	ldrb	r3, [r3, #0]
 8000d7a:	4618      	mov	r0, r3
 8000d7c:	f7ff fd5a 	bl	8000834 <__io_putchar>
 8000d80:	697b      	ldr	r3, [r7, #20]
 8000d82:	3301      	adds	r3, #1
 8000d84:	617b      	str	r3, [r7, #20]
 8000d86:	697a      	ldr	r2, [r7, #20]
 8000d88:	687b      	ldr	r3, [r7, #4]
 8000d8a:	429a      	cmp	r2, r3
 8000d8c:	dbf1      	blt.n	8000d72 <_write+0x12>
 8000d8e:	687b      	ldr	r3, [r7, #4]
 8000d90:	4618      	mov	r0, r3
 8000d92:	3718      	adds	r7, #24
 8000d94:	46bd      	mov	sp, r7
 8000d96:	bd80      	pop	{r7, pc}

08000d98 <iprintf>:
 8000d98:	b40f      	push	{r0, r1, r2, r3}
 8000d9a:	4b0a      	ldr	r3, [pc, #40]	; (8000dc4 <iprintf+0x2c>)
 8000d9c:	b513      	push	{r0, r1, r4, lr}
 8000d9e:	681c      	ldr	r4, [r3, #0]
 8000da0:	b124      	cbz	r4, 8000dac <iprintf+0x14>
 8000da2:	69a3      	ldr	r3, [r4, #24]
 8000da4:	b913      	cbnz	r3, 8000dac <iprintf+0x14>
 8000da6:	4620      	mov	r0, r4
 8000da8:	f000 fdb2 	bl	8001910 <__sinit>
 8000dac:	ab05      	add	r3, sp, #20
 8000dae:	4620      	mov	r0, r4
 8000db0:	68a1      	ldr	r1, [r4, #8]
 8000db2:	9a04      	ldr	r2, [sp, #16]
 8000db4:	9301      	str	r3, [sp, #4]
 8000db6:	f000 f94b 	bl	8001050 <_vfiprintf_r>
 8000dba:	b002      	add	sp, #8
 8000dbc:	e8bd 4010 	ldmia.w	sp!, {r4, lr}
 8000dc0:	b004      	add	sp, #16
 8000dc2:	4770      	bx	lr
 8000dc4:	20000088 	andcs	r0, r0, r8, lsl #1

08000dc8 <_puts_r>:
 8000dc8:	b570      	push	{r4, r5, r6, lr}
 8000dca:	460e      	mov	r6, r1
 8000dcc:	4605      	mov	r5, r0
 8000dce:	b118      	cbz	r0, 8000dd8 <_puts_r+0x10>
 8000dd0:	6983      	ldr	r3, [r0, #24]
 8000dd2:	b90b      	cbnz	r3, 8000dd8 <_puts_r+0x10>
 8000dd4:	f000 fd9c 	bl	8001910 <__sinit>
 8000dd8:	68ac      	ldr	r4, [r5, #8]
 8000dda:	89a3      	ldrh	r3, [r4, #12]
 8000ddc:	0719      	lsls	r1, r3, #28
 8000dde:	d501      	bpl.n	8000de4 <_puts_r+0x1c>
 8000de0:	6923      	ldr	r3, [r4, #16]
 8000de2:	b983      	cbnz	r3, 8000e06 <_puts_r+0x3e>
 8000de4:	4628      	mov	r0, r5
 8000de6:	4621      	mov	r1, r4
 8000de8:	f000 fc10 	bl	800160c <__swsetup_r>
 8000dec:	b158      	cbz	r0, 8000e06 <_puts_r+0x3e>
 8000dee:	f04f 30ff 	mov.w	r0, #4294967295
 8000df2:	bd70      	pop	{r4, r5, r6, pc}
 8000df4:	2b00      	cmp	r3, #0
 8000df6:	db0e      	blt.n	8000e16 <_puts_r+0x4e>
 8000df8:	6823      	ldr	r3, [r4, #0]
 8000dfa:	f816 2c01 	ldrb.w	r2, [r6, #-1]
 8000dfe:	701a      	strb	r2, [r3, #0]
 8000e00:	6823      	ldr	r3, [r4, #0]
 8000e02:	3301      	adds	r3, #1
 8000e04:	6023      	str	r3, [r4, #0]
 8000e06:	68a3      	ldr	r3, [r4, #8]
 8000e08:	f816 2b01 	ldrb.w	r2, [r6], #1
 8000e0c:	3b01      	subs	r3, #1
 8000e0e:	60a3      	str	r3, [r4, #8]
 8000e10:	2a00      	cmp	r2, #0
 8000e12:	d1ef      	bne.n	8000df4 <_puts_r+0x2c>
 8000e14:	e017      	b.n	8000e46 <_puts_r+0x7e>
 8000e16:	69a2      	ldr	r2, [r4, #24]
 8000e18:	4293      	cmp	r3, r2
 8000e1a:	db09      	blt.n	8000e30 <_puts_r+0x68>
 8000e1c:	6823      	ldr	r3, [r4, #0]
 8000e1e:	f816 2c01 	ldrb.w	r2, [r6, #-1]
 8000e22:	701a      	strb	r2, [r3, #0]
 8000e24:	6823      	ldr	r3, [r4, #0]
 8000e26:	7819      	ldrb	r1, [r3, #0]
 8000e28:	290a      	cmp	r1, #10
 8000e2a:	d1ea      	bne.n	8000e02 <_puts_r+0x3a>
 8000e2c:	4628      	mov	r0, r5
 8000e2e:	e002      	b.n	8000e36 <_puts_r+0x6e>
 8000e30:	f816 1c01 	ldrb.w	r1, [r6, #-1]
 8000e34:	4628      	mov	r0, r5
 8000e36:	4622      	mov	r2, r4
 8000e38:	f000 fb94 	bl	8001564 <__swbuf_r>
 8000e3c:	f1b0 32ff 	subs.w	r2, r0, #4294967295
 8000e40:	4250      	negs	r0, r2
 8000e42:	4150      	adcs	r0, r2
 8000e44:	e7d2      	b.n	8000dec <_puts_r+0x24>
 8000e46:	2b00      	cmp	r3, #0
 8000e48:	da16      	bge.n	8000e78 <_puts_r+0xb0>
 8000e4a:	69a2      	ldr	r2, [r4, #24]
 8000e4c:	4293      	cmp	r3, r2
 8000e4e:	db08      	blt.n	8000e62 <_puts_r+0x9a>
 8000e50:	6823      	ldr	r3, [r4, #0]
 8000e52:	220a      	movs	r2, #10
 8000e54:	701a      	strb	r2, [r3, #0]
 8000e56:	6823      	ldr	r3, [r4, #0]
 8000e58:	7819      	ldrb	r1, [r3, #0]
 8000e5a:	4291      	cmp	r1, r2
 8000e5c:	d110      	bne.n	8000e80 <_puts_r+0xb8>
 8000e5e:	4628      	mov	r0, r5
 8000e60:	e001      	b.n	8000e66 <_puts_r+0x9e>
 8000e62:	4628      	mov	r0, r5
 8000e64:	210a      	movs	r1, #10
 8000e66:	4622      	mov	r2, r4
 8000e68:	f000 fb7c 	bl	8001564 <__swbuf_r>
 8000e6c:	f1b0 33ff 	subs.w	r3, r0, #4294967295
 8000e70:	4258      	negs	r0, r3
 8000e72:	4158      	adcs	r0, r3
 8000e74:	b130      	cbz	r0, 8000e84 <_puts_r+0xbc>
 8000e76:	e7ba      	b.n	8000dee <_puts_r+0x26>
 8000e78:	6823      	ldr	r3, [r4, #0]
 8000e7a:	220a      	movs	r2, #10
 8000e7c:	701a      	strb	r2, [r3, #0]
 8000e7e:	6823      	ldr	r3, [r4, #0]
 8000e80:	3301      	adds	r3, #1
 8000e82:	6023      	str	r3, [r4, #0]
 8000e84:	200a      	movs	r0, #10
 8000e86:	bd70      	pop	{r4, r5, r6, pc}

08000e88 <puts>:
 8000e88:	4b02      	ldr	r3, [pc, #8]	; (8000e94 <puts+0xc>)
 8000e8a:	4601      	mov	r1, r0
 8000e8c:	6818      	ldr	r0, [r3, #0]
 8000e8e:	f7ff bf9b 	b.w	8000dc8 <_puts_r>
 8000e92:	bf00      	nop
 8000e94:	20000088 	andcs	r0, r0, r8, lsl #1

08000e98 <__srget_r>:
 8000e98:	b538      	push	{r3, r4, r5, lr}
 8000e9a:	460c      	mov	r4, r1
 8000e9c:	4605      	mov	r5, r0
 8000e9e:	b118      	cbz	r0, 8000ea8 <__srget_r+0x10>
 8000ea0:	6983      	ldr	r3, [r0, #24]
 8000ea2:	b90b      	cbnz	r3, 8000ea8 <__srget_r+0x10>
 8000ea4:	f000 fd34 	bl	8001910 <__sinit>
 8000ea8:	4b0e      	ldr	r3, [pc, #56]	; (8000ee4 <__srget_r+0x4c>)
 8000eaa:	429c      	cmp	r4, r3
 8000eac:	d101      	bne.n	8000eb2 <__srget_r+0x1a>
 8000eae:	686c      	ldr	r4, [r5, #4]
 8000eb0:	e008      	b.n	8000ec4 <__srget_r+0x2c>
 8000eb2:	4b0d      	ldr	r3, [pc, #52]	; (8000ee8 <__srget_r+0x50>)
 8000eb4:	429c      	cmp	r4, r3
 8000eb6:	d101      	bne.n	8000ebc <__srget_r+0x24>
 8000eb8:	68ac      	ldr	r4, [r5, #8]
 8000eba:	e003      	b.n	8000ec4 <__srget_r+0x2c>
 8000ebc:	4b0b      	ldr	r3, [pc, #44]	; (8000eec <__srget_r+0x54>)
 8000ebe:	429c      	cmp	r4, r3
 8000ec0:	bf08      	it	eq
 8000ec2:	68ec      	ldreq	r4, [r5, #12]
 8000ec4:	4628      	mov	r0, r5
 8000ec6:	4621      	mov	r1, r4
 8000ec8:	f000 fed2 	bl	8001c70 <__srefill_r>
 8000ecc:	b938      	cbnz	r0, 8000ede <__srget_r+0x46>
 8000ece:	6863      	ldr	r3, [r4, #4]
 8000ed0:	3b01      	subs	r3, #1
 8000ed2:	6063      	str	r3, [r4, #4]
 8000ed4:	6823      	ldr	r3, [r4, #0]
 8000ed6:	1c5a      	adds	r2, r3, #1
 8000ed8:	6022      	str	r2, [r4, #0]
 8000eda:	7818      	ldrb	r0, [r3, #0]
 8000edc:	bd38      	pop	{r3, r4, r5, pc}
 8000ede:	f04f 30ff 	mov.w	r0, #4294967295
 8000ee2:	bd38      	pop	{r3, r4, r5, pc}
 8000ee4:	08001f50 	stmdaeq	r0, {r4, r6, r8, r9, sl, fp, ip}
 8000ee8:	08001f70 	stmdaeq	r0, {r4, r5, r6, r8, r9, sl, fp, ip}
 8000eec:	08001f90 	stmdaeq	r0, {r4, r7, r8, r9, sl, fp, ip}

08000ef0 <setvbuf>:
 8000ef0:	e92d 41f0 	stmdb	sp!, {r4, r5, r6, r7, r8, lr}
 8000ef4:	461e      	mov	r6, r3
 8000ef6:	4b3d      	ldr	r3, [pc, #244]	; (8000fec <setvbuf+0xfc>)
 8000ef8:	4604      	mov	r4, r0
 8000efa:	681d      	ldr	r5, [r3, #0]
 8000efc:	460f      	mov	r7, r1
 8000efe:	4690      	mov	r8, r2
 8000f00:	b125      	cbz	r5, 8000f0c <setvbuf+0x1c>
 8000f02:	69ab      	ldr	r3, [r5, #24]
 8000f04:	b913      	cbnz	r3, 8000f0c <setvbuf+0x1c>
 8000f06:	4628      	mov	r0, r5
 8000f08:	f000 fd02 	bl	8001910 <__sinit>
 8000f0c:	4b38      	ldr	r3, [pc, #224]	; (8000ff0 <setvbuf+0x100>)
 8000f0e:	429c      	cmp	r4, r3
 8000f10:	d101      	bne.n	8000f16 <setvbuf+0x26>
 8000f12:	686c      	ldr	r4, [r5, #4]
 8000f14:	e008      	b.n	8000f28 <setvbuf+0x38>
 8000f16:	4b37      	ldr	r3, [pc, #220]	; (8000ff4 <setvbuf+0x104>)
 8000f18:	429c      	cmp	r4, r3
 8000f1a:	d101      	bne.n	8000f20 <setvbuf+0x30>
 8000f1c:	68ac      	ldr	r4, [r5, #8]
 8000f1e:	e003      	b.n	8000f28 <setvbuf+0x38>
 8000f20:	4b35      	ldr	r3, [pc, #212]	; (8000ff8 <setvbuf+0x108>)
 8000f22:	429c      	cmp	r4, r3
 8000f24:	bf08      	it	eq
 8000f26:	68ec      	ldreq	r4, [r5, #12]
 8000f28:	f1b8 0f02 	cmp.w	r8, #2
 8000f2c:	d859      	bhi.n	8000fe2 <setvbuf+0xf2>
 8000f2e:	2e00      	cmp	r6, #0
 8000f30:	db57      	blt.n	8000fe2 <setvbuf+0xf2>
 8000f32:	4628      	mov	r0, r5
 8000f34:	4621      	mov	r1, r4
 8000f36:	f000 fc5b 	bl	80017f0 <_fflush_r>
 8000f3a:	2300      	movs	r3, #0
 8000f3c:	6063      	str	r3, [r4, #4]
 8000f3e:	61a3      	str	r3, [r4, #24]
 8000f40:	89a3      	ldrh	r3, [r4, #12]
 8000f42:	061b      	lsls	r3, r3, #24
 8000f44:	d503      	bpl.n	8000f4e <setvbuf+0x5e>
 8000f46:	4628      	mov	r0, r5
 8000f48:	6921      	ldr	r1, [r4, #16]
 8000f4a:	f000 fdef 	bl	8001b2c <_free_r>
 8000f4e:	89a3      	ldrh	r3, [r4, #12]
 8000f50:	f1b8 0f02 	cmp.w	r8, #2
 8000f54:	f023 0383 	bic.w	r3, r3, #131	; 0x83
 8000f58:	81a3      	strh	r3, [r4, #12]
 8000f5a:	d012      	beq.n	8000f82 <setvbuf+0x92>
 8000f5c:	bb37      	cbnz	r7, 8000fac <setvbuf+0xbc>
 8000f5e:	2e00      	cmp	r6, #0
 8000f60:	bf08      	it	eq
 8000f62:	f44f 6680 	moveq.w	r6, #1024	; 0x400
 8000f66:	4630      	mov	r0, r6
 8000f68:	f000 fdc2 	bl	8001af0 <malloc>
 8000f6c:	4607      	mov	r7, r0
 8000f6e:	b9c8      	cbnz	r0, 8000fa4 <setvbuf+0xb4>
 8000f70:	f44f 6080 	mov.w	r0, #1024	; 0x400
 8000f74:	f000 fdbc 	bl	8001af0 <malloc>
 8000f78:	4607      	mov	r7, r0
 8000f7a:	b988      	cbnz	r0, 8000fa0 <setvbuf+0xb0>
 8000f7c:	f04f 30ff 	mov.w	r0, #4294967295
 8000f80:	e000      	b.n	8000f84 <setvbuf+0x94>
 8000f82:	2000      	movs	r0, #0
 8000f84:	89a3      	ldrh	r3, [r4, #12]
 8000f86:	f043 0302 	orr.w	r3, r3, #2
 8000f8a:	81a3      	strh	r3, [r4, #12]
 8000f8c:	2300      	movs	r3, #0
 8000f8e:	60a3      	str	r3, [r4, #8]
 8000f90:	f104 0347 	add.w	r3, r4, #71	; 0x47
 8000f94:	6023      	str	r3, [r4, #0]
 8000f96:	6123      	str	r3, [r4, #16]
 8000f98:	2301      	movs	r3, #1
 8000f9a:	6163      	str	r3, [r4, #20]
 8000f9c:	e8bd 81f0 	ldmia.w	sp!, {r4, r5, r6, r7, r8, pc}
 8000fa0:	f44f 6680 	mov.w	r6, #1024	; 0x400
 8000fa4:	89a3      	ldrh	r3, [r4, #12]
 8000fa6:	f043 0380 	orr.w	r3, r3, #128	; 0x80
 8000faa:	81a3      	strh	r3, [r4, #12]
 8000fac:	f1b8 0f01 	cmp.w	r8, #1
 8000fb0:	d105      	bne.n	8000fbe <setvbuf+0xce>
 8000fb2:	89a3      	ldrh	r3, [r4, #12]
 8000fb4:	f043 0301 	orr.w	r3, r3, #1
 8000fb8:	81a3      	strh	r3, [r4, #12]
 8000fba:	4273      	negs	r3, r6
 8000fbc:	61a3      	str	r3, [r4, #24]
 8000fbe:	4b0f      	ldr	r3, [pc, #60]	; (8000ffc <setvbuf+0x10c>)
 8000fc0:	62ab      	str	r3, [r5, #40]	; 0x28
 8000fc2:	89a3      	ldrh	r3, [r4, #12]
 8000fc4:	6027      	str	r7, [r4, #0]
 8000fc6:	f003 0008 	and.w	r0, r3, #8
 8000fca:	b280      	uxth	r0, r0
 8000fcc:	6127      	str	r7, [r4, #16]
 8000fce:	6166      	str	r6, [r4, #20]
 8000fd0:	b148      	cbz	r0, 8000fe6 <setvbuf+0xf6>
 8000fd2:	f013 0f03 	tst.w	r3, #3
 8000fd6:	bf18      	it	ne
 8000fd8:	2600      	movne	r6, #0
 8000fda:	60a6      	str	r6, [r4, #8]
 8000fdc:	2000      	movs	r0, #0
 8000fde:	e8bd 81f0 	ldmia.w	sp!, {r4, r5, r6, r7, r8, pc}
 8000fe2:	f04f 30ff 	mov.w	r0, #4294967295
 8000fe6:	e8bd 81f0 	ldmia.w	sp!, {r4, r5, r6, r7, r8, pc}
 8000fea:	bf00      	nop
 8000fec:	20000088 	andcs	r0, r0, r8, lsl #1
 8000ff0:	08001f50 	stmdaeq	r0, {r4, r6, r8, r9, sl, fp, ip}
 8000ff4:	08001f70 	stmdaeq	r0, {r4, r5, r6, r8, r9, sl, fp, ip}
 8000ff8:	08001f90 	stmdaeq	r0, {r4, r7, r8, r9, sl, fp, ip}
 8000ffc:	08001869 	stmdaeq	r0, {r0, r3, r5, r6, fp, ip}

08001000 <__sfputc_r>:
 8001000:	6893      	ldr	r3, [r2, #8]
 8001002:	b510      	push	{r4, lr}
 8001004:	3b01      	subs	r3, #1
 8001006:	2b00      	cmp	r3, #0
 8001008:	6093      	str	r3, [r2, #8]
 800100a:	da05      	bge.n	8001018 <__sfputc_r+0x18>
 800100c:	6994      	ldr	r4, [r2, #24]
 800100e:	42a3      	cmp	r3, r4
 8001010:	db08      	blt.n	8001024 <__sfputc_r+0x24>
 8001012:	b2cb      	uxtb	r3, r1
 8001014:	2b0a      	cmp	r3, #10
 8001016:	d005      	beq.n	8001024 <__sfputc_r+0x24>
 8001018:	6813      	ldr	r3, [r2, #0]
 800101a:	1c58      	adds	r0, r3, #1
 800101c:	6010      	str	r0, [r2, #0]
 800101e:	7019      	strb	r1, [r3, #0]
 8001020:	b2c8      	uxtb	r0, r1
 8001022:	bd10      	pop	{r4, pc}
 8001024:	e8bd 4010 	ldmia.w	sp!, {r4, lr}
 8001028:	f000 ba9c 	b.w	8001564 <__swbuf_r>

0800102c <__sfputs_r>:
 800102c:	b5f8      	push	{r3, r4, r5, r6, r7, lr}
 800102e:	4605      	mov	r5, r0
 8001030:	460e      	mov	r6, r1
 8001032:	4614      	mov	r4, r2
 8001034:	18d7      	adds	r7, r2, r3
 8001036:	42bc      	cmp	r4, r7
 8001038:	d008      	beq.n	800104c <__sfputs_r+0x20>
 800103a:	4628      	mov	r0, r5
 800103c:	f814 1b01 	ldrb.w	r1, [r4], #1
 8001040:	4632      	mov	r2, r6
 8001042:	f7ff ffdd 	bl	8001000 <__sfputc_r>
 8001046:	1c43      	adds	r3, r0, #1
 8001048:	d1f5      	bne.n	8001036 <__sfputs_r+0xa>
 800104a:	e000      	b.n	800104e <__sfputs_r+0x22>
 800104c:	2000      	movs	r0, #0
 800104e:	bdf8      	pop	{r3, r4, r5, r6, r7, pc}

08001050 <_vfiprintf_r>:
 8001050:	e92d 43f0 	stmdb	sp!, {r4, r5, r6, r7, r8, r9, lr}
 8001054:	b09d      	sub	sp, #116	; 0x74
 8001056:	460d      	mov	r5, r1
 8001058:	4617      	mov	r7, r2
 800105a:	9303      	str	r3, [sp, #12]
 800105c:	4606      	mov	r6, r0
 800105e:	b118      	cbz	r0, 8001068 <_vfiprintf_r+0x18>
 8001060:	6983      	ldr	r3, [r0, #24]
 8001062:	b90b      	cbnz	r3, 8001068 <_vfiprintf_r+0x18>
 8001064:	f000 fc54 	bl	8001910 <__sinit>
 8001068:	4b73      	ldr	r3, [pc, #460]	; (8001238 <_vfiprintf_r+0x1e8>)
 800106a:	429d      	cmp	r5, r3
 800106c:	d101      	bne.n	8001072 <_vfiprintf_r+0x22>
 800106e:	6875      	ldr	r5, [r6, #4]
 8001070:	e008      	b.n	8001084 <_vfiprintf_r+0x34>
 8001072:	4b72      	ldr	r3, [pc, #456]	; (800123c <_vfiprintf_r+0x1ec>)
 8001074:	429d      	cmp	r5, r3
 8001076:	d101      	bne.n	800107c <_vfiprintf_r+0x2c>
 8001078:	68b5      	ldr	r5, [r6, #8]
 800107a:	e003      	b.n	8001084 <_vfiprintf_r+0x34>
 800107c:	4b70      	ldr	r3, [pc, #448]	; (8001240 <_vfiprintf_r+0x1f0>)
 800107e:	429d      	cmp	r5, r3
 8001080:	bf08      	it	eq
 8001082:	68f5      	ldreq	r5, [r6, #12]
 8001084:	89ab      	ldrh	r3, [r5, #12]
 8001086:	0718      	lsls	r0, r3, #28
 8001088:	d50a      	bpl.n	80010a0 <_vfiprintf_r+0x50>
 800108a:	692b      	ldr	r3, [r5, #16]
 800108c:	b143      	cbz	r3, 80010a0 <_vfiprintf_r+0x50>
 800108e:	2300      	movs	r3, #0
 8001090:	9309      	str	r3, [sp, #36]	; 0x24
 8001092:	2320      	movs	r3, #32
 8001094:	f88d 3029 	strb.w	r3, [sp, #41]	; 0x29
 8001098:	2330      	movs	r3, #48	; 0x30
 800109a:	f88d 302a 	strb.w	r3, [sp, #42]	; 0x2a
 800109e:	e038      	b.n	8001112 <_vfiprintf_r+0xc2>
 80010a0:	4630      	mov	r0, r6
 80010a2:	4629      	mov	r1, r5
 80010a4:	f000 fab2 	bl	800160c <__swsetup_r>
 80010a8:	2800      	cmp	r0, #0
 80010aa:	d0f0      	beq.n	800108e <_vfiprintf_r+0x3e>
 80010ac:	f04f 30ff 	mov.w	r0, #4294967295
 80010b0:	e0be      	b.n	8001230 <_vfiprintf_r+0x1e0>
 80010b2:	9a03      	ldr	r2, [sp, #12]
 80010b4:	1d11      	adds	r1, r2, #4
 80010b6:	6812      	ldr	r2, [r2, #0]
 80010b8:	9103      	str	r1, [sp, #12]
 80010ba:	2a00      	cmp	r2, #0
 80010bc:	db70      	blt.n	80011a0 <_vfiprintf_r+0x150>
 80010be:	9207      	str	r2, [sp, #28]
 80010c0:	3401      	adds	r4, #1
 80010c2:	7823      	ldrb	r3, [r4, #0]
 80010c4:	2b2e      	cmp	r3, #46	; 0x2e
 80010c6:	d07d      	beq.n	80011c4 <_vfiprintf_r+0x174>
 80010c8:	4f5e      	ldr	r7, [pc, #376]	; (8001244 <_vfiprintf_r+0x1f4>)
 80010ca:	7821      	ldrb	r1, [r4, #0]
 80010cc:	4638      	mov	r0, r7
 80010ce:	2203      	movs	r2, #3
 80010d0:	f000 fd16 	bl	8001b00 <memchr>
 80010d4:	b130      	cbz	r0, 80010e4 <_vfiprintf_r+0x94>
 80010d6:	1bc7      	subs	r7, r0, r7
 80010d8:	2040      	movs	r0, #64	; 0x40
 80010da:	40b8      	lsls	r0, r7
 80010dc:	9b04      	ldr	r3, [sp, #16]
 80010de:	3401      	adds	r4, #1
 80010e0:	4303      	orrs	r3, r0
 80010e2:	9304      	str	r3, [sp, #16]
 80010e4:	7821      	ldrb	r1, [r4, #0]
 80010e6:	4858      	ldr	r0, [pc, #352]	; (8001248 <_vfiprintf_r+0x1f8>)
 80010e8:	2206      	movs	r2, #6
 80010ea:	1c67      	adds	r7, r4, #1
 80010ec:	f88d 1028 	strb.w	r1, [sp, #40]	; 0x28
 80010f0:	f000 fd06 	bl	8001b00 <memchr>
 80010f4:	2800      	cmp	r0, #0
 80010f6:	f000 8089 	beq.w	800120c <_vfiprintf_r+0x1bc>
 80010fa:	4b54      	ldr	r3, [pc, #336]	; (800124c <_vfiprintf_r+0x1fc>)
 80010fc:	2b00      	cmp	r3, #0
 80010fe:	d17c      	bne.n	80011fa <_vfiprintf_r+0x1aa>
 8001100:	9b03      	ldr	r3, [sp, #12]
 8001102:	3307      	adds	r3, #7
 8001104:	f023 0307 	bic.w	r3, r3, #7
 8001108:	3308      	adds	r3, #8
 800110a:	9303      	str	r3, [sp, #12]
 800110c:	9b09      	ldr	r3, [sp, #36]	; 0x24
 800110e:	4443      	add	r3, r8
 8001110:	9309      	str	r3, [sp, #36]	; 0x24
 8001112:	463b      	mov	r3, r7
 8001114:	461c      	mov	r4, r3
 8001116:	f813 2b01 	ldrb.w	r2, [r3], #1
 800111a:	b91a      	cbnz	r2, 8001124 <_vfiprintf_r+0xd4>
 800111c:	ebb4 0907 	subs.w	r9, r4, r7
 8001120:	d00e      	beq.n	8001140 <_vfiprintf_r+0xf0>
 8001122:	e002      	b.n	800112a <_vfiprintf_r+0xda>
 8001124:	2a25      	cmp	r2, #37	; 0x25
 8001126:	d1f5      	bne.n	8001114 <_vfiprintf_r+0xc4>
 8001128:	e7f8      	b.n	800111c <_vfiprintf_r+0xcc>
 800112a:	4630      	mov	r0, r6
 800112c:	4629      	mov	r1, r5
 800112e:	463a      	mov	r2, r7
 8001130:	464b      	mov	r3, r9
 8001132:	f7ff ff7b 	bl	800102c <__sfputs_r>
 8001136:	3001      	adds	r0, #1
 8001138:	d075      	beq.n	8001226 <_vfiprintf_r+0x1d6>
 800113a:	9b09      	ldr	r3, [sp, #36]	; 0x24
 800113c:	444b      	add	r3, r9
 800113e:	9309      	str	r3, [sp, #36]	; 0x24
 8001140:	7823      	ldrb	r3, [r4, #0]
 8001142:	2b00      	cmp	r3, #0
 8001144:	d06f      	beq.n	8001226 <_vfiprintf_r+0x1d6>
 8001146:	2300      	movs	r3, #0
 8001148:	f04f 32ff 	mov.w	r2, #4294967295
 800114c:	9304      	str	r3, [sp, #16]
 800114e:	9307      	str	r3, [sp, #28]
 8001150:	9205      	str	r2, [sp, #20]
 8001152:	9306      	str	r3, [sp, #24]
 8001154:	f88d 3053 	strb.w	r3, [sp, #83]	; 0x53
 8001158:	931a      	str	r3, [sp, #104]	; 0x68
 800115a:	f104 0901 	add.w	r9, r4, #1
 800115e:	4f3c      	ldr	r7, [pc, #240]	; (8001250 <_vfiprintf_r+0x200>)
 8001160:	464c      	mov	r4, r9
 8001162:	4638      	mov	r0, r7
 8001164:	7821      	ldrb	r1, [r4, #0]
 8001166:	2205      	movs	r2, #5
 8001168:	f000 fcca 	bl	8001b00 <memchr>
 800116c:	f109 0901 	add.w	r9, r9, #1
 8001170:	9b04      	ldr	r3, [sp, #16]
 8001172:	b128      	cbz	r0, 8001180 <_vfiprintf_r+0x130>
 8001174:	1bc7      	subs	r7, r0, r7
 8001176:	2001      	movs	r0, #1
 8001178:	40b8      	lsls	r0, r7
 800117a:	4303      	orrs	r3, r0
 800117c:	9304      	str	r3, [sp, #16]
 800117e:	e7ee      	b.n	800115e <_vfiprintf_r+0x10e>
 8001180:	06d9      	lsls	r1, r3, #27
 8001182:	bf44      	itt	mi
 8001184:	2220      	movmi	r2, #32
 8001186:	f88d 2053 	strbmi.w	r2, [sp, #83]	; 0x53
 800118a:	071a      	lsls	r2, r3, #28
 800118c:	bf44      	itt	mi
 800118e:	222b      	movmi	r2, #43	; 0x2b
 8001190:	f88d 2053 	strbmi.w	r2, [sp, #83]	; 0x53
 8001194:	7822      	ldrb	r2, [r4, #0]
 8001196:	2a2a      	cmp	r2, #42	; 0x2a
 8001198:	d08b      	beq.n	80010b2 <_vfiprintf_r+0x62>
 800119a:	9b07      	ldr	r3, [sp, #28]
 800119c:	4621      	mov	r1, r4
 800119e:	e005      	b.n	80011ac <_vfiprintf_r+0x15c>
 80011a0:	4252      	negs	r2, r2
 80011a2:	f043 0302 	orr.w	r3, r3, #2
 80011a6:	9207      	str	r2, [sp, #28]
 80011a8:	9304      	str	r3, [sp, #16]
 80011aa:	e789      	b.n	80010c0 <_vfiprintf_r+0x70>
 80011ac:	460c      	mov	r4, r1
 80011ae:	7822      	ldrb	r2, [r4, #0]
 80011b0:	3101      	adds	r1, #1
 80011b2:	3a30      	subs	r2, #48	; 0x30
 80011b4:	2a09      	cmp	r2, #9
 80011b6:	d803      	bhi.n	80011c0 <_vfiprintf_r+0x170>
 80011b8:	200a      	movs	r0, #10
 80011ba:	fb00 2303 	mla	r3, r0, r3, r2
 80011be:	e7f5      	b.n	80011ac <_vfiprintf_r+0x15c>
 80011c0:	9307      	str	r3, [sp, #28]
 80011c2:	e77e      	b.n	80010c2 <_vfiprintf_r+0x72>
 80011c4:	7863      	ldrb	r3, [r4, #1]
 80011c6:	2b2a      	cmp	r3, #42	; 0x2a
 80011c8:	d109      	bne.n	80011de <_vfiprintf_r+0x18e>
 80011ca:	9b03      	ldr	r3, [sp, #12]
 80011cc:	3402      	adds	r4, #2
 80011ce:	1d1a      	adds	r2, r3, #4
 80011d0:	681b      	ldr	r3, [r3, #0]
 80011d2:	9203      	str	r2, [sp, #12]
 80011d4:	2b00      	cmp	r3, #0
 80011d6:	bfb8      	it	lt
 80011d8:	f04f 33ff 	movlt.w	r3, #4294967295
 80011dc:	e00b      	b.n	80011f6 <_vfiprintf_r+0x1a6>
 80011de:	1c61      	adds	r1, r4, #1
 80011e0:	2300      	movs	r3, #0
 80011e2:	460c      	mov	r4, r1
 80011e4:	7822      	ldrb	r2, [r4, #0]
 80011e6:	3101      	adds	r1, #1
 80011e8:	3a30      	subs	r2, #48	; 0x30
 80011ea:	2a09      	cmp	r2, #9
 80011ec:	d803      	bhi.n	80011f6 <_vfiprintf_r+0x1a6>
 80011ee:	200a      	movs	r0, #10
 80011f0:	fb00 2303 	mla	r3, r0, r3, r2
 80011f4:	e7f5      	b.n	80011e2 <_vfiprintf_r+0x192>
 80011f6:	9305      	str	r3, [sp, #20]
 80011f8:	e766      	b.n	80010c8 <_vfiprintf_r+0x78>
 80011fa:	ab03      	add	r3, sp, #12
 80011fc:	9300      	str	r3, [sp, #0]
 80011fe:	4630      	mov	r0, r6
 8001200:	a904      	add	r1, sp, #16
 8001202:	462a      	mov	r2, r5
 8001204:	4b13      	ldr	r3, [pc, #76]	; (8001254 <_vfiprintf_r+0x204>)
 8001206:	f3af 8000 	nop.w
 800120a:	e007      	b.n	800121c <_vfiprintf_r+0x1cc>
 800120c:	ab03      	add	r3, sp, #12
 800120e:	9300      	str	r3, [sp, #0]
 8001210:	4630      	mov	r0, r6
 8001212:	a904      	add	r1, sp, #16
 8001214:	462a      	mov	r2, r5
 8001216:	4b0f      	ldr	r3, [pc, #60]	; (8001254 <_vfiprintf_r+0x204>)
 8001218:	f000 f890 	bl	800133c <_printf_i>
 800121c:	f1b0 3fff 	cmp.w	r0, #4294967295
 8001220:	4680      	mov	r8, r0
 8001222:	f47f af73 	bne.w	800110c <_vfiprintf_r+0xbc>
 8001226:	89ab      	ldrh	r3, [r5, #12]
 8001228:	065b      	lsls	r3, r3, #25
 800122a:	f53f af3f 	bmi.w	80010ac <_vfiprintf_r+0x5c>
 800122e:	9809      	ldr	r0, [sp, #36]	; 0x24
 8001230:	b01d      	add	sp, #116	; 0x74
 8001232:	e8bd 83f0 	ldmia.w	sp!, {r4, r5, r6, r7, r8, r9, pc}
 8001236:	bf00      	nop
 8001238:	08001f50 	stmdaeq	r0, {r4, r6, r8, r9, sl, fp, ip}
 800123c:	08001f70 	stmdaeq	r0, {r4, r5, r6, r8, r9, sl, fp, ip}
 8001240:	08001f90 	stmdaeq	r0, {r4, r7, r8, r9, sl, fp, ip}
 8001244:	08001f22 	stmdaeq	r0, {r1, r5, r8, r9, sl, fp, ip}
 8001248:	08001f26 	stmdaeq	r0, {r1, r2, r5, r8, r9, sl, fp, ip}
 800124c:	00000000 	andeq	r0, r0, r0
 8001250:	08001f1c 	stmdaeq	r0, {r2, r3, r4, r8, r9, sl, fp, ip}
 8001254:	0800102d 	stmdaeq	r0, {r0, r2, r3, r5, ip}

08001258 <_printf_common>:
 8001258:	e92d 43f8 	stmdb	sp!, {r3, r4, r5, r6, r7, r8, r9, lr}
 800125c:	4615      	mov	r5, r2
 800125e:	461f      	mov	r7, r3
 8001260:	688a      	ldr	r2, [r1, #8]
 8001262:	690b      	ldr	r3, [r1, #16]
 8001264:	4606      	mov	r6, r0
 8001266:	429a      	cmp	r2, r3
 8001268:	bfa8      	it	ge
 800126a:	4613      	movge	r3, r2
 800126c:	602b      	str	r3, [r5, #0]
 800126e:	f891 2043 	ldrb.w	r2, [r1, #67]	; 0x43
 8001272:	460c      	mov	r4, r1
 8001274:	f8dd 8020 	ldr.w	r8, [sp, #32]
 8001278:	b10a      	cbz	r2, 800127e <_printf_common+0x26>
 800127a:	3301      	adds	r3, #1
 800127c:	602b      	str	r3, [r5, #0]
 800127e:	6823      	ldr	r3, [r4, #0]
 8001280:	0699      	lsls	r1, r3, #26
 8001282:	d502      	bpl.n	800128a <_printf_common+0x32>
 8001284:	682b      	ldr	r3, [r5, #0]
 8001286:	3302      	adds	r3, #2
 8001288:	602b      	str	r3, [r5, #0]
 800128a:	6823      	ldr	r3, [r4, #0]
 800128c:	f013 0906 	ands.w	r9, r3, #6
 8001290:	d01d      	beq.n	80012ce <_printf_common+0x76>
 8001292:	f894 3043 	ldrb.w	r3, [r4, #67]	; 0x43
 8001296:	6822      	ldr	r2, [r4, #0]
 8001298:	3300      	adds	r3, #0
 800129a:	bf18      	it	ne
 800129c:	2301      	movne	r3, #1
 800129e:	0692      	lsls	r2, r2, #26
 80012a0:	d51f      	bpl.n	80012e2 <_printf_common+0x8a>
 80012a2:	18e1      	adds	r1, r4, r3
 80012a4:	2030      	movs	r0, #48	; 0x30
 80012a6:	f881 0043 	strb.w	r0, [r1, #67]	; 0x43
 80012aa:	1c5a      	adds	r2, r3, #1
 80012ac:	f894 1045 	ldrb.w	r1, [r4, #69]	; 0x45
 80012b0:	4422      	add	r2, r4
 80012b2:	3302      	adds	r3, #2
 80012b4:	f882 1043 	strb.w	r1, [r2, #67]	; 0x43
 80012b8:	e013      	b.n	80012e2 <_printf_common+0x8a>
 80012ba:	4630      	mov	r0, r6
 80012bc:	4639      	mov	r1, r7
 80012be:	f104 0219 	add.w	r2, r4, #25
 80012c2:	2301      	movs	r3, #1
 80012c4:	47c0      	blx	r8
 80012c6:	3001      	adds	r0, #1
 80012c8:	d007      	beq.n	80012da <_printf_common+0x82>
 80012ca:	f109 0901 	add.w	r9, r9, #1
 80012ce:	68e2      	ldr	r2, [r4, #12]
 80012d0:	682b      	ldr	r3, [r5, #0]
 80012d2:	1ad3      	subs	r3, r2, r3
 80012d4:	4599      	cmp	r9, r3
 80012d6:	dbf0      	blt.n	80012ba <_printf_common+0x62>
 80012d8:	e7db      	b.n	8001292 <_printf_common+0x3a>
 80012da:	f04f 30ff 	mov.w	r0, #4294967295
 80012de:	e8bd 83f8 	ldmia.w	sp!, {r3, r4, r5, r6, r7, r8, r9, pc}
 80012e2:	4630      	mov	r0, r6
 80012e4:	4639      	mov	r1, r7
 80012e6:	f104 0243 	add.w	r2, r4, #67	; 0x43
 80012ea:	47c0      	blx	r8
 80012ec:	3001      	adds	r0, #1
 80012ee:	d0f4      	beq.n	80012da <_printf_common+0x82>
 80012f0:	6823      	ldr	r3, [r4, #0]
 80012f2:	682a      	ldr	r2, [r5, #0]
 80012f4:	f003 0306 	and.w	r3, r3, #6
 80012f8:	68e1      	ldr	r1, [r4, #12]
 80012fa:	2b04      	cmp	r3, #4
 80012fc:	bf08      	it	eq
 80012fe:	ebc2 0501 	rsbeq	r5, r2, r1
 8001302:	6923      	ldr	r3, [r4, #16]
 8001304:	68a2      	ldr	r2, [r4, #8]
 8001306:	bf0c      	ite	eq
 8001308:	ea25 75e5 	biceq.w	r5, r5, r5, asr #31
 800130c:	2500      	movne	r5, #0
 800130e:	429a      	cmp	r2, r3
 8001310:	bfc4      	itt	gt
 8001312:	ebc3 0302 	rsbgt	r3, r3, r2
 8001316:	18ed      	addgt	r5, r5, r3
 8001318:	f04f 0900 	mov.w	r9, #0
 800131c:	45a9      	cmp	r9, r5
 800131e:	da0a      	bge.n	8001336 <_printf_common+0xde>
 8001320:	4630      	mov	r0, r6
 8001322:	4639      	mov	r1, r7
 8001324:	f104 021a 	add.w	r2, r4, #26
 8001328:	2301      	movs	r3, #1
 800132a:	47c0      	blx	r8
 800132c:	3001      	adds	r0, #1
 800132e:	d0d4      	beq.n	80012da <_printf_common+0x82>
 8001330:	f109 0901 	add.w	r9, r9, #1
 8001334:	e7f2      	b.n	800131c <_printf_common+0xc4>
 8001336:	2000      	movs	r0, #0
 8001338:	e8bd 83f8 	ldmia.w	sp!, {r3, r4, r5, r6, r7, r8, r9, pc}

0800133c <_printf_i>:
 800133c:	e92d 47ff 	stmdb	sp!, {r0, r1, r2, r3, r4, r5, r6, r7, r8, r9, sl, lr}
 8001340:	7e0e      	ldrb	r6, [r1, #24]
 8001342:	4680      	mov	r8, r0
 8001344:	2e6e      	cmp	r6, #110	; 0x6e
 8001346:	460c      	mov	r4, r1
 8001348:	4691      	mov	r9, r2
 800134a:	469a      	mov	sl, r3
 800134c:	9d0c      	ldr	r5, [sp, #48]	; 0x30
 800134e:	f101 0043 	add.w	r0, r1, #67	; 0x43
 8001352:	f000 80a5 	beq.w	80014a0 <_printf_i+0x164>
 8001356:	d811      	bhi.n	800137c <_printf_i+0x40>
 8001358:	2e63      	cmp	r6, #99	; 0x63
 800135a:	d022      	beq.n	80013a2 <_printf_i+0x66>
 800135c:	d809      	bhi.n	8001372 <_printf_i+0x36>
 800135e:	2e00      	cmp	r6, #0
 8001360:	f000 80af 	beq.w	80014c2 <_printf_i+0x186>
 8001364:	2e58      	cmp	r6, #88	; 0x58
 8001366:	f040 80bf 	bne.w	80014e8 <_printf_i+0x1ac>
 800136a:	f881 6045 	strb.w	r6, [r1, #69]	; 0x45
 800136e:	4a7b      	ldr	r2, [pc, #492]	; (800155c <_printf_i+0x220>)
 8001370:	e04f      	b.n	8001412 <_printf_i+0xd6>
 8001372:	2e64      	cmp	r6, #100	; 0x64
 8001374:	d01e      	beq.n	80013b4 <_printf_i+0x78>
 8001376:	2e69      	cmp	r6, #105	; 0x69
 8001378:	d01c      	beq.n	80013b4 <_printf_i+0x78>
 800137a:	e0b5      	b.n	80014e8 <_printf_i+0x1ac>
 800137c:	2e73      	cmp	r6, #115	; 0x73
 800137e:	f000 80a4 	beq.w	80014ca <_printf_i+0x18e>
 8001382:	d809      	bhi.n	8001398 <_printf_i+0x5c>
 8001384:	2e6f      	cmp	r6, #111	; 0x6f
 8001386:	d02b      	beq.n	80013e0 <_printf_i+0xa4>
 8001388:	2e70      	cmp	r6, #112	; 0x70
 800138a:	f040 80ad 	bne.w	80014e8 <_printf_i+0x1ac>
 800138e:	680b      	ldr	r3, [r1, #0]
 8001390:	f043 0320 	orr.w	r3, r3, #32
 8001394:	600b      	str	r3, [r1, #0]
 8001396:	e038      	b.n	800140a <_printf_i+0xce>
 8001398:	2e75      	cmp	r6, #117	; 0x75
 800139a:	d021      	beq.n	80013e0 <_printf_i+0xa4>
 800139c:	2e78      	cmp	r6, #120	; 0x78
 800139e:	d034      	beq.n	800140a <_printf_i+0xce>
 80013a0:	e0a2      	b.n	80014e8 <_printf_i+0x1ac>
 80013a2:	682b      	ldr	r3, [r5, #0]
 80013a4:	f101 0742 	add.w	r7, r1, #66	; 0x42
 80013a8:	1d1a      	adds	r2, r3, #4
 80013aa:	681b      	ldr	r3, [r3, #0]
 80013ac:	602a      	str	r2, [r5, #0]
 80013ae:	f881 3042 	strb.w	r3, [r1, #66]	; 0x42
 80013b2:	e09d      	b.n	80014f0 <_printf_i+0x1b4>
 80013b4:	6822      	ldr	r2, [r4, #0]
 80013b6:	682b      	ldr	r3, [r5, #0]
 80013b8:	f012 0f80 	tst.w	r2, #128	; 0x80
 80013bc:	d003      	beq.n	80013c6 <_printf_i+0x8a>
 80013be:	1d1a      	adds	r2, r3, #4
 80013c0:	602a      	str	r2, [r5, #0]
 80013c2:	681d      	ldr	r5, [r3, #0]
 80013c4:	e005      	b.n	80013d2 <_printf_i+0x96>
 80013c6:	0651      	lsls	r1, r2, #25
 80013c8:	d5f9      	bpl.n	80013be <_printf_i+0x82>
 80013ca:	1d1a      	adds	r2, r3, #4
 80013cc:	602a      	str	r2, [r5, #0]
 80013ce:	f9b3 5000 	ldrsh.w	r5, [r3]
 80013d2:	2d00      	cmp	r5, #0
 80013d4:	da39      	bge.n	800144a <_printf_i+0x10e>
 80013d6:	232d      	movs	r3, #45	; 0x2d
 80013d8:	426d      	negs	r5, r5
 80013da:	f884 3043 	strb.w	r3, [r4, #67]	; 0x43
 80013de:	e034      	b.n	800144a <_printf_i+0x10e>
 80013e0:	6822      	ldr	r2, [r4, #0]
 80013e2:	682b      	ldr	r3, [r5, #0]
 80013e4:	f012 0f80 	tst.w	r2, #128	; 0x80
 80013e8:	d003      	beq.n	80013f2 <_printf_i+0xb6>
 80013ea:	1d1a      	adds	r2, r3, #4
 80013ec:	602a      	str	r2, [r5, #0]
 80013ee:	681d      	ldr	r5, [r3, #0]
 80013f0:	e004      	b.n	80013fc <_printf_i+0xc0>
 80013f2:	0652      	lsls	r2, r2, #25
 80013f4:	d5f9      	bpl.n	80013ea <_printf_i+0xae>
 80013f6:	1d1a      	adds	r2, r3, #4
 80013f8:	602a      	str	r2, [r5, #0]
 80013fa:	881d      	ldrh	r5, [r3, #0]
 80013fc:	7e23      	ldrb	r3, [r4, #24]
 80013fe:	4a57      	ldr	r2, [pc, #348]	; (800155c <_printf_i+0x220>)
 8001400:	2b6f      	cmp	r3, #111	; 0x6f
 8001402:	bf14      	ite	ne
 8001404:	230a      	movne	r3, #10
 8001406:	2308      	moveq	r3, #8
 8001408:	e01b      	b.n	8001442 <_printf_i+0x106>
 800140a:	2378      	movs	r3, #120	; 0x78
 800140c:	4a54      	ldr	r2, [pc, #336]	; (8001560 <_printf_i+0x224>)
 800140e:	f884 3045 	strb.w	r3, [r4, #69]	; 0x45
 8001412:	6823      	ldr	r3, [r4, #0]
 8001414:	6829      	ldr	r1, [r5, #0]
 8001416:	f013 0f80 	tst.w	r3, #128	; 0x80
 800141a:	f101 0604 	add.w	r6, r1, #4
 800141e:	602e      	str	r6, [r5, #0]
 8001420:	d001      	beq.n	8001426 <_printf_i+0xea>
 8001422:	680d      	ldr	r5, [r1, #0]
 8001424:	e002      	b.n	800142c <_printf_i+0xf0>
 8001426:	065f      	lsls	r7, r3, #25
 8001428:	d5fb      	bpl.n	8001422 <_printf_i+0xe6>
 800142a:	880d      	ldrh	r5, [r1, #0]
 800142c:	07de      	lsls	r6, r3, #31
 800142e:	bf44      	itt	mi
 8001430:	f043 0320 	orrmi.w	r3, r3, #32
 8001434:	6023      	strmi	r3, [r4, #0]
 8001436:	b91d      	cbnz	r5, 8001440 <_printf_i+0x104>
 8001438:	6823      	ldr	r3, [r4, #0]
 800143a:	f023 0320 	bic.w	r3, r3, #32
 800143e:	6023      	str	r3, [r4, #0]
 8001440:	2310      	movs	r3, #16
 8001442:	2100      	movs	r1, #0
 8001444:	f884 1043 	strb.w	r1, [r4, #67]	; 0x43
 8001448:	e001      	b.n	800144e <_printf_i+0x112>
 800144a:	4a44      	ldr	r2, [pc, #272]	; (800155c <_printf_i+0x220>)
 800144c:	230a      	movs	r3, #10
 800144e:	6866      	ldr	r6, [r4, #4]
 8001450:	2e00      	cmp	r6, #0
 8001452:	60a6      	str	r6, [r4, #8]
 8001454:	db03      	blt.n	800145e <_printf_i+0x122>
 8001456:	6821      	ldr	r1, [r4, #0]
 8001458:	f021 0104 	bic.w	r1, r1, #4
 800145c:	6021      	str	r1, [r4, #0]
 800145e:	b905      	cbnz	r5, 8001462 <_printf_i+0x126>
 8001460:	b16e      	cbz	r6, 800147e <_printf_i+0x142>
 8001462:	f104 0142 	add.w	r1, r4, #66	; 0x42
 8001466:	fbb5 f6f3 	udiv	r6, r5, r3
 800146a:	fb03 5516 	mls	r5, r3, r6, r5
 800146e:	5d55      	ldrb	r5, [r2, r5]
 8001470:	460f      	mov	r7, r1
 8001472:	f801 5901 	strb.w	r5, [r1], #-1
 8001476:	4635      	mov	r5, r6
 8001478:	2e00      	cmp	r6, #0
 800147a:	d1f4      	bne.n	8001466 <_printf_i+0x12a>
 800147c:	e000      	b.n	8001480 <_printf_i+0x144>
 800147e:	4607      	mov	r7, r0
 8001480:	2b08      	cmp	r3, #8
 8001482:	d10a      	bne.n	800149a <_printf_i+0x15e>
 8001484:	6823      	ldr	r3, [r4, #0]
 8001486:	07dd      	lsls	r5, r3, #31
 8001488:	d507      	bpl.n	800149a <_printf_i+0x15e>
 800148a:	6862      	ldr	r2, [r4, #4]
 800148c:	6923      	ldr	r3, [r4, #16]
 800148e:	429a      	cmp	r2, r3
 8001490:	dc03      	bgt.n	800149a <_printf_i+0x15e>
 8001492:	2330      	movs	r3, #48	; 0x30
 8001494:	f807 3c01 	strb.w	r3, [r7, #-1]
 8001498:	3f01      	subs	r7, #1
 800149a:	1bc0      	subs	r0, r0, r7
 800149c:	6120      	str	r0, [r4, #16]
 800149e:	e02c      	b.n	80014fa <_printf_i+0x1be>
 80014a0:	6809      	ldr	r1, [r1, #0]
 80014a2:	682b      	ldr	r3, [r5, #0]
 80014a4:	f011 0f80 	tst.w	r1, #128	; 0x80
 80014a8:	6962      	ldr	r2, [r4, #20]
 80014aa:	d004      	beq.n	80014b6 <_printf_i+0x17a>
 80014ac:	1d19      	adds	r1, r3, #4
 80014ae:	6029      	str	r1, [r5, #0]
 80014b0:	681b      	ldr	r3, [r3, #0]
 80014b2:	601a      	str	r2, [r3, #0]
 80014b4:	e005      	b.n	80014c2 <_printf_i+0x186>
 80014b6:	0649      	lsls	r1, r1, #25
 80014b8:	d5f8      	bpl.n	80014ac <_printf_i+0x170>
 80014ba:	1d19      	adds	r1, r3, #4
 80014bc:	6029      	str	r1, [r5, #0]
 80014be:	681b      	ldr	r3, [r3, #0]
 80014c0:	801a      	strh	r2, [r3, #0]
 80014c2:	2300      	movs	r3, #0
 80014c4:	6123      	str	r3, [r4, #16]
 80014c6:	4607      	mov	r7, r0
 80014c8:	e017      	b.n	80014fa <_printf_i+0x1be>
 80014ca:	682b      	ldr	r3, [r5, #0]
 80014cc:	1d1a      	adds	r2, r3, #4
 80014ce:	602a      	str	r2, [r5, #0]
 80014d0:	681f      	ldr	r7, [r3, #0]
 80014d2:	4638      	mov	r0, r7
 80014d4:	f000 fca5 	bl	8001e22 <strlen>
 80014d8:	6863      	ldr	r3, [r4, #4]
 80014da:	6120      	str	r0, [r4, #16]
 80014dc:	4298      	cmp	r0, r3
 80014de:	bf88      	it	hi
 80014e0:	6123      	strhi	r3, [r4, #16]
 80014e2:	6923      	ldr	r3, [r4, #16]
 80014e4:	6063      	str	r3, [r4, #4]
 80014e6:	e005      	b.n	80014f4 <_printf_i+0x1b8>
 80014e8:	f104 0742 	add.w	r7, r4, #66	; 0x42
 80014ec:	f884 6042 	strb.w	r6, [r4, #66]	; 0x42
 80014f0:	2301      	movs	r3, #1
 80014f2:	6123      	str	r3, [r4, #16]
 80014f4:	2300      	movs	r3, #0
 80014f6:	f884 3043 	strb.w	r3, [r4, #67]	; 0x43
 80014fa:	f8cd a000 	str.w	sl, [sp]
 80014fe:	4640      	mov	r0, r8
 8001500:	4621      	mov	r1, r4
 8001502:	aa03      	add	r2, sp, #12
 8001504:	464b      	mov	r3, r9
 8001506:	f7ff fea7 	bl	8001258 <_printf_common>
 800150a:	3001      	adds	r0, #1
 800150c:	d102      	bne.n	8001514 <_printf_i+0x1d8>
 800150e:	f04f 30ff 	mov.w	r0, #4294967295
 8001512:	e01f      	b.n	8001554 <_printf_i+0x218>
 8001514:	4640      	mov	r0, r8
 8001516:	4649      	mov	r1, r9
 8001518:	463a      	mov	r2, r7
 800151a:	6923      	ldr	r3, [r4, #16]
 800151c:	47d0      	blx	sl
 800151e:	3001      	adds	r0, #1
 8001520:	d0f5      	beq.n	800150e <_printf_i+0x1d2>
 8001522:	6823      	ldr	r3, [r4, #0]
 8001524:	079b      	lsls	r3, r3, #30
 8001526:	d405      	bmi.n	8001534 <_printf_i+0x1f8>
 8001528:	68e0      	ldr	r0, [r4, #12]
 800152a:	9b03      	ldr	r3, [sp, #12]
 800152c:	4298      	cmp	r0, r3
 800152e:	bfb8      	it	lt
 8001530:	4618      	movlt	r0, r3
 8001532:	e00f      	b.n	8001554 <_printf_i+0x218>
 8001534:	2500      	movs	r5, #0
 8001536:	68e2      	ldr	r2, [r4, #12]
 8001538:	9b03      	ldr	r3, [sp, #12]
 800153a:	1ad3      	subs	r3, r2, r3
 800153c:	429d      	cmp	r5, r3
 800153e:	daf3      	bge.n	8001528 <_printf_i+0x1ec>
 8001540:	4640      	mov	r0, r8
 8001542:	4649      	mov	r1, r9
 8001544:	f104 0219 	add.w	r2, r4, #25
 8001548:	2301      	movs	r3, #1
 800154a:	47d0      	blx	sl
 800154c:	3001      	adds	r0, #1
 800154e:	d0de      	beq.n	800150e <_printf_i+0x1d2>
 8001550:	3501      	adds	r5, #1
 8001552:	e7f0      	b.n	8001536 <_printf_i+0x1fa>
 8001554:	b004      	add	sp, #16
 8001556:	e8bd 87f0 	ldmia.w	sp!, {r4, r5, r6, r7, r8, r9, sl, pc}
 800155a:	bf00      	nop
 800155c:	08001f2d 	stmdaeq	r0, {r0, r2, r3, r5, r8, r9, sl, fp, ip}
 8001560:	08001f3e 	stmdaeq	r0, {r1, r2, r3, r4, r5, r8, r9, sl, fp, ip}

08001564 <__swbuf_r>:
 8001564:	b570      	push	{r4, r5, r6, lr}
 8001566:	460e      	mov	r6, r1
 8001568:	4614      	mov	r4, r2
 800156a:	4605      	mov	r5, r0
 800156c:	b118      	cbz	r0, 8001576 <__swbuf_r+0x12>
 800156e:	6983      	ldr	r3, [r0, #24]
 8001570:	b90b      	cbnz	r3, 8001576 <__swbuf_r+0x12>
 8001572:	f000 f9cd 	bl	8001910 <__sinit>
 8001576:	4b22      	ldr	r3, [pc, #136]	; (8001600 <__swbuf_r+0x9c>)
 8001578:	429c      	cmp	r4, r3
 800157a:	d101      	bne.n	8001580 <__swbuf_r+0x1c>
 800157c:	686c      	ldr	r4, [r5, #4]
 800157e:	e008      	b.n	8001592 <__swbuf_r+0x2e>
 8001580:	4b20      	ldr	r3, [pc, #128]	; (8001604 <__swbuf_r+0xa0>)
 8001582:	429c      	cmp	r4, r3
 8001584:	d101      	bne.n	800158a <__swbuf_r+0x26>
 8001586:	68ac      	ldr	r4, [r5, #8]
 8001588:	e003      	b.n	8001592 <__swbuf_r+0x2e>
 800158a:	4b1f      	ldr	r3, [pc, #124]	; (8001608 <__swbuf_r+0xa4>)
 800158c:	429c      	cmp	r4, r3
 800158e:	bf08      	it	eq
 8001590:	68ec      	ldreq	r4, [r5, #12]
 8001592:	69a3      	ldr	r3, [r4, #24]
 8001594:	60a3      	str	r3, [r4, #8]
 8001596:	89a3      	ldrh	r3, [r4, #12]
 8001598:	071a      	lsls	r2, r3, #28
 800159a:	d509      	bpl.n	80015b0 <__swbuf_r+0x4c>
 800159c:	6923      	ldr	r3, [r4, #16]
 800159e:	b13b      	cbz	r3, 80015b0 <__swbuf_r+0x4c>
 80015a0:	6923      	ldr	r3, [r4, #16]
 80015a2:	6820      	ldr	r0, [r4, #0]
 80015a4:	b2f6      	uxtb	r6, r6
 80015a6:	1ac0      	subs	r0, r0, r3
 80015a8:	6963      	ldr	r3, [r4, #20]
 80015aa:	4298      	cmp	r0, r3
 80015ac:	db0f      	blt.n	80015ce <__swbuf_r+0x6a>
 80015ae:	e008      	b.n	80015c2 <__swbuf_r+0x5e>
 80015b0:	4628      	mov	r0, r5
 80015b2:	4621      	mov	r1, r4
 80015b4:	f000 f82a 	bl	800160c <__swsetup_r>
 80015b8:	2800      	cmp	r0, #0
 80015ba:	d0f1      	beq.n	80015a0 <__swbuf_r+0x3c>
 80015bc:	f04f 30ff 	mov.w	r0, #4294967295
 80015c0:	bd70      	pop	{r4, r5, r6, pc}
 80015c2:	4628      	mov	r0, r5
 80015c4:	4621      	mov	r1, r4
 80015c6:	f000 f913 	bl	80017f0 <_fflush_r>
 80015ca:	2800      	cmp	r0, #0
 80015cc:	d1f6      	bne.n	80015bc <__swbuf_r+0x58>
 80015ce:	68a3      	ldr	r3, [r4, #8]
 80015d0:	3001      	adds	r0, #1
 80015d2:	3b01      	subs	r3, #1
 80015d4:	60a3      	str	r3, [r4, #8]
 80015d6:	6823      	ldr	r3, [r4, #0]
 80015d8:	1c5a      	adds	r2, r3, #1
 80015da:	6022      	str	r2, [r4, #0]
 80015dc:	701e      	strb	r6, [r3, #0]
 80015de:	6963      	ldr	r3, [r4, #20]
 80015e0:	4298      	cmp	r0, r3
 80015e2:	d004      	beq.n	80015ee <__swbuf_r+0x8a>
 80015e4:	89a3      	ldrh	r3, [r4, #12]
 80015e6:	07db      	lsls	r3, r3, #31
 80015e8:	d507      	bpl.n	80015fa <__swbuf_r+0x96>
 80015ea:	2e0a      	cmp	r6, #10
 80015ec:	d105      	bne.n	80015fa <__swbuf_r+0x96>
 80015ee:	4628      	mov	r0, r5
 80015f0:	4621      	mov	r1, r4
 80015f2:	f000 f8fd 	bl	80017f0 <_fflush_r>
 80015f6:	2800      	cmp	r0, #0
 80015f8:	d1e0      	bne.n	80015bc <__swbuf_r+0x58>
 80015fa:	4630      	mov	r0, r6
 80015fc:	bd70      	pop	{r4, r5, r6, pc}
 80015fe:	bf00      	nop
 8001600:	08001f50 	stmdaeq	r0, {r4, r6, r8, r9, sl, fp, ip}
 8001604:	08001f70 	stmdaeq	r0, {r4, r5, r6, r8, r9, sl, fp, ip}
 8001608:	08001f90 	stmdaeq	r0, {r4, r7, r8, r9, sl, fp, ip}

0800160c <__swsetup_r>:
 800160c:	4b32      	ldr	r3, [pc, #200]	; (80016d8 <__swsetup_r+0xcc>)
 800160e:	b570      	push	{r4, r5, r6, lr}
 8001610:	681d      	ldr	r5, [r3, #0]
 8001612:	4606      	mov	r6, r0
 8001614:	460c      	mov	r4, r1
 8001616:	b125      	cbz	r5, 8001622 <__swsetup_r+0x16>
 8001618:	69ab      	ldr	r3, [r5, #24]
 800161a:	b913      	cbnz	r3, 8001622 <__swsetup_r+0x16>
 800161c:	4628      	mov	r0, r5
 800161e:	f000 f977 	bl	8001910 <__sinit>
 8001622:	4b2e      	ldr	r3, [pc, #184]	; (80016dc <__swsetup_r+0xd0>)
 8001624:	429c      	cmp	r4, r3
 8001626:	d101      	bne.n	800162c <__swsetup_r+0x20>
 8001628:	686c      	ldr	r4, [r5, #4]
 800162a:	e008      	b.n	800163e <__swsetup_r+0x32>
 800162c:	4b2c      	ldr	r3, [pc, #176]	; (80016e0 <__swsetup_r+0xd4>)
 800162e:	429c      	cmp	r4, r3
 8001630:	d101      	bne.n	8001636 <__swsetup_r+0x2a>
 8001632:	68ac      	ldr	r4, [r5, #8]
 8001634:	e003      	b.n	800163e <__swsetup_r+0x32>
 8001636:	4b2b      	ldr	r3, [pc, #172]	; (80016e4 <__swsetup_r+0xd8>)
 8001638:	429c      	cmp	r4, r3
 800163a:	bf08      	it	eq
 800163c:	68ec      	ldreq	r4, [r5, #12]
 800163e:	89a2      	ldrh	r2, [r4, #12]
 8001640:	b293      	uxth	r3, r2
 8001642:	0719      	lsls	r1, r3, #28
 8001644:	d420      	bmi.n	8001688 <__swsetup_r+0x7c>
 8001646:	06dd      	lsls	r5, r3, #27
 8001648:	d405      	bmi.n	8001656 <__swsetup_r+0x4a>
 800164a:	2309      	movs	r3, #9
 800164c:	f042 0240 	orr.w	r2, r2, #64	; 0x40
 8001650:	6033      	str	r3, [r6, #0]
 8001652:	81a2      	strh	r2, [r4, #12]
 8001654:	e03b      	b.n	80016ce <__swsetup_r+0xc2>
 8001656:	0758      	lsls	r0, r3, #29
 8001658:	d512      	bpl.n	8001680 <__swsetup_r+0x74>
 800165a:	6b61      	ldr	r1, [r4, #52]	; 0x34
 800165c:	b141      	cbz	r1, 8001670 <__swsetup_r+0x64>
 800165e:	f104 0344 	add.w	r3, r4, #68	; 0x44
 8001662:	4299      	cmp	r1, r3
 8001664:	d002      	beq.n	800166c <__swsetup_r+0x60>
 8001666:	4630      	mov	r0, r6
 8001668:	f000 fa60 	bl	8001b2c <_free_r>
 800166c:	2300      	movs	r3, #0
 800166e:	6363      	str	r3, [r4, #52]	; 0x34
 8001670:	89a3      	ldrh	r3, [r4, #12]
 8001672:	f023 0324 	bic.w	r3, r3, #36	; 0x24
 8001676:	81a3      	strh	r3, [r4, #12]
 8001678:	2300      	movs	r3, #0
 800167a:	6063      	str	r3, [r4, #4]
 800167c:	6923      	ldr	r3, [r4, #16]
 800167e:	6023      	str	r3, [r4, #0]
 8001680:	89a3      	ldrh	r3, [r4, #12]
 8001682:	f043 0308 	orr.w	r3, r3, #8
 8001686:	81a3      	strh	r3, [r4, #12]
 8001688:	6923      	ldr	r3, [r4, #16]
 800168a:	b94b      	cbnz	r3, 80016a0 <__swsetup_r+0x94>
 800168c:	89a3      	ldrh	r3, [r4, #12]
 800168e:	f403 7320 	and.w	r3, r3, #640	; 0x280
 8001692:	f5b3 7f00 	cmp.w	r3, #512	; 0x200
 8001696:	d003      	beq.n	80016a0 <__swsetup_r+0x94>
 8001698:	4630      	mov	r0, r6
 800169a:	4621      	mov	r1, r4
 800169c:	f000 f9dc 	bl	8001a58 <__smakebuf_r>
 80016a0:	89a3      	ldrh	r3, [r4, #12]
 80016a2:	f013 0201 	ands.w	r2, r3, #1
 80016a6:	d005      	beq.n	80016b4 <__swsetup_r+0xa8>
 80016a8:	2200      	movs	r2, #0
 80016aa:	60a2      	str	r2, [r4, #8]
 80016ac:	6962      	ldr	r2, [r4, #20]
 80016ae:	4252      	negs	r2, r2
 80016b0:	61a2      	str	r2, [r4, #24]
 80016b2:	e003      	b.n	80016bc <__swsetup_r+0xb0>
 80016b4:	0799      	lsls	r1, r3, #30
 80016b6:	bf58      	it	pl
 80016b8:	6962      	ldrpl	r2, [r4, #20]
 80016ba:	60a2      	str	r2, [r4, #8]
 80016bc:	6922      	ldr	r2, [r4, #16]
 80016be:	b94a      	cbnz	r2, 80016d4 <__swsetup_r+0xc8>
 80016c0:	f003 0080 	and.w	r0, r3, #128	; 0x80
 80016c4:	b280      	uxth	r0, r0
 80016c6:	b130      	cbz	r0, 80016d6 <__swsetup_r+0xca>
 80016c8:	f043 0340 	orr.w	r3, r3, #64	; 0x40
 80016cc:	81a3      	strh	r3, [r4, #12]
 80016ce:	f04f 30ff 	mov.w	r0, #4294967295
 80016d2:	bd70      	pop	{r4, r5, r6, pc}
 80016d4:	2000      	movs	r0, #0
 80016d6:	bd70      	pop	{r4, r5, r6, pc}
 80016d8:	20000088 	andcs	r0, r0, r8, lsl #1
 80016dc:	08001f50 	stmdaeq	r0, {r4, r6, r8, r9, sl, fp, ip}
 80016e0:	08001f70 	stmdaeq	r0, {r4, r5, r6, r8, r9, sl, fp, ip}
 80016e4:	08001f90 	stmdaeq	r0, {r4, r7, r8, r9, sl, fp, ip}

080016e8 <__sflush_r>:
 80016e8:	898a      	ldrh	r2, [r1, #12]
 80016ea:	e92d 41f0 	stmdb	sp!, {r4, r5, r6, r7, r8, lr}
 80016ee:	4605      	mov	r5, r0
 80016f0:	0710      	lsls	r0, r2, #28
 80016f2:	460c      	mov	r4, r1
 80016f4:	d457      	bmi.n	80017a6 <__sflush_r+0xbe>
 80016f6:	684b      	ldr	r3, [r1, #4]
 80016f8:	2b00      	cmp	r3, #0
 80016fa:	dc02      	bgt.n	8001702 <__sflush_r+0x1a>
 80016fc:	6c0b      	ldr	r3, [r1, #64]	; 0x40
 80016fe:	2b00      	cmp	r3, #0
 8001700:	dd18      	ble.n	8001734 <__sflush_r+0x4c>
 8001702:	6ae6      	ldr	r6, [r4, #44]	; 0x2c
 8001704:	b1b6      	cbz	r6, 8001734 <__sflush_r+0x4c>
 8001706:	f402 5280 	and.w	r2, r2, #4096	; 0x1000
 800170a:	2300      	movs	r3, #0
 800170c:	b292      	uxth	r2, r2
 800170e:	682f      	ldr	r7, [r5, #0]
 8001710:	602b      	str	r3, [r5, #0]
 8001712:	b10a      	cbz	r2, 8001718 <__sflush_r+0x30>
 8001714:	6d62      	ldr	r2, [r4, #84]	; 0x54
 8001716:	e010      	b.n	800173a <__sflush_r+0x52>
 8001718:	6a21      	ldr	r1, [r4, #32]
 800171a:	4628      	mov	r0, r5
 800171c:	2301      	movs	r3, #1
 800171e:	47b0      	blx	r6
 8001720:	1c41      	adds	r1, r0, #1
 8001722:	4602      	mov	r2, r0
 8001724:	d109      	bne.n	800173a <__sflush_r+0x52>
 8001726:	682b      	ldr	r3, [r5, #0]
 8001728:	b13b      	cbz	r3, 800173a <__sflush_r+0x52>
 800172a:	2b1d      	cmp	r3, #29
 800172c:	d001      	beq.n	8001732 <__sflush_r+0x4a>
 800172e:	2b16      	cmp	r3, #22
 8001730:	d146      	bne.n	80017c0 <__sflush_r+0xd8>
 8001732:	602f      	str	r7, [r5, #0]
 8001734:	2000      	movs	r0, #0
 8001736:	e8bd 81f0 	ldmia.w	sp!, {r4, r5, r6, r7, r8, pc}
 800173a:	89a3      	ldrh	r3, [r4, #12]
 800173c:	075b      	lsls	r3, r3, #29
 800173e:	d505      	bpl.n	800174c <__sflush_r+0x64>
 8001740:	6863      	ldr	r3, [r4, #4]
 8001742:	1ad2      	subs	r2, r2, r3
 8001744:	6b63      	ldr	r3, [r4, #52]	; 0x34
 8001746:	b10b      	cbz	r3, 800174c <__sflush_r+0x64>
 8001748:	6c23      	ldr	r3, [r4, #64]	; 0x40
 800174a:	1ad2      	subs	r2, r2, r3
 800174c:	6ae6      	ldr	r6, [r4, #44]	; 0x2c
 800174e:	4628      	mov	r0, r5
 8001750:	6a21      	ldr	r1, [r4, #32]
 8001752:	2300      	movs	r3, #0
 8001754:	47b0      	blx	r6
 8001756:	1c46      	adds	r6, r0, #1
 8001758:	89a2      	ldrh	r2, [r4, #12]
 800175a:	d105      	bne.n	8001768 <__sflush_r+0x80>
 800175c:	682b      	ldr	r3, [r5, #0]
 800175e:	b11b      	cbz	r3, 8001768 <__sflush_r+0x80>
 8001760:	2b1d      	cmp	r3, #29
 8001762:	d001      	beq.n	8001768 <__sflush_r+0x80>
 8001764:	2b16      	cmp	r3, #22
 8001766:	d119      	bne.n	800179c <__sflush_r+0xb4>
 8001768:	2300      	movs	r3, #0
 800176a:	6063      	str	r3, [r4, #4]
 800176c:	6923      	ldr	r3, [r4, #16]
 800176e:	04d1      	lsls	r1, r2, #19
 8001770:	6023      	str	r3, [r4, #0]
 8001772:	d504      	bpl.n	800177e <__sflush_r+0x96>
 8001774:	1c42      	adds	r2, r0, #1
 8001776:	d101      	bne.n	800177c <__sflush_r+0x94>
 8001778:	682b      	ldr	r3, [r5, #0]
 800177a:	b903      	cbnz	r3, 800177e <__sflush_r+0x96>
 800177c:	6560      	str	r0, [r4, #84]	; 0x54
 800177e:	6b61      	ldr	r1, [r4, #52]	; 0x34
 8001780:	602f      	str	r7, [r5, #0]
 8001782:	2900      	cmp	r1, #0
 8001784:	d0d6      	beq.n	8001734 <__sflush_r+0x4c>
 8001786:	f104 0344 	add.w	r3, r4, #68	; 0x44
 800178a:	4299      	cmp	r1, r3
 800178c:	d002      	beq.n	8001794 <__sflush_r+0xac>
 800178e:	4628      	mov	r0, r5
 8001790:	f000 f9cc 	bl	8001b2c <_free_r>
 8001794:	2000      	movs	r0, #0
 8001796:	6360      	str	r0, [r4, #52]	; 0x34
 8001798:	e8bd 81f0 	ldmia.w	sp!, {r4, r5, r6, r7, r8, pc}
 800179c:	f042 0240 	orr.w	r2, r2, #64	; 0x40
 80017a0:	81a2      	strh	r2, [r4, #12]
 80017a2:	e8bd 81f0 	ldmia.w	sp!, {r4, r5, r6, r7, r8, pc}
 80017a6:	690e      	ldr	r6, [r1, #16]
 80017a8:	2e00      	cmp	r6, #0
 80017aa:	d0c3      	beq.n	8001734 <__sflush_r+0x4c>
 80017ac:	680b      	ldr	r3, [r1, #0]
 80017ae:	600e      	str	r6, [r1, #0]
 80017b0:	ebc6 0803 	rsb	r8, r6, r3
 80017b4:	0793      	lsls	r3, r2, #30
 80017b6:	bf0c      	ite	eq
 80017b8:	694b      	ldreq	r3, [r1, #20]
 80017ba:	2300      	movne	r3, #0
 80017bc:	608b      	str	r3, [r1, #8]
 80017be:	e012      	b.n	80017e6 <__sflush_r+0xfe>
 80017c0:	89a3      	ldrh	r3, [r4, #12]
 80017c2:	f04f 30ff 	mov.w	r0, #4294967295
 80017c6:	f043 0340 	orr.w	r3, r3, #64	; 0x40
 80017ca:	81a3      	strh	r3, [r4, #12]
 80017cc:	e8bd 81f0 	ldmia.w	sp!, {r4, r5, r6, r7, r8, pc}
 80017d0:	6aa7      	ldr	r7, [r4, #40]	; 0x28
 80017d2:	4628      	mov	r0, r5
 80017d4:	6a21      	ldr	r1, [r4, #32]
 80017d6:	4632      	mov	r2, r6
 80017d8:	4643      	mov	r3, r8
 80017da:	47b8      	blx	r7
 80017dc:	2800      	cmp	r0, #0
 80017de:	ddef      	ble.n	80017c0 <__sflush_r+0xd8>
 80017e0:	4406      	add	r6, r0
 80017e2:	ebc0 0808 	rsb	r8, r0, r8
 80017e6:	f1b8 0f00 	cmp.w	r8, #0
 80017ea:	dcf1      	bgt.n	80017d0 <__sflush_r+0xe8>
 80017ec:	e7a2      	b.n	8001734 <__sflush_r+0x4c>
	...

080017f0 <_fflush_r>:
 80017f0:	b538      	push	{r3, r4, r5, lr}
 80017f2:	690b      	ldr	r3, [r1, #16]
 80017f4:	4605      	mov	r5, r0
 80017f6:	460c      	mov	r4, r1
 80017f8:	b1db      	cbz	r3, 8001832 <_fflush_r+0x42>
 80017fa:	b118      	cbz	r0, 8001804 <_fflush_r+0x14>
 80017fc:	6983      	ldr	r3, [r0, #24]
 80017fe:	b90b      	cbnz	r3, 8001804 <_fflush_r+0x14>
 8001800:	f000 f886 	bl	8001910 <__sinit>
 8001804:	4b0c      	ldr	r3, [pc, #48]	; (8001838 <_fflush_r+0x48>)
 8001806:	429c      	cmp	r4, r3
 8001808:	d101      	bne.n	800180e <_fflush_r+0x1e>
 800180a:	686c      	ldr	r4, [r5, #4]
 800180c:	e008      	b.n	8001820 <_fflush_r+0x30>
 800180e:	4b0b      	ldr	r3, [pc, #44]	; (800183c <_fflush_r+0x4c>)
 8001810:	429c      	cmp	r4, r3
 8001812:	d101      	bne.n	8001818 <_fflush_r+0x28>
 8001814:	68ac      	ldr	r4, [r5, #8]
 8001816:	e003      	b.n	8001820 <_fflush_r+0x30>
 8001818:	4b09      	ldr	r3, [pc, #36]	; (8001840 <_fflush_r+0x50>)
 800181a:	429c      	cmp	r4, r3
 800181c:	bf08      	it	eq
 800181e:	68ec      	ldreq	r4, [r5, #12]
 8001820:	f9b4 300c 	ldrsh.w	r3, [r4, #12]
 8001824:	b12b      	cbz	r3, 8001832 <_fflush_r+0x42>
 8001826:	4628      	mov	r0, r5
 8001828:	4621      	mov	r1, r4
 800182a:	e8bd 4038 	ldmia.w	sp!, {r3, r4, r5, lr}
 800182e:	f7ff bf5b 	b.w	80016e8 <__sflush_r>
 8001832:	2000      	movs	r0, #0
 8001834:	bd38      	pop	{r3, r4, r5, pc}
 8001836:	bf00      	nop
 8001838:	08001f50 	stmdaeq	r0, {r4, r6, r8, r9, sl, fp, ip}
 800183c:	08001f70 	stmdaeq	r0, {r4, r5, r6, r8, r9, sl, fp, ip}
 8001840:	08001f90 	stmdaeq	r0, {r4, r7, r8, r9, sl, fp, ip}

08001844 <fflush>:
 8001844:	4601      	mov	r1, r0
 8001846:	b920      	cbnz	r0, 8001852 <fflush+0xe>
 8001848:	4b04      	ldr	r3, [pc, #16]	; (800185c <fflush+0x18>)
 800184a:	4905      	ldr	r1, [pc, #20]	; (8001860 <fflush+0x1c>)
 800184c:	6818      	ldr	r0, [r3, #0]
 800184e:	f000 b8e5 	b.w	8001a1c <_fwalk_reent>
 8001852:	4b04      	ldr	r3, [pc, #16]	; (8001864 <fflush+0x20>)
 8001854:	6818      	ldr	r0, [r3, #0]
 8001856:	f7ff bfcb 	b.w	80017f0 <_fflush_r>
 800185a:	bf00      	nop
 800185c:	08001f18 	stmdaeq	r0, {r3, r4, r8, r9, sl, fp, ip}
 8001860:	080017f1 	stmdaeq	r0, {r0, r4, r5, r6, r7, r8, r9, sl, ip}
 8001864:	20000088 	andcs	r0, r0, r8, lsl #1

08001868 <_cleanup_r>:
 8001868:	b5f8      	push	{r3, r4, r5, r6, r7, lr}
 800186a:	4607      	mov	r7, r0
 800186c:	f100 0448 	add.w	r4, r0, #72	; 0x48
 8001870:	b194      	cbz	r4, 8001898 <_cleanup_r+0x30>
 8001872:	68a5      	ldr	r5, [r4, #8]
 8001874:	6866      	ldr	r6, [r4, #4]
 8001876:	3e01      	subs	r6, #1
 8001878:	d40c      	bmi.n	8001894 <_cleanup_r+0x2c>
 800187a:	89ab      	ldrh	r3, [r5, #12]
 800187c:	2b01      	cmp	r3, #1
 800187e:	d907      	bls.n	8001890 <_cleanup_r+0x28>
 8001880:	f9b5 300e 	ldrsh.w	r3, [r5, #14]
 8001884:	3301      	adds	r3, #1
 8001886:	d003      	beq.n	8001890 <_cleanup_r+0x28>
 8001888:	4638      	mov	r0, r7
 800188a:	4629      	mov	r1, r5
 800188c:	f7ff ffb0 	bl	80017f0 <_fflush_r>
 8001890:	3568      	adds	r5, #104	; 0x68
 8001892:	e7f0      	b.n	8001876 <_cleanup_r+0xe>
 8001894:	6824      	ldr	r4, [r4, #0]
 8001896:	e7eb      	b.n	8001870 <_cleanup_r+0x8>
 8001898:	bdf8      	pop	{r3, r4, r5, r6, r7, pc}
	...

0800189c <std.isra.0>:
 800189c:	2300      	movs	r3, #0
 800189e:	b510      	push	{r4, lr}
 80018a0:	4604      	mov	r4, r0
 80018a2:	6003      	str	r3, [r0, #0]
 80018a4:	6043      	str	r3, [r0, #4]
 80018a6:	6083      	str	r3, [r0, #8]
 80018a8:	8181      	strh	r1, [r0, #12]
 80018aa:	6643      	str	r3, [r0, #100]	; 0x64
 80018ac:	81c2      	strh	r2, [r0, #14]
 80018ae:	6103      	str	r3, [r0, #16]
 80018b0:	6143      	str	r3, [r0, #20]
 80018b2:	6183      	str	r3, [r0, #24]
 80018b4:	4619      	mov	r1, r3
 80018b6:	305c      	adds	r0, #92	; 0x5c
 80018b8:	2208      	movs	r2, #8
 80018ba:	f000 f92f 	bl	8001b1c <memset>
 80018be:	4b05      	ldr	r3, [pc, #20]	; (80018d4 <std.isra.0+0x38>)
 80018c0:	6224      	str	r4, [r4, #32]
 80018c2:	6263      	str	r3, [r4, #36]	; 0x24
 80018c4:	4b04      	ldr	r3, [pc, #16]	; (80018d8 <std.isra.0+0x3c>)
 80018c6:	62a3      	str	r3, [r4, #40]	; 0x28
 80018c8:	4b04      	ldr	r3, [pc, #16]	; (80018dc <std.isra.0+0x40>)
 80018ca:	62e3      	str	r3, [r4, #44]	; 0x2c
 80018cc:	4b04      	ldr	r3, [pc, #16]	; (80018e0 <std.isra.0+0x44>)
 80018ce:	6323      	str	r3, [r4, #48]	; 0x30
 80018d0:	bd10      	pop	{r4, pc}
 80018d2:	bf00      	nop
 80018d4:	08001d9d 	stmdaeq	r0, {r0, r2, r3, r4, r7, r8, sl, fp, ip}
 80018d8:	08001dbf 	stmdaeq	r0, {r0, r1, r2, r3, r4, r5, r7, r8, sl, fp, ip}
 80018dc:	08001df7 	stmdaeq	r0, {r0, r1, r2, r4, r5, r6, r7, r8, sl, fp, ip}
 80018e0:	08001e1b 	stmdaeq	r0, {r0, r1, r3, r4, r9, sl, fp, ip}

080018e4 <__sfmoreglue>:
 80018e4:	b570      	push	{r4, r5, r6, lr}
 80018e6:	1e4b      	subs	r3, r1, #1
 80018e8:	2568      	movs	r5, #104	; 0x68
 80018ea:	435d      	muls	r5, r3
 80018ec:	460e      	mov	r6, r1
 80018ee:	f105 0174 	add.w	r1, r5, #116	; 0x74
 80018f2:	f000 f95f 	bl	8001bb4 <_malloc_r>
 80018f6:	4604      	mov	r4, r0
 80018f8:	b140      	cbz	r0, 800190c <__sfmoreglue+0x28>
 80018fa:	2100      	movs	r1, #0
 80018fc:	e880 0042 	stmia.w	r0, {r1, r6}
 8001900:	300c      	adds	r0, #12
 8001902:	60a0      	str	r0, [r4, #8]
 8001904:	f105 0268 	add.w	r2, r5, #104	; 0x68
 8001908:	f000 f908 	bl	8001b1c <memset>
 800190c:	4620      	mov	r0, r4
 800190e:	bd70      	pop	{r4, r5, r6, pc}

08001910 <__sinit>:
 8001910:	6983      	ldr	r3, [r0, #24]
 8001912:	b510      	push	{r4, lr}
 8001914:	4604      	mov	r4, r0
 8001916:	bb33      	cbnz	r3, 8001966 <__sinit+0x56>
 8001918:	6483      	str	r3, [r0, #72]	; 0x48
 800191a:	64c3      	str	r3, [r0, #76]	; 0x4c
 800191c:	6503      	str	r3, [r0, #80]	; 0x50
 800191e:	4b12      	ldr	r3, [pc, #72]	; (8001968 <__sinit+0x58>)
 8001920:	4a12      	ldr	r2, [pc, #72]	; (800196c <__sinit+0x5c>)
 8001922:	681b      	ldr	r3, [r3, #0]
 8001924:	6282      	str	r2, [r0, #40]	; 0x28
 8001926:	4298      	cmp	r0, r3
 8001928:	bf04      	itt	eq
 800192a:	2301      	moveq	r3, #1
 800192c:	6183      	streq	r3, [r0, #24]
 800192e:	f000 f81f 	bl	8001970 <__sfp>
 8001932:	6060      	str	r0, [r4, #4]
 8001934:	4620      	mov	r0, r4
 8001936:	f000 f81b 	bl	8001970 <__sfp>
 800193a:	60a0      	str	r0, [r4, #8]
 800193c:	4620      	mov	r0, r4
 800193e:	f000 f817 	bl	8001970 <__sfp>
 8001942:	2104      	movs	r1, #4
 8001944:	60e0      	str	r0, [r4, #12]
 8001946:	2200      	movs	r2, #0
 8001948:	6860      	ldr	r0, [r4, #4]
 800194a:	f7ff ffa7 	bl	800189c <std.isra.0>
 800194e:	68a0      	ldr	r0, [r4, #8]
 8001950:	2109      	movs	r1, #9
 8001952:	2201      	movs	r2, #1
 8001954:	f7ff ffa2 	bl	800189c <std.isra.0>
 8001958:	68e0      	ldr	r0, [r4, #12]
 800195a:	2112      	movs	r1, #18
 800195c:	2202      	movs	r2, #2
 800195e:	f7ff ff9d 	bl	800189c <std.isra.0>
 8001962:	2301      	movs	r3, #1
 8001964:	61a3      	str	r3, [r4, #24]
 8001966:	bd10      	pop	{r4, pc}
 8001968:	08001f18 	stmdaeq	r0, {r3, r4, r8, r9, sl, fp, ip}
 800196c:	08001869 	stmdaeq	r0, {r0, r3, r5, r6, fp, ip}

08001970 <__sfp>:
 8001970:	b5f8      	push	{r3, r4, r5, r6, r7, lr}
 8001972:	4b1b      	ldr	r3, [pc, #108]	; (80019e0 <__sfp+0x70>)
 8001974:	4607      	mov	r7, r0
 8001976:	681e      	ldr	r6, [r3, #0]
 8001978:	69b3      	ldr	r3, [r6, #24]
 800197a:	b913      	cbnz	r3, 8001982 <__sfp+0x12>
 800197c:	4630      	mov	r0, r6
 800197e:	f7ff ffc7 	bl	8001910 <__sinit>
 8001982:	3648      	adds	r6, #72	; 0x48
 8001984:	68b4      	ldr	r4, [r6, #8]
 8001986:	6873      	ldr	r3, [r6, #4]
 8001988:	3b01      	subs	r3, #1
 800198a:	d404      	bmi.n	8001996 <__sfp+0x26>
 800198c:	f9b4 500c 	ldrsh.w	r5, [r4, #12]
 8001990:	b175      	cbz	r5, 80019b0 <__sfp+0x40>
 8001992:	3468      	adds	r4, #104	; 0x68
 8001994:	e7f8      	b.n	8001988 <__sfp+0x18>
 8001996:	6833      	ldr	r3, [r6, #0]
 8001998:	b92b      	cbnz	r3, 80019a6 <__sfp+0x36>
 800199a:	4638      	mov	r0, r7
 800199c:	2104      	movs	r1, #4
 800199e:	f7ff ffa1 	bl	80018e4 <__sfmoreglue>
 80019a2:	6030      	str	r0, [r6, #0]
 80019a4:	b108      	cbz	r0, 80019aa <__sfp+0x3a>
 80019a6:	6836      	ldr	r6, [r6, #0]
 80019a8:	e7ec      	b.n	8001984 <__sfp+0x14>
 80019aa:	230c      	movs	r3, #12
 80019ac:	603b      	str	r3, [r7, #0]
 80019ae:	bdf8      	pop	{r3, r4, r5, r6, r7, pc}
 80019b0:	f64f 73ff 	movw	r3, #65535	; 0xffff
 80019b4:	81e3      	strh	r3, [r4, #14]
 80019b6:	2301      	movs	r3, #1
 80019b8:	81a3      	strh	r3, [r4, #12]
 80019ba:	6665      	str	r5, [r4, #100]	; 0x64
 80019bc:	6025      	str	r5, [r4, #0]
 80019be:	60a5      	str	r5, [r4, #8]
 80019c0:	6065      	str	r5, [r4, #4]
 80019c2:	6125      	str	r5, [r4, #16]
 80019c4:	6165      	str	r5, [r4, #20]
 80019c6:	61a5      	str	r5, [r4, #24]
 80019c8:	f104 005c 	add.w	r0, r4, #92	; 0x5c
 80019cc:	4629      	mov	r1, r5
 80019ce:	2208      	movs	r2, #8
 80019d0:	f000 f8a4 	bl	8001b1c <memset>
 80019d4:	6365      	str	r5, [r4, #52]	; 0x34
 80019d6:	63a5      	str	r5, [r4, #56]	; 0x38
 80019d8:	64a5      	str	r5, [r4, #72]	; 0x48
 80019da:	64e5      	str	r5, [r4, #76]	; 0x4c
 80019dc:	4620      	mov	r0, r4
 80019de:	bdf8      	pop	{r3, r4, r5, r6, r7, pc}
 80019e0:	08001f18 	stmdaeq	r0, {r3, r4, r8, r9, sl, fp, ip}

080019e4 <_fwalk>:
 80019e4:	e92d 41f0 	stmdb	sp!, {r4, r5, r6, r7, r8, lr}
 80019e8:	4688      	mov	r8, r1
 80019ea:	f100 0448 	add.w	r4, r0, #72	; 0x48
 80019ee:	2600      	movs	r6, #0
 80019f0:	b18c      	cbz	r4, 8001a16 <_fwalk+0x32>
 80019f2:	68a5      	ldr	r5, [r4, #8]
 80019f4:	6867      	ldr	r7, [r4, #4]
 80019f6:	3f01      	subs	r7, #1
 80019f8:	d40b      	bmi.n	8001a12 <_fwalk+0x2e>
 80019fa:	89ab      	ldrh	r3, [r5, #12]
 80019fc:	2b01      	cmp	r3, #1
 80019fe:	d906      	bls.n	8001a0e <_fwalk+0x2a>
 8001a00:	f9b5 300e 	ldrsh.w	r3, [r5, #14]
 8001a04:	3301      	adds	r3, #1
 8001a06:	d002      	beq.n	8001a0e <_fwalk+0x2a>
 8001a08:	4628      	mov	r0, r5
 8001a0a:	47c0      	blx	r8
 8001a0c:	4306      	orrs	r6, r0
 8001a0e:	3568      	adds	r5, #104	; 0x68
 8001a10:	e7f1      	b.n	80019f6 <_fwalk+0x12>
 8001a12:	6824      	ldr	r4, [r4, #0]
 8001a14:	e7ec      	b.n	80019f0 <_fwalk+0xc>
 8001a16:	4630      	mov	r0, r6
 8001a18:	e8bd 81f0 	ldmia.w	sp!, {r4, r5, r6, r7, r8, pc}

08001a1c <_fwalk_reent>:
 8001a1c:	e92d 43f8 	stmdb	sp!, {r3, r4, r5, r6, r7, r8, r9, lr}
 8001a20:	4680      	mov	r8, r0
 8001a22:	4689      	mov	r9, r1
 8001a24:	f100 0448 	add.w	r4, r0, #72	; 0x48
 8001a28:	2600      	movs	r6, #0
 8001a2a:	b194      	cbz	r4, 8001a52 <_fwalk_reent+0x36>
 8001a2c:	68a5      	ldr	r5, [r4, #8]
 8001a2e:	6867      	ldr	r7, [r4, #4]
 8001a30:	3f01      	subs	r7, #1
 8001a32:	d40c      	bmi.n	8001a4e <_fwalk_reent+0x32>
 8001a34:	89ab      	ldrh	r3, [r5, #12]
 8001a36:	2b01      	cmp	r3, #1
 8001a38:	d907      	bls.n	8001a4a <_fwalk_reent+0x2e>
 8001a3a:	f9b5 300e 	ldrsh.w	r3, [r5, #14]
 8001a3e:	3301      	adds	r3, #1
 8001a40:	d003      	beq.n	8001a4a <_fwalk_reent+0x2e>
 8001a42:	4640      	mov	r0, r8
 8001a44:	4629      	mov	r1, r5
 8001a46:	47c8      	blx	r9
 8001a48:	4306      	orrs	r6, r0
 8001a4a:	3568      	adds	r5, #104	; 0x68
 8001a4c:	e7f0      	b.n	8001a30 <_fwalk_reent+0x14>
 8001a4e:	6824      	ldr	r4, [r4, #0]
 8001a50:	e7eb      	b.n	8001a2a <_fwalk_reent+0xe>
 8001a52:	4630      	mov	r0, r6
 8001a54:	e8bd 83f8 	ldmia.w	sp!, {r3, r4, r5, r6, r7, r8, r9, pc}

08001a58 <__smakebuf_r>:
 8001a58:	b5f0      	push	{r4, r5, r6, r7, lr}
 8001a5a:	898b      	ldrh	r3, [r1, #12]
 8001a5c:	b091      	sub	sp, #68	; 0x44
 8001a5e:	079e      	lsls	r6, r3, #30
 8001a60:	4605      	mov	r5, r0
 8001a62:	460c      	mov	r4, r1
 8001a64:	d425      	bmi.n	8001ab2 <__smakebuf_r+0x5a>
 8001a66:	f9b1 100e 	ldrsh.w	r1, [r1, #14]
 8001a6a:	2900      	cmp	r1, #0
 8001a6c:	da08      	bge.n	8001a80 <__smakebuf_r+0x28>
 8001a6e:	89a3      	ldrh	r3, [r4, #12]
 8001a70:	2700      	movs	r7, #0
 8001a72:	f013 0f80 	tst.w	r3, #128	; 0x80
 8001a76:	bf14      	ite	ne
 8001a78:	2640      	movne	r6, #64	; 0x40
 8001a7a:	f44f 6680 	moveq.w	r6, #1024	; 0x400
 8001a7e:	e00d      	b.n	8001a9c <__smakebuf_r+0x44>
 8001a80:	aa01      	add	r2, sp, #4
 8001a82:	f000 f9f9 	bl	8001e78 <_fstat_r>
 8001a86:	2800      	cmp	r0, #0
 8001a88:	dbf1      	blt.n	8001a6e <__smakebuf_r+0x16>
 8001a8a:	9f02      	ldr	r7, [sp, #8]
 8001a8c:	f44f 6680 	mov.w	r6, #1024	; 0x400
 8001a90:	f407 4770 	and.w	r7, r7, #61440	; 0xf000
 8001a94:	f5b7 5100 	subs.w	r1, r7, #8192	; 0x2000
 8001a98:	424f      	negs	r7, r1
 8001a9a:	414f      	adcs	r7, r1
 8001a9c:	4628      	mov	r0, r5
 8001a9e:	4631      	mov	r1, r6
 8001aa0:	f000 f888 	bl	8001bb4 <_malloc_r>
 8001aa4:	b960      	cbnz	r0, 8001ac0 <__smakebuf_r+0x68>
 8001aa6:	89a3      	ldrh	r3, [r4, #12]
 8001aa8:	059a      	lsls	r2, r3, #22
 8001aaa:	d41d      	bmi.n	8001ae8 <__smakebuf_r+0x90>
 8001aac:	f043 0302 	orr.w	r3, r3, #2
 8001ab0:	81a3      	strh	r3, [r4, #12]
 8001ab2:	f104 0347 	add.w	r3, r4, #71	; 0x47
 8001ab6:	6023      	str	r3, [r4, #0]
 8001ab8:	6123      	str	r3, [r4, #16]
 8001aba:	2301      	movs	r3, #1
 8001abc:	6163      	str	r3, [r4, #20]
 8001abe:	e013      	b.n	8001ae8 <__smakebuf_r+0x90>
 8001ac0:	4b0a      	ldr	r3, [pc, #40]	; (8001aec <__smakebuf_r+0x94>)
 8001ac2:	62ab      	str	r3, [r5, #40]	; 0x28
 8001ac4:	89a3      	ldrh	r3, [r4, #12]
 8001ac6:	6020      	str	r0, [r4, #0]
 8001ac8:	f043 0380 	orr.w	r3, r3, #128	; 0x80
 8001acc:	81a3      	strh	r3, [r4, #12]
 8001ace:	6120      	str	r0, [r4, #16]
 8001ad0:	6166      	str	r6, [r4, #20]
 8001ad2:	b14f      	cbz	r7, 8001ae8 <__smakebuf_r+0x90>
 8001ad4:	4628      	mov	r0, r5
 8001ad6:	f9b4 100e 	ldrsh.w	r1, [r4, #14]
 8001ada:	f000 f9df 	bl	8001e9c <_isatty_r>
 8001ade:	b118      	cbz	r0, 8001ae8 <__smakebuf_r+0x90>
 8001ae0:	89a3      	ldrh	r3, [r4, #12]
 8001ae2:	f043 0301 	orr.w	r3, r3, #1
 8001ae6:	81a3      	strh	r3, [r4, #12]
 8001ae8:	b011      	add	sp, #68	; 0x44
 8001aea:	bdf0      	pop	{r4, r5, r6, r7, pc}
 8001aec:	08001869 	stmdaeq	r0, {r0, r3, r5, r6, fp, ip}

08001af0 <malloc>:
 8001af0:	4b02      	ldr	r3, [pc, #8]	; (8001afc <malloc+0xc>)
 8001af2:	4601      	mov	r1, r0
 8001af4:	6818      	ldr	r0, [r3, #0]
 8001af6:	f000 b85d 	b.w	8001bb4 <_malloc_r>
 8001afa:	bf00      	nop
 8001afc:	20000088 	andcs	r0, r0, r8, lsl #1

08001b00 <memchr>:
 8001b00:	b510      	push	{r4, lr}
 8001b02:	b2c9      	uxtb	r1, r1
 8001b04:	4402      	add	r2, r0
 8001b06:	4290      	cmp	r0, r2
 8001b08:	4603      	mov	r3, r0
 8001b0a:	d005      	beq.n	8001b18 <memchr+0x18>
 8001b0c:	781c      	ldrb	r4, [r3, #0]
 8001b0e:	3001      	adds	r0, #1
 8001b10:	428c      	cmp	r4, r1
 8001b12:	d1f8      	bne.n	8001b06 <memchr+0x6>
 8001b14:	4618      	mov	r0, r3
 8001b16:	bd10      	pop	{r4, pc}
 8001b18:	2000      	movs	r0, #0
 8001b1a:	bd10      	pop	{r4, pc}

08001b1c <memset>:
 8001b1c:	4402      	add	r2, r0
 8001b1e:	4603      	mov	r3, r0
 8001b20:	4293      	cmp	r3, r2
 8001b22:	d002      	beq.n	8001b2a <memset+0xe>
 8001b24:	f803 1b01 	strb.w	r1, [r3], #1
 8001b28:	e7fa      	b.n	8001b20 <memset+0x4>
 8001b2a:	4770      	bx	lr

08001b2c <_free_r>:
 8001b2c:	b530      	push	{r4, r5, lr}
 8001b2e:	2900      	cmp	r1, #0
 8001b30:	d03c      	beq.n	8001bac <_free_r+0x80>
 8001b32:	f851 2c04 	ldr.w	r2, [r1, #-4]
 8001b36:	1f0b      	subs	r3, r1, #4
 8001b38:	491d      	ldr	r1, [pc, #116]	; (8001bb0 <_free_r+0x84>)
 8001b3a:	2a00      	cmp	r2, #0
 8001b3c:	bfb8      	it	lt
 8001b3e:	189b      	addlt	r3, r3, r2
 8001b40:	680a      	ldr	r2, [r1, #0]
 8001b42:	460c      	mov	r4, r1
 8001b44:	b912      	cbnz	r2, 8001b4c <_free_r+0x20>
 8001b46:	605a      	str	r2, [r3, #4]
 8001b48:	600b      	str	r3, [r1, #0]
 8001b4a:	bd30      	pop	{r4, r5, pc}
 8001b4c:	4293      	cmp	r3, r2
 8001b4e:	d20d      	bcs.n	8001b6c <_free_r+0x40>
 8001b50:	6819      	ldr	r1, [r3, #0]
 8001b52:	1858      	adds	r0, r3, r1
 8001b54:	4290      	cmp	r0, r2
 8001b56:	d103      	bne.n	8001b60 <_free_r+0x34>
 8001b58:	585a      	ldr	r2, [r3, r1]
 8001b5a:	4411      	add	r1, r2
 8001b5c:	6842      	ldr	r2, [r0, #4]
 8001b5e:	6019      	str	r1, [r3, #0]
 8001b60:	605a      	str	r2, [r3, #4]
 8001b62:	6023      	str	r3, [r4, #0]
 8001b64:	bd30      	pop	{r4, r5, pc}
 8001b66:	4299      	cmp	r1, r3
 8001b68:	d803      	bhi.n	8001b72 <_free_r+0x46>
 8001b6a:	460a      	mov	r2, r1
 8001b6c:	6851      	ldr	r1, [r2, #4]
 8001b6e:	2900      	cmp	r1, #0
 8001b70:	d1f9      	bne.n	8001b66 <_free_r+0x3a>
 8001b72:	6814      	ldr	r4, [r2, #0]
 8001b74:	1915      	adds	r5, r2, r4
 8001b76:	429d      	cmp	r5, r3
 8001b78:	d10a      	bne.n	8001b90 <_free_r+0x64>
 8001b7a:	681b      	ldr	r3, [r3, #0]
 8001b7c:	4423      	add	r3, r4
 8001b7e:	18d0      	adds	r0, r2, r3
 8001b80:	4288      	cmp	r0, r1
 8001b82:	6013      	str	r3, [r2, #0]
 8001b84:	d112      	bne.n	8001bac <_free_r+0x80>
 8001b86:	6808      	ldr	r0, [r1, #0]
 8001b88:	4403      	add	r3, r0
 8001b8a:	6013      	str	r3, [r2, #0]
 8001b8c:	684b      	ldr	r3, [r1, #4]
 8001b8e:	e00c      	b.n	8001baa <_free_r+0x7e>
 8001b90:	d902      	bls.n	8001b98 <_free_r+0x6c>
 8001b92:	230c      	movs	r3, #12
 8001b94:	6003      	str	r3, [r0, #0]
 8001b96:	bd30      	pop	{r4, r5, pc}
 8001b98:	6818      	ldr	r0, [r3, #0]
 8001b9a:	181c      	adds	r4, r3, r0
 8001b9c:	428c      	cmp	r4, r1
 8001b9e:	d103      	bne.n	8001ba8 <_free_r+0x7c>
 8001ba0:	680c      	ldr	r4, [r1, #0]
 8001ba2:	6849      	ldr	r1, [r1, #4]
 8001ba4:	4420      	add	r0, r4
 8001ba6:	6018      	str	r0, [r3, #0]
 8001ba8:	6059      	str	r1, [r3, #4]
 8001baa:	6053      	str	r3, [r2, #4]
 8001bac:	bd30      	pop	{r4, r5, pc}
 8001bae:	bf00      	nop
 8001bb0:	2000009c 	mulcs	r0, ip, r0

08001bb4 <_malloc_r>:
 8001bb4:	b570      	push	{r4, r5, r6, lr}
 8001bb6:	1ccd      	adds	r5, r1, #3
 8001bb8:	f025 0503 	bic.w	r5, r5, #3
 8001bbc:	3508      	adds	r5, #8
 8001bbe:	2d0c      	cmp	r5, #12
 8001bc0:	bf38      	it	cc
 8001bc2:	250c      	movcc	r5, #12
 8001bc4:	2d00      	cmp	r5, #0
 8001bc6:	4606      	mov	r6, r0
 8001bc8:	db3f      	blt.n	8001c4a <_malloc_r+0x96>
 8001bca:	428d      	cmp	r5, r1
 8001bcc:	d33d      	bcc.n	8001c4a <_malloc_r+0x96>
 8001bce:	4b21      	ldr	r3, [pc, #132]	; (8001c54 <_malloc_r+0xa0>)
 8001bd0:	681c      	ldr	r4, [r3, #0]
 8001bd2:	4618      	mov	r0, r3
 8001bd4:	4621      	mov	r1, r4
 8001bd6:	b1a1      	cbz	r1, 8001c02 <_malloc_r+0x4e>
 8001bd8:	680b      	ldr	r3, [r1, #0]
 8001bda:	1b5b      	subs	r3, r3, r5
 8001bdc:	d40e      	bmi.n	8001bfc <_malloc_r+0x48>
 8001bde:	2b0b      	cmp	r3, #11
 8001be0:	d903      	bls.n	8001bea <_malloc_r+0x36>
 8001be2:	600b      	str	r3, [r1, #0]
 8001be4:	18cc      	adds	r4, r1, r3
 8001be6:	50cd      	str	r5, [r1, r3]
 8001be8:	e01f      	b.n	8001c2a <_malloc_r+0x76>
 8001bea:	428c      	cmp	r4, r1
 8001bec:	d102      	bne.n	8001bf4 <_malloc_r+0x40>
 8001bee:	6862      	ldr	r2, [r4, #4]
 8001bf0:	6002      	str	r2, [r0, #0]
 8001bf2:	e01a      	b.n	8001c2a <_malloc_r+0x76>
 8001bf4:	684b      	ldr	r3, [r1, #4]
 8001bf6:	6063      	str	r3, [r4, #4]
 8001bf8:	460c      	mov	r4, r1
 8001bfa:	e016      	b.n	8001c2a <_malloc_r+0x76>
 8001bfc:	460c      	mov	r4, r1
 8001bfe:	6849      	ldr	r1, [r1, #4]
 8001c00:	e7e9      	b.n	8001bd6 <_malloc_r+0x22>
 8001c02:	4c15      	ldr	r4, [pc, #84]	; (8001c58 <_malloc_r+0xa4>)
 8001c04:	6823      	ldr	r3, [r4, #0]
 8001c06:	b91b      	cbnz	r3, 8001c10 <_malloc_r+0x5c>
 8001c08:	4630      	mov	r0, r6
 8001c0a:	f000 f8b7 	bl	8001d7c <_sbrk_r>
 8001c0e:	6020      	str	r0, [r4, #0]
 8001c10:	4629      	mov	r1, r5
 8001c12:	4630      	mov	r0, r6
 8001c14:	f000 f8b2 	bl	8001d7c <_sbrk_r>
 8001c18:	1c43      	adds	r3, r0, #1
 8001c1a:	4601      	mov	r1, r0
 8001c1c:	d015      	beq.n	8001c4a <_malloc_r+0x96>
 8001c1e:	1cc4      	adds	r4, r0, #3
 8001c20:	f024 0403 	bic.w	r4, r4, #3
 8001c24:	4284      	cmp	r4, r0
 8001c26:	d10a      	bne.n	8001c3e <_malloc_r+0x8a>
 8001c28:	6025      	str	r5, [r4, #0]
 8001c2a:	f104 000b 	add.w	r0, r4, #11
 8001c2e:	1d23      	adds	r3, r4, #4
 8001c30:	f020 0007 	bic.w	r0, r0, #7
 8001c34:	1ac3      	subs	r3, r0, r3
 8001c36:	d00b      	beq.n	8001c50 <_malloc_r+0x9c>
 8001c38:	425a      	negs	r2, r3
 8001c3a:	50e2      	str	r2, [r4, r3]
 8001c3c:	bd70      	pop	{r4, r5, r6, pc}
 8001c3e:	4630      	mov	r0, r6
 8001c40:	1a61      	subs	r1, r4, r1
 8001c42:	f000 f89b 	bl	8001d7c <_sbrk_r>
 8001c46:	3001      	adds	r0, #1
 8001c48:	d1ee      	bne.n	8001c28 <_malloc_r+0x74>
 8001c4a:	230c      	movs	r3, #12
 8001c4c:	6033      	str	r3, [r6, #0]
 8001c4e:	2000      	movs	r0, #0
 8001c50:	bd70      	pop	{r4, r5, r6, pc}
 8001c52:	bf00      	nop
 8001c54:	2000009c 	mulcs	r0, ip, r0
 8001c58:	20000098 	mulcs	r0, r8, r0

08001c5c <lflush>:
 8001c5c:	8983      	ldrh	r3, [r0, #12]
 8001c5e:	f003 0309 	and.w	r3, r3, #9
 8001c62:	2b09      	cmp	r3, #9
 8001c64:	d101      	bne.n	8001c6a <lflush+0xe>
 8001c66:	f7ff bded 	b.w	8001844 <fflush>
 8001c6a:	2000      	movs	r0, #0
 8001c6c:	4770      	bx	lr
	...

08001c70 <__srefill_r>:
 8001c70:	b5f8      	push	{r3, r4, r5, r6, r7, lr}
 8001c72:	460c      	mov	r4, r1
 8001c74:	4605      	mov	r5, r0
 8001c76:	b118      	cbz	r0, 8001c80 <__srefill_r+0x10>
 8001c78:	6983      	ldr	r3, [r0, #24]
 8001c7a:	b90b      	cbnz	r3, 8001c80 <__srefill_r+0x10>
 8001c7c:	f7ff fe48 	bl	8001910 <__sinit>
 8001c80:	4b39      	ldr	r3, [pc, #228]	; (8001d68 <__srefill_r+0xf8>)
 8001c82:	429c      	cmp	r4, r3
 8001c84:	d101      	bne.n	8001c8a <__srefill_r+0x1a>
 8001c86:	686c      	ldr	r4, [r5, #4]
 8001c88:	e008      	b.n	8001c9c <__srefill_r+0x2c>
 8001c8a:	4b38      	ldr	r3, [pc, #224]	; (8001d6c <__srefill_r+0xfc>)
 8001c8c:	429c      	cmp	r4, r3
 8001c8e:	d101      	bne.n	8001c94 <__srefill_r+0x24>
 8001c90:	68ac      	ldr	r4, [r5, #8]
 8001c92:	e003      	b.n	8001c9c <__srefill_r+0x2c>
 8001c94:	4b36      	ldr	r3, [pc, #216]	; (8001d70 <__srefill_r+0x100>)
 8001c96:	429c      	cmp	r4, r3
 8001c98:	bf08      	it	eq
 8001c9a:	68ec      	ldreq	r4, [r5, #12]
 8001c9c:	89a2      	ldrh	r2, [r4, #12]
 8001c9e:	2300      	movs	r3, #0
 8001ca0:	6063      	str	r3, [r4, #4]
 8001ca2:	b293      	uxth	r3, r2
 8001ca4:	069e      	lsls	r6, r3, #26
 8001ca6:	d45a      	bmi.n	8001d5e <__srefill_r+0xee>
 8001ca8:	0758      	lsls	r0, r3, #29
 8001caa:	d41a      	bmi.n	8001ce2 <__srefill_r+0x72>
 8001cac:	06d9      	lsls	r1, r3, #27
 8001cae:	d405      	bmi.n	8001cbc <__srefill_r+0x4c>
 8001cb0:	2309      	movs	r3, #9
 8001cb2:	f042 0240 	orr.w	r2, r2, #64	; 0x40
 8001cb6:	602b      	str	r3, [r5, #0]
 8001cb8:	81a2      	strh	r2, [r4, #12]
 8001cba:	e050      	b.n	8001d5e <__srefill_r+0xee>
 8001cbc:	071a      	lsls	r2, r3, #28
 8001cbe:	d50b      	bpl.n	8001cd8 <__srefill_r+0x68>
 8001cc0:	4628      	mov	r0, r5
 8001cc2:	4621      	mov	r1, r4
 8001cc4:	f7ff fd94 	bl	80017f0 <_fflush_r>
 8001cc8:	2800      	cmp	r0, #0
 8001cca:	d148      	bne.n	8001d5e <__srefill_r+0xee>
 8001ccc:	89a3      	ldrh	r3, [r4, #12]
 8001cce:	60a0      	str	r0, [r4, #8]
 8001cd0:	f023 0308 	bic.w	r3, r3, #8
 8001cd4:	81a3      	strh	r3, [r4, #12]
 8001cd6:	61a0      	str	r0, [r4, #24]
 8001cd8:	89a3      	ldrh	r3, [r4, #12]
 8001cda:	f043 0304 	orr.w	r3, r3, #4
 8001cde:	81a3      	strh	r3, [r4, #12]
 8001ce0:	e010      	b.n	8001d04 <__srefill_r+0x94>
 8001ce2:	6b61      	ldr	r1, [r4, #52]	; 0x34
 8001ce4:	b171      	cbz	r1, 8001d04 <__srefill_r+0x94>
 8001ce6:	f104 0344 	add.w	r3, r4, #68	; 0x44
 8001cea:	4299      	cmp	r1, r3
 8001cec:	d002      	beq.n	8001cf4 <__srefill_r+0x84>
 8001cee:	4628      	mov	r0, r5
 8001cf0:	f7ff ff1c 	bl	8001b2c <_free_r>
 8001cf4:	6c23      	ldr	r3, [r4, #64]	; 0x40
 8001cf6:	2000      	movs	r0, #0
 8001cf8:	6360      	str	r0, [r4, #52]	; 0x34
 8001cfa:	6063      	str	r3, [r4, #4]
 8001cfc:	b113      	cbz	r3, 8001d04 <__srefill_r+0x94>
 8001cfe:	6be3      	ldr	r3, [r4, #60]	; 0x3c
 8001d00:	6023      	str	r3, [r4, #0]
 8001d02:	bdf8      	pop	{r3, r4, r5, r6, r7, pc}
 8001d04:	6923      	ldr	r3, [r4, #16]
 8001d06:	b91b      	cbnz	r3, 8001d10 <__srefill_r+0xa0>
 8001d08:	4628      	mov	r0, r5
 8001d0a:	4621      	mov	r1, r4
 8001d0c:	f7ff fea4 	bl	8001a58 <__smakebuf_r>
 8001d10:	89a7      	ldrh	r7, [r4, #12]
 8001d12:	b2be      	uxth	r6, r7
 8001d14:	07b3      	lsls	r3, r6, #30
 8001d16:	d00f      	beq.n	8001d38 <__srefill_r+0xc8>
 8001d18:	2301      	movs	r3, #1
 8001d1a:	81a3      	strh	r3, [r4, #12]
 8001d1c:	4b15      	ldr	r3, [pc, #84]	; (8001d74 <__srefill_r+0x104>)
 8001d1e:	4916      	ldr	r1, [pc, #88]	; (8001d78 <__srefill_r+0x108>)
 8001d20:	6818      	ldr	r0, [r3, #0]
 8001d22:	f006 0609 	and.w	r6, r6, #9
 8001d26:	f7ff fe5d 	bl	80019e4 <_fwalk>
 8001d2a:	2e09      	cmp	r6, #9
 8001d2c:	81a7      	strh	r7, [r4, #12]
 8001d2e:	d103      	bne.n	8001d38 <__srefill_r+0xc8>
 8001d30:	4628      	mov	r0, r5
 8001d32:	4621      	mov	r1, r4
 8001d34:	f7ff fcd8 	bl	80016e8 <__sflush_r>
 8001d38:	6922      	ldr	r2, [r4, #16]
 8001d3a:	6a66      	ldr	r6, [r4, #36]	; 0x24
 8001d3c:	6022      	str	r2, [r4, #0]
 8001d3e:	4628      	mov	r0, r5
 8001d40:	6a21      	ldr	r1, [r4, #32]
 8001d42:	6963      	ldr	r3, [r4, #20]
 8001d44:	47b0      	blx	r6
 8001d46:	2800      	cmp	r0, #0
 8001d48:	6060      	str	r0, [r4, #4]
 8001d4a:	dc0b      	bgt.n	8001d64 <__srefill_r+0xf4>
 8001d4c:	89a3      	ldrh	r3, [r4, #12]
 8001d4e:	bf17      	itett	ne
 8001d50:	2200      	movne	r2, #0
 8001d52:	f043 0320 	orreq.w	r3, r3, #32
 8001d56:	f043 0340 	orrne.w	r3, r3, #64	; 0x40
 8001d5a:	6062      	strne	r2, [r4, #4]
 8001d5c:	81a3      	strh	r3, [r4, #12]
 8001d5e:	f04f 30ff 	mov.w	r0, #4294967295
 8001d62:	bdf8      	pop	{r3, r4, r5, r6, r7, pc}
 8001d64:	2000      	movs	r0, #0
 8001d66:	bdf8      	pop	{r3, r4, r5, r6, r7, pc}
 8001d68:	08001f50 	stmdaeq	r0, {r4, r6, r8, r9, sl, fp, ip}
 8001d6c:	08001f70 	stmdaeq	r0, {r4, r5, r6, r8, r9, sl, fp, ip}
 8001d70:	08001f90 	stmdaeq	r0, {r4, r7, r8, r9, sl, fp, ip}
 8001d74:	08001f18 	stmdaeq	r0, {r3, r4, r8, r9, sl, fp, ip}
 8001d78:	08001c5d 	stmdaeq	r0, {r0, r2, r3, r4, r6, sl, fp, ip}

08001d7c <_sbrk_r>:
 8001d7c:	b538      	push	{r3, r4, r5, lr}
 8001d7e:	4c06      	ldr	r4, [pc, #24]	; (8001d98 <_sbrk_r+0x1c>)
 8001d80:	2300      	movs	r3, #0
 8001d82:	4605      	mov	r5, r0
 8001d84:	4608      	mov	r0, r1
 8001d86:	6023      	str	r3, [r4, #0]
 8001d88:	f7fe ff6c 	bl	8000c64 <_sbrk>
 8001d8c:	1c43      	adds	r3, r0, #1
 8001d8e:	d102      	bne.n	8001d96 <_sbrk_r+0x1a>
 8001d90:	6823      	ldr	r3, [r4, #0]
 8001d92:	b103      	cbz	r3, 8001d96 <_sbrk_r+0x1a>
 8001d94:	602b      	str	r3, [r5, #0]
 8001d96:	bd38      	pop	{r3, r4, r5, pc}
 8001d98:	200000b4 	strhcs	r0, [r0], -r4

08001d9c <__sread>:
 8001d9c:	b510      	push	{r4, lr}
 8001d9e:	460c      	mov	r4, r1
 8001da0:	f9b1 100e 	ldrsh.w	r1, [r1, #14]
 8001da4:	f000 f89c 	bl	8001ee0 <_read_r>
 8001da8:	2800      	cmp	r0, #0
 8001daa:	db03      	blt.n	8001db4 <__sread+0x18>
 8001dac:	6d63      	ldr	r3, [r4, #84]	; 0x54
 8001dae:	4403      	add	r3, r0
 8001db0:	6563      	str	r3, [r4, #84]	; 0x54
 8001db2:	bd10      	pop	{r4, pc}
 8001db4:	89a3      	ldrh	r3, [r4, #12]
 8001db6:	f423 5380 	bic.w	r3, r3, #4096	; 0x1000
 8001dba:	81a3      	strh	r3, [r4, #12]
 8001dbc:	bd10      	pop	{r4, pc}

08001dbe <__swrite>:
 8001dbe:	e92d 41f0 	stmdb	sp!, {r4, r5, r6, r7, r8, lr}
 8001dc2:	461d      	mov	r5, r3
 8001dc4:	898b      	ldrh	r3, [r1, #12]
 8001dc6:	4607      	mov	r7, r0
 8001dc8:	05db      	lsls	r3, r3, #23
 8001dca:	460c      	mov	r4, r1
 8001dcc:	4616      	mov	r6, r2
 8001dce:	d505      	bpl.n	8001ddc <__swrite+0x1e>
 8001dd0:	f9b1 100e 	ldrsh.w	r1, [r1, #14]
 8001dd4:	2200      	movs	r2, #0
 8001dd6:	2302      	movs	r3, #2
 8001dd8:	f000 f870 	bl	8001ebc <_lseek_r>
 8001ddc:	89a3      	ldrh	r3, [r4, #12]
 8001dde:	4638      	mov	r0, r7
 8001de0:	f423 5380 	bic.w	r3, r3, #4096	; 0x1000
 8001de4:	81a3      	strh	r3, [r4, #12]
 8001de6:	f9b4 100e 	ldrsh.w	r1, [r4, #14]
 8001dea:	4632      	mov	r2, r6
 8001dec:	462b      	mov	r3, r5
 8001dee:	e8bd 41f0 	ldmia.w	sp!, {r4, r5, r6, r7, r8, lr}
 8001df2:	f000 b81f 	b.w	8001e34 <_write_r>

08001df6 <__sseek>:
 8001df6:	b510      	push	{r4, lr}
 8001df8:	460c      	mov	r4, r1
 8001dfa:	f9b1 100e 	ldrsh.w	r1, [r1, #14]
 8001dfe:	f000 f85d 	bl	8001ebc <_lseek_r>
 8001e02:	1c43      	adds	r3, r0, #1
 8001e04:	89a3      	ldrh	r3, [r4, #12]
 8001e06:	d103      	bne.n	8001e10 <__sseek+0x1a>
 8001e08:	f423 5380 	bic.w	r3, r3, #4096	; 0x1000
 8001e0c:	81a3      	strh	r3, [r4, #12]
 8001e0e:	bd10      	pop	{r4, pc}
 8001e10:	f443 5380 	orr.w	r3, r3, #4096	; 0x1000
 8001e14:	81a3      	strh	r3, [r4, #12]
 8001e16:	6560      	str	r0, [r4, #84]	; 0x54
 8001e18:	bd10      	pop	{r4, pc}

08001e1a <__sclose>:
 8001e1a:	f9b1 100e 	ldrsh.w	r1, [r1, #14]
 8001e1e:	f000 b81b 	b.w	8001e58 <_close_r>

08001e22 <strlen>:
 8001e22:	4603      	mov	r3, r0
 8001e24:	f813 2b01 	ldrb.w	r2, [r3], #1
 8001e28:	2a00      	cmp	r2, #0
 8001e2a:	d1fb      	bne.n	8001e24 <strlen+0x2>
 8001e2c:	1a18      	subs	r0, r3, r0
 8001e2e:	3801      	subs	r0, #1
 8001e30:	4770      	bx	lr
	...

08001e34 <_write_r>:
 8001e34:	b538      	push	{r3, r4, r5, lr}
 8001e36:	4c07      	ldr	r4, [pc, #28]	; (8001e54 <_write_r+0x20>)
 8001e38:	4605      	mov	r5, r0
 8001e3a:	2000      	movs	r0, #0
 8001e3c:	6020      	str	r0, [r4, #0]
 8001e3e:	4608      	mov	r0, r1
 8001e40:	4611      	mov	r1, r2
 8001e42:	461a      	mov	r2, r3
 8001e44:	f7fe ff8c 	bl	8000d60 <_write>
 8001e48:	1c43      	adds	r3, r0, #1
 8001e4a:	d102      	bne.n	8001e52 <_write_r+0x1e>
 8001e4c:	6823      	ldr	r3, [r4, #0]
 8001e4e:	b103      	cbz	r3, 8001e52 <_write_r+0x1e>
 8001e50:	602b      	str	r3, [r5, #0]
 8001e52:	bd38      	pop	{r3, r4, r5, pc}
 8001e54:	200000b4 	strhcs	r0, [r0], -r4

08001e58 <_close_r>:
 8001e58:	b538      	push	{r3, r4, r5, lr}
 8001e5a:	4c06      	ldr	r4, [pc, #24]	; (8001e74 <_close_r+0x1c>)
 8001e5c:	2300      	movs	r3, #0
 8001e5e:	4605      	mov	r5, r0
 8001e60:	4608      	mov	r0, r1
 8001e62:	6023      	str	r3, [r4, #0]
 8001e64:	f7fe ff1e 	bl	8000ca4 <_close>
 8001e68:	1c43      	adds	r3, r0, #1
 8001e6a:	d102      	bne.n	8001e72 <_close_r+0x1a>
 8001e6c:	6823      	ldr	r3, [r4, #0]
 8001e6e:	b103      	cbz	r3, 8001e72 <_close_r+0x1a>
 8001e70:	602b      	str	r3, [r5, #0]
 8001e72:	bd38      	pop	{r3, r4, r5, pc}
 8001e74:	200000b4 	strhcs	r0, [r0], -r4

08001e78 <_fstat_r>:
 8001e78:	b538      	push	{r3, r4, r5, lr}
 8001e7a:	4c07      	ldr	r4, [pc, #28]	; (8001e98 <_fstat_r+0x20>)
 8001e7c:	2300      	movs	r3, #0
 8001e7e:	4605      	mov	r5, r0
 8001e80:	4608      	mov	r0, r1
 8001e82:	4611      	mov	r1, r2
 8001e84:	6023      	str	r3, [r4, #0]
 8001e86:	f7fe ff19 	bl	8000cbc <_fstat>
 8001e8a:	1c43      	adds	r3, r0, #1
 8001e8c:	d102      	bne.n	8001e94 <_fstat_r+0x1c>
 8001e8e:	6823      	ldr	r3, [r4, #0]
 8001e90:	b103      	cbz	r3, 8001e94 <_fstat_r+0x1c>
 8001e92:	602b      	str	r3, [r5, #0]
 8001e94:	bd38      	pop	{r3, r4, r5, pc}
 8001e96:	bf00      	nop
 8001e98:	200000b4 	strhcs	r0, [r0], -r4

08001e9c <_isatty_r>:
 8001e9c:	b538      	push	{r3, r4, r5, lr}
 8001e9e:	4c06      	ldr	r4, [pc, #24]	; (8001eb8 <_isatty_r+0x1c>)
 8001ea0:	2300      	movs	r3, #0
 8001ea2:	4605      	mov	r5, r0
 8001ea4:	4608      	mov	r0, r1
 8001ea6:	6023      	str	r3, [r4, #0]
 8001ea8:	f7fe ff18 	bl	8000cdc <_isatty>
 8001eac:	1c43      	adds	r3, r0, #1
 8001eae:	d102      	bne.n	8001eb6 <_isatty_r+0x1a>
 8001eb0:	6823      	ldr	r3, [r4, #0]
 8001eb2:	b103      	cbz	r3, 8001eb6 <_isatty_r+0x1a>
 8001eb4:	602b      	str	r3, [r5, #0]
 8001eb6:	bd38      	pop	{r3, r4, r5, pc}
 8001eb8:	200000b4 	strhcs	r0, [r0], -r4

08001ebc <_lseek_r>:
 8001ebc:	b538      	push	{r3, r4, r5, lr}
 8001ebe:	4c07      	ldr	r4, [pc, #28]	; (8001edc <_lseek_r+0x20>)
 8001ec0:	4605      	mov	r5, r0
 8001ec2:	2000      	movs	r0, #0
 8001ec4:	6020      	str	r0, [r4, #0]
 8001ec6:	4608      	mov	r0, r1
 8001ec8:	4611      	mov	r1, r2
 8001eca:	461a      	mov	r2, r3
 8001ecc:	f7fe ff12 	bl	8000cf4 <_lseek>
 8001ed0:	1c43      	adds	r3, r0, #1
 8001ed2:	d102      	bne.n	8001eda <_lseek_r+0x1e>
 8001ed4:	6823      	ldr	r3, [r4, #0]
 8001ed6:	b103      	cbz	r3, 8001eda <_lseek_r+0x1e>
 8001ed8:	602b      	str	r3, [r5, #0]
 8001eda:	bd38      	pop	{r3, r4, r5, pc}
 8001edc:	200000b4 	strhcs	r0, [r0], -r4

08001ee0 <_read_r>:
 8001ee0:	b538      	push	{r3, r4, r5, lr}
 8001ee2:	4c07      	ldr	r4, [pc, #28]	; (8001f00 <_read_r+0x20>)
 8001ee4:	4605      	mov	r5, r0
 8001ee6:	2000      	movs	r0, #0
 8001ee8:	6020      	str	r0, [r4, #0]
 8001eea:	4608      	mov	r0, r1
 8001eec:	4611      	mov	r1, r2
 8001eee:	461a      	mov	r2, r3
 8001ef0:	f7fe ff0e 	bl	8000d10 <_read>
 8001ef4:	1c43      	adds	r3, r0, #1
 8001ef6:	d102      	bne.n	8001efe <_read_r+0x1e>
 8001ef8:	6823      	ldr	r3, [r4, #0]
 8001efa:	b103      	cbz	r3, 8001efe <_read_r+0x1e>
 8001efc:	602b      	str	r3, [r5, #0]
 8001efe:	bd38      	pop	{r3, r4, r5, pc}
 8001f00:	200000b4 	strhcs	r0, [r0], -r4
 8001f04:	746f6f42 	strbtvc	r6, [pc], #-3906	; 8001f0c <_read_r+0x2c>
 8001f08:	0000000d 	andeq	r0, r0, sp
 8001f0c:	64253d78 	strtvs	r3, [r5], #-3448	; 0xd78
 8001f10:	0000000d 	andeq	r0, r0, sp
 8001f14:	00000043 	andeq	r0, r0, r3, asr #32

08001f18 <_global_impure_ptr>:
 8001f18:	20000028 	andcs	r0, r0, r8, lsr #32
 8001f1c:	2b302d23 	blcs	8c0d3b0 <_sidata+0xc0b400>
 8001f20:	6c680020 	stclvs	0, cr0, [r8], #-128	; 0xffffff80
 8001f24:	6665004c 	strbtvs	r0, [r5], -ip, asr #32
 8001f28:	47464567 	strbmi	r4, [r6, -r7, ror #10]
 8001f2c:	32313000 	eorscc	r3, r1, #0
 8001f30:	36353433 			; <UNDEFINED> instruction: 0x36353433
 8001f34:	41393837 	teqmi	r9, r7, lsr r8
 8001f38:	45444342 	strbmi	r4, [r4, #-834]	; 0x342
 8001f3c:	31300046 	teqcc	r0, r6, asr #32
 8001f40:	35343332 	ldrcc	r3, [r4, #-818]!	; 0x332
 8001f44:	39383736 	ldmdbcc	r8!, {r1, r2, r4, r5, r8, r9, sl, ip, sp}
 8001f48:	64636261 	strbtvs	r6, [r3], #-609	; 0x261
 8001f4c:	00006665 	andeq	r6, r0, r5, ror #12

08001f50 <__sf_fake_stdin>:
	...

08001f70 <__sf_fake_stdout>:
	...

08001f90 <__sf_fake_stderr>:
	...

Disassembly of section .data:

20000000 <SystemCoreClock>:
20000000:	044aa200 	strbeq	sl, [sl], #-512	; 0x200

20000004 <AHBPrescTable>:
	...
2000000c:	04030201 	streq	r0, [r3], #-513	; 0x201
20000010:	09080706 	stmdbeq	r8, {r1, r2, r8, r9, sl}

20000014 <APBAHBPrescTable>:
20000014:	00000000 	andeq	r0, r0, r0
20000018:	04030201 	streq	r0, [r3], #-513	; 0x201
2000001c:	04030201 	streq	r0, [r3], #-513	; 0x201
20000020:	09080706 	stmdbeq	r8, {r1, r2, r8, r9, sl}

20000024 <ADCPrescTable>:
20000024:	08060402 	stmdaeq	r6, {r1, sl}

20000028 <impure_data>:
20000028:	00000000 	andeq	r0, r0, r0
2000002c:	08001f50 	stmdaeq	r0, {r4, r6, r8, r9, sl, fp, ip}
20000030:	08001f70 	stmdaeq	r0, {r4, r5, r6, r8, r9, sl, fp, ip}
20000034:	08001f90 	stmdaeq	r0, {r4, r7, r8, r9, sl, fp, ip}
	...
20000048:	08001f14 	stmdaeq	r0, {r2, r4, r8, r9, sl, fp, ip}
	...

20000088 <_impure_ptr>:
20000088:	20000028 	andcs	r0, r0, r8, lsr #32

Disassembly of section .bss:

2000008c <T0_bak>:
2000008c:	00000000 	andeq	r0, r0, r0

20000090 <x>:
20000090:	00000000 	andeq	r0, r0, r0

20000094 <heap.5925>:
20000094:	00000000 	andeq	r0, r0, r0

20000098 <__malloc_sbrk_start>:
20000098:	00000000 	andeq	r0, r0, r0

2000009c <__malloc_free_list>:
2000009c:	00000000 	andeq	r0, r0, r0

200000a0 <T0>:
200000a0:	00000000 	andeq	r0, r0, r0

200000a4 <c>:
200000a4:	00000000 	andeq	r0, r0, r0

200000a8 <GPIO_InitStructure>:
200000a8:	00000000 	andeq	r0, r0, r0

200000ac <msTicks>:
200000ac:	00000000 	andeq	r0, r0, r0

200000b0 <ddd>:
200000b0:	00000000 	andeq	r0, r0, r0

200000b4 <errno>:
200000b4:	00000000 	andeq	r0, r0, r0

Disassembly of section .co_stack:

200000b8 <__end__>:
	...

Disassembly of section .debug_info:

00000000 <.debug_info>:
       0:	00000475 	andeq	r0, r0, r5, ror r4
       4:	00000004 	andeq	r0, r0, r4
       8:	01040000 	mrseq	r0, (UNDEF: 4)
       c:	0000000c 	andeq	r0, r0, ip
      10:	00025d01 	andeq	r5, r2, r1, lsl #26
	...
      20:	06010200 	streq	r0, [r1], -r0, lsl #4
      24:	00000166 	andeq	r0, r0, r6, ror #2
      28:	00013603 	andeq	r3, r1, r3, lsl #12
      2c:	331c0200 	tstcc	ip, #0, 4
      30:	02000000 	andeq	r0, r0, #0
      34:	01640801 	cmneq	r4, r1, lsl #16
      38:	02020000 	andeq	r0, r2, #0
      3c:	0000f405 	andeq	pc, r0, r5, lsl #8
      40:	00c20300 	sbceq	r0, r2, r0, lsl #6
      44:	26020000 	strcs	r0, [r2], -r0
      48:	0000004c 	andeq	r0, r0, ip, asr #32
      4c:	dc070202 	sfmle	f0, 4, [r7], {2}
      50:	03000001 	movweq	r0, #1
      54:	00000224 	andeq	r0, r0, r4, lsr #4
      58:	005e3702 	subseq	r3, lr, r2, lsl #14
      5c:	04020000 	streq	r0, [r2], #-0
      60:	00011005 	andeq	r1, r1, r5
      64:	00b70300 	adcseq	r0, r7, r0, lsl #6
      68:	38020000 	stmdacc	r2, {}	; <UNPREDICTABLE>
      6c:	00000070 	andeq	r0, r0, r0, ror r0
      70:	9d070402 	cfstrsls	mvf0, [r7, #-8]
      74:	02000001 	andeq	r0, r0, #1
      78:	010b0508 	tsteq	fp, r8, lsl #10
      7c:	08020000 	stmdaeq	r2, {}	; <UNPREDICTABLE>
      80:	00019807 	andeq	r9, r1, r7, lsl #16
      84:	05040400 	streq	r0, [r4, #-1024]	; 0x400
      88:	00746e69 	rsbseq	r6, r4, r9, ror #28
      8c:	a2070402 	andge	r0, r7, #33554432	; 0x2000000
      90:	03000001 	movweq	r0, #1
      94:	00000138 	andeq	r0, r0, r8, lsr r1
      98:	00282a03 	eoreq	r2, r8, r3, lsl #20
      9c:	c4030000 	strgt	r0, [r3], #-0
      a0:	03000000 	movweq	r0, #0
      a4:	00004136 	andeq	r4, r0, r6, lsr r1
      a8:	02260300 	eoreq	r0, r6, #0, 6
      ac:	41030000 	mrsmi	r0, (UNDEF: 3)
      b0:	00000053 	andeq	r0, r0, r3, asr r0
      b4:	0000b903 	andeq	fp, r0, r3, lsl #18
      b8:	65420300 	strbvs	r0, [r2, #-768]	; 0x300
      bc:	02000000 	andeq	r0, r0, #0
      c0:	00a90704 	adceq	r0, r9, r4, lsl #14
      c4:	b4050000 	strlt	r0, [r5], #-0
      c8:	06000000 	streq	r0, [r0], -r0
      cc:	0139048c 	teqeq	r9, ip, lsl #9
      d0:	000001e6 	andeq	r0, r0, r6, ror #3
      d4:	0000d707 	andeq	sp, r0, r7, lsl #14
      d8:	013b0400 	teqeq	fp, r0, lsl #8
      dc:	000001e6 	andeq	r0, r0, r6, ror #3
      e0:	00fe0700 	rscseq	r0, lr, r0, lsl #14
      e4:	3c040000 	stccc	0, cr0, [r4], {-0}
      e8:	0000c601 	andeq	ip, r0, r1, lsl #12
      ec:	ef070400 	svc	0x00070400
      f0:	04000001 	streq	r0, [r0], #-1
      f4:	00c6013d 	sbceq	r0, r6, sp, lsr r1
      f8:	07080000 	streq	r0, [r8, -r0]
      fc:	00000172 	andeq	r0, r0, r2, ror r1
     100:	c6013e04 	strgt	r3, [r1], -r4, lsl #28
     104:	0c000000 	stceq	0, cr0, [r0], {-0}
     108:	52435308 	subpl	r5, r3, #8, 6	; 0x20000000
     10c:	013f0400 	teqeq	pc, r0, lsl #8
     110:	000000c6 	andeq	r0, r0, r6, asr #1
     114:	43430810 	movtmi	r0, #14352	; 0x3810
     118:	40040052 	andmi	r0, r4, r2, asr r0
     11c:	0000c601 	andeq	ip, r0, r1, lsl #12
     120:	53081400 	movwpl	r1, #33792	; 0x8400
     124:	04005048 	streq	r5, [r0], #-72	; 0x48
     128:	01fb0141 	mvnseq	r0, r1, asr #2
     12c:	07180000 	ldreq	r0, [r8, -r0]
     130:	000001af 	andeq	r0, r0, pc, lsr #3
     134:	c6014204 	strgt	r4, [r1], -r4, lsl #4
     138:	24000000 	strcs	r0, [r0], #-0
     13c:	00014507 	andeq	r4, r1, r7, lsl #10
     140:	01430400 	cmpeq	r3, r0, lsl #8
     144:	000000c6 	andeq	r0, r0, r6, asr #1
     148:	020e0728 	andeq	r0, lr, #40, 14	; 0xa00000
     14c:	44040000 	strmi	r0, [r4], #-0
     150:	0000c601 	andeq	ip, r0, r1, lsl #12
     154:	f9072c00 			; <UNDEFINED> instruction: 0xf9072c00
     158:	04000001 	streq	r0, [r0], #-1
     15c:	00c60145 	sbceq	r0, r6, r5, asr #2
     160:	07300000 	ldreq	r0, [r0, -r0]!
     164:	000001cb 	andeq	r0, r0, fp, asr #3
     168:	c6014604 	strgt	r4, [r1], -r4, lsl #12
     16c:	34000000 	strcc	r0, [r0], #-0
     170:	00011907 	andeq	r1, r1, r7, lsl #18
     174:	01470400 	cmpeq	r7, r0, lsl #8
     178:	000000c6 	andeq	r0, r0, r6, asr #1
     17c:	022e0738 	eoreq	r0, lr, #56, 14	; 0xe00000
     180:	48040000 	stmdami	r4, {}	; <UNPREDICTABLE>
     184:	0000c601 	andeq	ip, r0, r1, lsl #12
     188:	50083c00 	andpl	r3, r8, r0, lsl #24
     18c:	04005246 	streq	r5, [r0], #-582	; 0x246
     190:	02100149 	andseq	r0, r0, #1073741842	; 0x40000012
     194:	08400000 	stmdaeq	r0, {}^	; <UNPREDICTABLE>
     198:	00524644 	subseq	r4, r2, r4, asr #12
     19c:	e6014a04 	str	r4, [r1], -r4, lsl #20
     1a0:	48000001 	stmdami	r0, {r0}
     1a4:	52444108 	subpl	r4, r4, #8, 2
     1a8:	014b0400 	cmpeq	fp, r0, lsl #8
     1ac:	000001e6 	andeq	r0, r0, r6, ror #3
     1b0:	0213074c 	andseq	r0, r3, #76, 14	; 0x1300000
     1b4:	4c040000 	stcmi	0, cr0, [r4], {-0}
     1b8:	00022a01 	andeq	r2, r2, r1, lsl #20
     1bc:	f4075000 	vst4.8	{d5-d8}, [r7], r0
     1c0:	04000001 	streq	r0, [r0], #-1
     1c4:	0244014d 	subeq	r0, r4, #1073741843	; 0x40000013
     1c8:	07600000 	strbeq	r0, [r0, -r0]!
     1cc:	000000dd 	ldrdeq	r0, [r0], -sp
     1d0:	34014e04 	strcc	r4, [r1], #-3588	; 0xe04
     1d4:	74000002 	strvc	r0, [r0], #-2
     1d8:	00025707 	andeq	r5, r2, r7, lsl #14
     1dc:	014f0400 	cmpeq	pc, r0, lsl #8
     1e0:	000000c6 	andeq	r0, r0, r6, asr #1
     1e4:	c6090088 	strgt	r0, [r9], -r8, lsl #1
     1e8:	0a000000 	beq	1f0 <g_pfnVectors-0x7fffe10>
     1ec:	00000093 	muleq	r0, r3, r0
     1f0:	000001fb 	strdeq	r0, [r0], -fp
     1f4:	0000bf0b 	andeq	fp, r0, fp, lsl #30
     1f8:	05000b00 	streq	r0, [r0, #-2816]	; 0xb00
     1fc:	000001eb 	andeq	r0, r0, fp, ror #3
     200:	0000b40a 	andeq	fp, r0, sl, lsl #8
     204:	00021000 	andeq	r1, r2, r0
     208:	00bf0b00 	adcseq	r0, pc, r0, lsl #22
     20c:	00010000 	andeq	r0, r1, r0
     210:	00021509 	andeq	r1, r2, r9, lsl #10
     214:	02000500 	andeq	r0, r0, #0, 10
     218:	b40a0000 	strlt	r0, [sl], #-0
     21c:	2a000000 	bcs	224 <g_pfnVectors-0x7fffddc>
     220:	0b000002 	bleq	230 <g_pfnVectors-0x7fffdd0>
     224:	000000bf 	strheq	r0, [r0], -pc	; <UNPREDICTABLE>
     228:	2f090003 	svccs	0x00090003
     22c:	05000002 	streq	r0, [r0, #-2]
     230:	0000021a 	andeq	r0, r0, sl, lsl r2
     234:	0000b40a 	andeq	fp, r0, sl, lsl #8
     238:	00024400 	andeq	r4, r2, r0, lsl #8
     23c:	00bf0b00 	adcseq	r0, pc, r0, lsl #22
     240:	00040000 	andeq	r0, r4, r0
     244:	00024909 	andeq	r4, r2, r9, lsl #18
     248:	02340500 	eorseq	r0, r4, #0, 10
     24c:	780c0000 	stmdavc	ip, {}	; <UNPREDICTABLE>
     250:	04000001 	streq	r0, [r0], #-1
     254:	00cb0150 	sbceq	r0, fp, r0, asr r1
     258:	a9050000 	stmdbge	r5, {}	; <UNPREDICTABLE>
     25c:	0d000000 	stceq	0, cr0, [r0, #-0]
     260:	02070501 	andeq	r0, r7, #4194304	; 0x400000
     264:	00000275 	andeq	r0, r0, r5, ror r2
     268:	00045b0e 	andeq	r5, r4, lr, lsl #22
     26c:	530f0000 	movwpl	r0, #61440	; 0xf000
     270:	01005445 	tsteq	r0, r5, asr #8
     274:	05240600 	streq	r0, [r4, #-1536]!	; 0x600
     278:	02f10385 	rscseq	r0, r1, #335544322	; 0x14000002
     27c:	41080000 	mrsmi	r0, (UNDEF: 8)
     280:	05005243 	streq	r5, [r0, #-579]	; 0x243
     284:	00c60387 	sbceq	r0, r6, r7, lsl #7
     288:	07000000 	streq	r0, [r0, -r0]
     28c:	00000106 	andeq	r0, r0, r6, lsl #2
     290:	c6038805 	strgt	r8, [r3], -r5, lsl #16
     294:	04000000 	streq	r0, [r0], #-0
     298:	00010307 	andeq	r0, r1, r7, lsl #6
     29c:	03890500 	orreq	r0, r9, #0, 10
     2a0:	000000c6 	andeq	r0, r0, r6, asr #1
     2a4:	52530808 	subspl	r0, r3, #8, 16	; 0x80000
     2a8:	038a0500 	orreq	r0, sl, #0, 10
     2ac:	000000c6 	andeq	r0, r0, r6, asr #1
     2b0:	5243080c 	subpl	r0, r3, #12, 16	; 0xc0000
     2b4:	038b0500 	orreq	r0, fp, #0, 10
     2b8:	000000c6 	andeq	r0, r0, r6, asr #1
     2bc:	52410810 	subpl	r0, r1, #16, 16	; 0x100000
     2c0:	038c0500 	orreq	r0, ip, #0, 10
     2c4:	000000c6 	andeq	r0, r0, r6, asr #1
     2c8:	02330714 	eorseq	r0, r3, #20, 14	; 0x500000
     2cc:	8d050000 	stchi	0, cr0, [r5, #-0]
     2d0:	0000c603 	andeq	ip, r0, r3, lsl #12
     2d4:	4f081800 	svcmi	0x00081800
     2d8:	05005242 	streq	r5, [r0, #-578]	; 0x242
     2dc:	00c6038e 	sbceq	r0, r6, lr, lsl #7
     2e0:	071c0000 	ldreq	r0, [ip, -r0]
     2e4:	00000140 	andeq	r0, r0, r0, asr #2
     2e8:	c6038f05 	strgt	r8, [r3], -r5, lsl #30
     2ec:	20000000 	andcs	r0, r0, r0
     2f0:	023c0c00 	eorseq	r0, ip, #0, 24
     2f4:	98050000 	stmdals	r5, {}	; <UNPREDICTABLE>
     2f8:	00027503 	andeq	r7, r2, r3, lsl #10
     2fc:	05280600 	streq	r0, [r8, #-1536]!	; 0x600
     300:	03880434 	orreq	r0, r8, #52, 8	; 0x34000000
     304:	43080000 	movwmi	r0, #32768	; 0x8000
     308:	36050052 			; <UNDEFINED> instruction: 0x36050052
     30c:	0000c604 	andeq	ip, r0, r4, lsl #12
     310:	e7070000 	str	r0, [r7, -r0]
     314:	05000000 	streq	r0, [r0, #-0]
     318:	00c60437 	sbceq	r0, r6, r7, lsr r4
     31c:	08040000 	stmdaeq	r4, {}	; <UNPREDICTABLE>
     320:	00524943 	subseq	r4, r2, r3, asr #18
     324:	c6043805 	strgt	r3, [r4], -r5, lsl #16
     328:	08000000 	stmdaeq	r0, {}	; <UNPREDICTABLE>
     32c:	00012d07 	andeq	r2, r1, r7, lsl #26
     330:	04390500 	ldrteq	r0, [r9], #-1280	; 0x500
     334:	000000c6 	andeq	r0, r0, r6, asr #1
     338:	00a0070c 	adceq	r0, r0, ip, lsl #14
     33c:	3a050000 	bcc	140344 <g_pfnVectors-0x7ebfcbc>
     340:	0000c604 	andeq	ip, r0, r4, lsl #12
     344:	26071000 	strcs	r1, [r7], -r0
     348:	05000001 	streq	r0, [r0, #-1]
     34c:	00c6043b 	sbceq	r0, r6, fp, lsr r4
     350:	07140000 	ldreq	r0, [r4, -r0]
     354:	00000181 	andeq	r0, r0, r1, lsl #3
     358:	c6043c05 	strgt	r3, [r4], -r5, lsl #24
     35c:	18000000 	stmdane	r0, {}	; <UNPREDICTABLE>
     360:	0000ec07 	andeq	lr, r0, r7, lsl #24
     364:	043d0500 	ldrteq	r0, [sp], #-1280	; 0x500
     368:	000000c6 	andeq	r0, r0, r6, asr #1
     36c:	00b2071c 	adcseq	r0, r2, ip, lsl r7
     370:	3e050000 	cdpcc	0, 0, cr0, cr5, cr0, {0}
     374:	0000c604 	andeq	ip, r0, r4, lsl #12
     378:	43082000 	movwmi	r2, #32768	; 0x8000
     37c:	05005253 	streq	r5, [r0, #-595]	; 0x253
     380:	00c6043f 	sbceq	r0, r6, pc, lsr r4
     384:	00240000 	eoreq	r0, r4, r0
     388:	0000000c 	andeq	r0, r0, ip
     38c:	044a0500 	strbeq	r0, [sl], #-1280	; 0x500
     390:	000002fd 	strdeq	r0, [r0], -sp
     394:	0001d110 	andeq	sp, r1, r0, lsl r1
     398:	0cd40100 	ldfeqe	f0, [r4], {0}
     39c:	68080001 	stmdavs	r8, {r0}
     3a0:	01000000 	mrseq	r0, (UNDEF: 0)
     3a4:	01b5119c 			; <UNDEFINED> instruction: 0x01b5119c
     3a8:	32010000 	andcc	r0, r1, #0
     3ac:	00000001 	andeq	r0, r0, r1
     3b0:	0000d800 	andeq	sp, r0, r0, lsl #16
     3b4:	e99c0100 	ldmib	ip, {r8}
     3b8:	12000003 	andne	r0, r0, #3
     3bc:	00706d74 	rsbseq	r6, r0, r4, ror sp
     3c0:	b4013401 	strlt	r3, [r1], #-1025	; 0x401
     3c4:	02000000 	andeq	r0, r0, #0
     3c8:	1e137491 	cfcmpsne	r7, mvf3, mvf1
     3cc:	01000001 	tsteq	r0, r1
     3d0:	00b40134 	adcseq	r0, r4, r4, lsr r1
     3d4:	91020000 	mrsls	r0, (UNDEF: 2)
     3d8:	015a1370 	cmpeq	sl, r0, ror r3
     3dc:	34010000 	strcc	r0, [r1], #-0
     3e0:	0000b401 	andeq	fp, r0, r1, lsl #8
     3e4:	6c910200 	lfmvs	f0, 4, [r1], {0}
     3e8:	02181400 	andseq	r1, r8, #0, 8
     3ec:	a3010000 	movwge	r0, #4096	; 0x1000
     3f0:	00017401 	andeq	r7, r1, r1, lsl #8
     3f4:	00000a08 	andeq	r0, r0, r8, lsl #20
     3f8:	159c0100 	ldrne	r0, [ip, #256]	; 0x100
     3fc:	0000014a 	andeq	r0, r0, sl, asr #2
     400:	8003db01 	andhi	sp, r3, r1, lsl #22
     404:	00080001 	andeq	r0, r8, r1
     408:	01000001 	tsteq	r0, r1
     40c:	0004309c 	muleq	r4, ip, r0
     410:	01891300 	orreq	r1, r9, r0, lsl #6
     414:	dd010000 	stcle	0, cr0, [r1, #-0]
     418:	0000c603 	andeq	ip, r0, r3, lsl #12
     41c:	74910200 	ldrvc	r0, [r1], #512	; 0x200
     420:	0000cd13 	andeq	ip, r0, r3, lsl sp
     424:	03dd0100 	bicseq	r0, sp, #0, 2
     428:	000000c6 	andeq	r0, r0, r6, asr #1
     42c:	00709102 	rsbseq	r9, r0, r2, lsl #2
     430:	00024a16 	andeq	r4, r2, r6, lsl sl
     434:	06070400 	streq	r0, [r7], -r0, lsl #8
     438:	0000025a 	andeq	r0, r0, sl, asr r2
     43c:	0001fe17 	andeq	pc, r1, r7, lsl lr	; <UNPREDICTABLE>
     440:	b4a20100 	strtlt	r0, [r2], #256	; 0x100
     444:	05000000 	streq	r0, [r0, #-0]
     448:	00000003 	andeq	r0, r0, r3
     44c:	00930a20 	addseq	r0, r3, r0, lsr #20
     450:	045d0000 	ldrbeq	r0, [sp], #-0
     454:	bf0b0000 	svclt	0x000b0000
     458:	0f000000 	svceq	0x00000000
     45c:	136e1700 	cmnne	lr, #0, 14
     460:	a7010000 	strge	r0, [r1, -r0]
     464:	0000046e 	andeq	r0, r0, lr, ror #8
     468:	00040305 	andeq	r0, r4, r5, lsl #6
     46c:	73092000 	movwvc	r2, #36864	; 0x9000
     470:	05000004 	streq	r0, [r0, #-4]
     474:	0000044d 	andeq	r0, r0, sp, asr #8
     478:	0000e600 	andeq	lr, r0, r0, lsl #12
     47c:	4c000400 	cfstrsmi	mvf0, [r0], {-0}
     480:	04000001 	streq	r0, [r0], #-1
     484:	00000c01 	andeq	r0, r0, r1, lsl #24
     488:	030c0100 	movweq	r0, #49408	; 0xc100
     48c:	00280000 	eoreq	r0, r8, r0
     490:	00000000 	andeq	r0, r0, r0
     494:	02460000 	subeq	r0, r6, #0
     498:	e9020000 	stmdb	r2, {}	; <UNPREDICTABLE>
     49c:	01000002 	tsteq	r0, r2
     4a0:	000280bb 	strheq	r8, [r2], -fp
     4a4:	00005808 	andeq	r5, r0, r8, lsl #16
     4a8:	539c0100 	orrspl	r0, ip, #0, 2
     4ac:	03000000 	movweq	r0, #0
     4b0:	000002e2 	andeq	r0, r0, r2, ror #5
     4b4:	0053be01 	subseq	fp, r3, r1, lsl #28
     4b8:	91020000 	mrsls	r0, (UNDEF: 2)
     4bc:	02d20374 	sbcseq	r0, r2, #116, 6	; 0xd0000001
     4c0:	be010000 	cdplt	0, 0, cr0, cr1, cr0, {0}
     4c4:	00000053 	andeq	r0, r0, r3, asr r0
     4c8:	00709102 	rsbseq	r9, r0, r2, lsl #2
     4cc:	00590404 	subseq	r0, r9, r4, lsl #8
     4d0:	04050000 	streq	r0, [r5], #-0
     4d4:	00019d07 	andeq	r9, r1, r7, lsl #26
     4d8:	02bb0600 	adcseq	r0, fp, #0, 12
     4dc:	1e010000 	cdpne	0, 0, cr0, cr1, cr0, {0}
     4e0:	0002e001 	andeq	lr, r2, r1
     4e4:	00000608 	andeq	r0, r0, r8, lsl #12
     4e8:	079c0100 	ldreq	r0, [ip, r0, lsl #2]
     4ec:	00000059 	andeq	r0, r0, r9, asr r0
     4f0:	00000083 	andeq	r0, r0, r3, lsl #1
     4f4:	00008308 	andeq	r8, r0, r8, lsl #6
     4f8:	000fff00 	andeq	pc, pc, r0, lsl #30
     4fc:	a9070405 	stmdbge	r7, {r0, r2, sl}
     500:	09000000 	stmdbeq	r0, {}	; <UNPREDICTABLE>
     504:	00000376 	andeq	r0, r0, r6, ror r3
     508:	00721801 	rsbseq	r1, r2, r1, lsl #16
     50c:	03050000 	movweq	r0, #20480	; 0x5000
     510:	200000b8 	strhcs	r0, [r0], -r8
     514:	0002da0a 	andeq	sp, r2, sl, lsl #20
     518:	595a0100 	ldmdbpl	sl, {r8}^
     51c:	0a000000 	beq	524 <g_pfnVectors-0x7fffadc>
     520:	000002cb 	andeq	r0, r0, fp, asr #5
     524:	00595c01 	subseq	r5, r9, r1, lsl #24
     528:	7f0a0000 	svcvc	0x000a0000
     52c:	01000003 	tsteq	r0, r3
     530:	0000595d 	andeq	r5, r0, sp, asr r9
     534:	00cc0700 	sbceq	r0, ip, r0, lsl #14
     538:	00cc0000 	sbceq	r0, ip, r0
     53c:	830b0000 	movwhi	r0, #45056	; 0xb000
     540:	42000000 	andmi	r0, r0, #0
     544:	d2040400 	andle	r0, r4, #0, 8
     548:	0c000000 	stceq	0, cr0, [r0], {-0}
     54c:	0002ff09 	andeq	pc, r2, r9, lsl #30
     550:	e4700100 	ldrbt	r0, [r0], #-256	; 0x100
     554:	05000000 	streq	r0, [r0, #-0]
     558:	00000003 	andeq	r0, r0, r3
     55c:	00bc0d08 	adcseq	r0, ip, r8, lsl #26
     560:	18000000 	stmdane	r0, {}	; <UNPREDICTABLE>
     564:	04000007 	streq	r0, [r0], #-7
     568:	0001fc00 	andeq	pc, r1, r0, lsl #24
     56c:	0c010400 	cfstrseq	mvf0, [r1], {-0}
     570:	01000000 	mrseq	r0, (UNDEF: 0)
     574:	000003f3 	strdeq	r0, [r0], -r3
     578:	00000040 	andeq	r0, r0, r0, asr #32
     57c:	00000000 	andeq	r0, r0, r0
     580:	00000303 	andeq	r0, r0, r3, lsl #6
     584:	66060102 	strvs	r0, [r6], -r2, lsl #2
     588:	03000001 	movweq	r0, #1
     58c:	00000136 	andeq	r0, r0, r6, lsr r1
     590:	00331c02 	eorseq	r1, r3, r2, lsl #24
     594:	01020000 	mrseq	r0, (UNDEF: 2)
     598:	00016408 	andeq	r6, r1, r8, lsl #8
     59c:	05020200 	streq	r0, [r2, #-512]	; 0x200
     5a0:	000000f4 	strdeq	r0, [r0], -r4
     5a4:	0000c203 	andeq	ip, r0, r3, lsl #4
     5a8:	4c260200 	sfmmi	f0, 4, [r6], #-0
     5ac:	02000000 	andeq	r0, r0, #0
     5b0:	01dc0702 	bicseq	r0, ip, r2, lsl #14
     5b4:	24030000 	strcs	r0, [r3], #-0
     5b8:	02000002 	andeq	r0, r0, #2
     5bc:	00005e37 	andeq	r5, r0, r7, lsr lr
     5c0:	05040200 	streq	r0, [r4, #-512]	; 0x200
     5c4:	00000110 	andeq	r0, r0, r0, lsl r1
     5c8:	0000b703 	andeq	fp, r0, r3, lsl #14
     5cc:	70380200 	eorsvc	r0, r8, r0, lsl #4
     5d0:	02000000 	andeq	r0, r0, #0
     5d4:	019d0704 	orrseq	r0, sp, r4, lsl #14
     5d8:	08020000 	stmdaeq	r2, {}	; <UNPREDICTABLE>
     5dc:	00010b05 	andeq	r0, r1, r5, lsl #22
     5e0:	07080200 	streq	r0, [r8, -r0, lsl #4]
     5e4:	00000198 	muleq	r0, r8, r1
     5e8:	69050404 	stmdbvs	r5, {r2, sl}
     5ec:	0200746e 	andeq	r7, r0, #1845493760	; 0x6e000000
     5f0:	01a20704 			; <UNDEFINED> instruction: 0x01a20704
     5f4:	38030000 	stmdacc	r3, {}	; <UNPREDICTABLE>
     5f8:	03000001 	movweq	r0, #1
     5fc:	0000282a 	andeq	r2, r0, sl, lsr #16
     600:	00c40300 	sbceq	r0, r4, r0, lsl #6
     604:	36030000 	strcc	r0, [r3], -r0
     608:	00000041 	andeq	r0, r0, r1, asr #32
     60c:	00022603 	andeq	r2, r2, r3, lsl #12
     610:	53410300 	movtpl	r0, #4864	; 0x1300
     614:	03000000 	movweq	r0, #0
     618:	000000b9 	strheq	r0, [r0], -r9
     61c:	00654203 	rsbeq	r4, r5, r3, lsl #4
     620:	04020000 	streq	r0, [r2], #-0
     624:	0000a907 	andeq	sl, r0, r7, lsl #18
     628:	00b40500 	adcseq	r0, r4, r0, lsl #10
     62c:	b4060000 	strlt	r0, [r6], #-0
     630:	db000000 	blle	638 <g_pfnVectors-0x7fff9c8>
     634:	07000000 	streq	r0, [r0, -r0]
     638:	000000bf 	strheq	r0, [r0], -pc	; <UNPREDICTABLE>
     63c:	a9050003 	stmdbge	r5, {r0, r1}
     640:	08000000 	stmdaeq	r0, {}	; <UNPREDICTABLE>
     644:	04003875 	streq	r3, [r0], #-2165	; 0x875
     648:	009301f9 			; <UNDEFINED> instruction: 0x009301f9
     64c:	01090000 	mrseq	r0, (UNDEF: 9)
     650:	01020904 	tsteq	r2, r4, lsl #18
     654:	0a000001 	beq	660 <g_pfnVectors-0x7fff9a0>
     658:	000004c8 	andeq	r0, r0, r8, asr #9
     65c:	04940a00 	ldreq	r0, [r4], #2560	; 0xa00
     660:	00010000 	andeq	r0, r1, r0
     664:	00068a0b 	andeq	r8, r6, fp, lsl #20
     668:	02090400 	andeq	r0, r9, #0, 8
     66c:	000000eb 	andeq	r0, r0, fp, ror #1
     670:	e9041c0c 	stmdb	r4, {r2, r3, sl, fp, ip}
     674:	00017203 	andeq	r7, r1, r3, lsl #4
     678:	52430d00 	subpl	r0, r3, #0, 26
     67c:	eb04004c 	bl	1007b4 <g_pfnVectors-0x7eff84c>
     680:	0000c603 	andeq	ip, r0, r3, lsl #12
     684:	430d0000 	movwmi	r0, #53248	; 0xd000
     688:	04004852 	streq	r4, [r0], #-2130	; 0x852
     68c:	00c603ec 	sbceq	r0, r6, ip, ror #7
     690:	0d040000 	stceq	0, cr0, [r4, #-0]
     694:	00524449 	subseq	r4, r2, r9, asr #8
     698:	c603ed04 	strgt	lr, [r3], -r4, lsl #26
     69c:	08000000 	stmdaeq	r0, {}	; <UNPREDICTABLE>
     6a0:	52444f0d 	subpl	r4, r4, #13, 30	; 0x34
     6a4:	03ee0400 	mvneq	r0, #0, 8
     6a8:	000000c6 	andeq	r0, r0, r6, asr #1
     6ac:	05030e0c 	streq	r0, [r3, #-3596]	; 0xe0c
     6b0:	ef040000 	svc	0x00040000
     6b4:	0000c603 	andeq	ip, r0, r3, lsl #12
     6b8:	420d1000 	andmi	r1, sp, #0
     6bc:	04005252 	streq	r5, [r0], #-594	; 0x252
     6c0:	00c603f0 	strdeq	r0, [r6], #48	; 0x30
     6c4:	0e140000 	cdpeq	0, 1, cr0, cr4, cr0, {0}
     6c8:	000005ae 	andeq	r0, r0, lr, lsr #11
     6cc:	c603f104 	strgt	pc, [r3], -r4, lsl #2
     6d0:	18000000 	stmdane	r0, {}	; <UNPREDICTABLE>
     6d4:	03860b00 	orreq	r0, r6, #0, 22
     6d8:	f2040000 	vhadd.s8	d0, d4, d0
     6dc:	00010d03 	andeq	r0, r1, r3, lsl #26
     6e0:	04200c00 	strteq	r0, [r0], #-3072	; 0xc00
     6e4:	01c903f8 	strdeq	r0, [r9, #56]	; 0x38
     6e8:	c60e0000 	strgt	r0, [lr], -r0
     6ec:	04000006 	streq	r0, [r0], #-6
     6f0:	00c603fa 	strdeq	r0, [r6], #58	; 0x3a
     6f4:	0e000000 	cdpeq	0, 0, cr0, cr0, cr0, {0}
     6f8:	0000069a 	muleq	r0, sl, r6
     6fc:	c603fb04 	strgt	pc, [r3], -r4, lsl #22
     700:	04000000 	streq	r0, [r0], #-0
     704:	0004b00e 	andeq	fp, r4, lr
     708:	03fc0400 	mvnseq	r0, #0, 8
     70c:	000001c9 	andeq	r0, r0, r9, asr #3
     710:	00dd0e08 	sbcseq	r0, sp, r8, lsl #28
     714:	fd040000 	stc2	0, cr0, [r4, #-0]
     718:	0000b403 	andeq	fp, r0, r3, lsl #8
     71c:	380e1800 	stmdacc	lr, {fp, ip}
     720:	04000006 	streq	r0, [r0], #-6
     724:	00c603fe 	strdeq	r0, [r6], #62	; 0x3e
     728:	001c0000 	andseq	r0, ip, r0
     72c:	0000cb05 	andeq	ip, r0, r5, lsl #22
     730:	06610b00 	strbteq	r0, [r1], -r0, lsl #22
     734:	ff040000 			; <UNDEFINED> instruction: 0xff040000
     738:	00017e03 	andeq	r7, r1, r3, lsl #28
     73c:	05010f00 	streq	r0, [r1, #-3840]	; 0xf00
     740:	0001f53b 	andeq	pc, r1, fp, lsr r5	; <UNPREDICTABLE>
     744:	051e0a00 	ldreq	r0, [lr, #-2560]	; 0xa00
     748:	0a010000 	beq	40750 <g_pfnVectors-0x7fbf8b0>
     74c:	00000565 	andeq	r0, r0, r5, ror #10
     750:	05eb0a02 	strbeq	r0, [fp, #2562]!	; 0xa02
     754:	00030000 	andeq	r0, r3, r0
     758:	00067803 	andeq	r7, r6, r3, lsl #16
     75c:	da3f0500 	ble	fc1b64 <g_pfnVectors-0x703e49c>
     760:	0f000001 	svceq	0x00000001
     764:	3a480501 	bcc	1201b70 <g_pfnVectors-0x6dfe490>
     768:	0a000002 	beq	778 <g_pfnVectors-0x7fff888>
     76c:	0000063e 	andeq	r0, r0, lr, lsr r6
     770:	06fa0a00 	ldrbteq	r0, [sl], r0, lsl #20
     774:	0a040000 	beq	10077c <g_pfnVectors-0x7eff884>
     778:	000005dd 	ldrdeq	r0, [r0], -sp
     77c:	06250a28 	strteq	r0, [r5], -r8, lsr #20
     780:	00c80000 	sbceq	r0, r8, r0
     784:	0005400a 	andeq	r4, r5, sl
     788:	b50a1400 	strlt	r1, [sl, #-1024]	; 0x400
     78c:	10000006 	andne	r0, r0, r6
     790:	0007370a 	andeq	r3, r7, sl, lsl #14
     794:	bf0a1c00 	svclt	0x000a1c00
     798:	18000003 	stmdane	r0, {r0, r1}
     79c:	06da0300 	ldrbeq	r0, [sl], r0, lsl #6
     7a0:	50050000 	andpl	r0, r5, r0
     7a4:	00000200 	andeq	r0, r0, r0, lsl #4
     7a8:	5b050410 	blpl	1417f0 <g_pfnVectors-0x7ebe810>
     7ac:	00000272 	andeq	r0, r0, r2, ror r2
     7b0:	00039a11 	andeq	r9, r3, r1, lsl sl
     7b4:	9e5d0500 	cdpls	5, 5, cr0, cr13, cr0, {0}
     7b8:	00000000 	andeq	r0, r0, r0
     7bc:	00049b11 	andeq	r9, r4, r1, lsl fp
     7c0:	f5600500 			; <UNDEFINED> instruction: 0xf5600500
     7c4:	02000001 	andeq	r0, r0, #1
     7c8:	00065711 	andeq	r5, r6, r1, lsl r7
     7cc:	3a630500 	bcc	18c1bd4 <g_pfnVectors-0x673e42c>
     7d0:	03000002 	movweq	r0, #2
     7d4:	05750300 	ldrbeq	r0, [r5, #-768]!	; 0x300
     7d8:	65050000 	strvs	r0, [r5, #-0]
     7dc:	00000245 	andeq	r0, r0, r5, asr #4
     7e0:	6d05010f 	stfvss	f0, [r5, #-60]	; 0xffffffc4
     7e4:	00000292 	muleq	r0, r2, r2
     7e8:	0004570a 	andeq	r5, r4, sl, lsl #14
     7ec:	a30a0000 	movwge	r0, #40960	; 0xa000
     7f0:	01000003 	tsteq	r0, r3
     7f4:	066e0300 	strbteq	r0, [lr], -r0, lsl #6
     7f8:	6f050000 	svcvs	0x00050000
     7fc:	0000027d 	andeq	r0, r0, sp, ror r2
     800:	0004e012 	andeq	lr, r4, r2, lsl r0
     804:	006c0100 	rsbeq	r0, ip, r0, lsl #2
     808:	e4000000 	str	r0, [r0], #-0
     80c:	01000000 	mrseq	r0, (UNDEF: 0)
     810:	0002c19c 	muleq	r2, ip, r1
     814:	069f1300 	ldreq	r1, [pc], r0, lsl #6
     818:	6c010000 	stcvs	0, cr0, [r1], {-0}
     81c:	000002c1 	andeq	r0, r0, r1, asr #5
     820:	00749102 	rsbseq	r9, r4, r2, lsl #2
     824:	01720414 	cmneq	r2, r4, lsl r4
     828:	27150000 	ldrcs	r0, [r5, -r0]
     82c:	01000007 	tsteq	r0, r7
     830:	0000009f 	muleq	r0, pc, r0	; <UNPREDICTABLE>
     834:	00001600 	andeq	r1, r0, r0, lsl #12
     838:	169c0100 	ldrne	r0, [ip], r0, lsl #2
     83c:	000004a6 	andeq	r0, r0, r6, lsr #9
     840:	02e8ad01 	rsceq	sl, r8, #1, 26	; 0x40
     844:	01760800 	cmneq	r6, r0, lsl #16
     848:	9c010000 	stcls	0, cr0, [r1], {-0}
     84c:	0000035e 	andeq	r0, r0, lr, asr r3
     850:	00069f13 	andeq	r9, r6, r3, lsl pc
     854:	c1ad0100 			; <UNDEFINED> instruction: 0xc1ad0100
     858:	02000002 	andeq	r0, r0, #2
     85c:	a5135c91 	ldrge	r5, [r3, #-3217]	; 0xc91
     860:	01000006 	tsteq	r0, r6
     864:	00035ead 	andeq	r5, r3, sp, lsr #29
     868:	58910200 	ldmpl	r1, {r9}
     86c:	00058e17 	andeq	r8, r5, r7, lsl lr
     870:	b4af0100 	strtlt	r0, [pc], #256	; 878 <g_pfnVectors-0x7fff788>
     874:	02000000 	andeq	r0, r0, #0
     878:	0f177491 	svceq	0x00177491
     87c:	01000006 	tsteq	r0, r6
     880:	0000b4af 	andeq	fp, r0, pc, lsr #9
     884:	68910200 	ldmvs	r1, {r9}
     888:	00039317 	andeq	r9, r3, r7, lsl r3
     88c:	b4af0100 	strtlt	r0, [pc], #256	; 894 <g_pfnVectors-0x7fff76c>
     890:	02000000 	andeq	r0, r0, #0
     894:	70187091 	mulsvc	r8, r1, r0
     898:	0100736f 	tsteq	r0, pc, ror #6
     89c:	0000b4af 	andeq	fp, r0, pc, lsr #9
     8a0:	64910200 	ldrvs	r0, [r1], #512	; 0x200
     8a4:	00052f17 	andeq	r2, r5, r7, lsl pc
     8a8:	b4b00100 	ldrtlt	r0, [r0], #256	; 0x100
     8ac:	02000000 	andeq	r0, r0, #0
     8b0:	c0176c91 	mulsgt	r7, r1, ip
     8b4:	01000004 	tsteq	r0, r4
     8b8:	0000b4b0 			; <UNDEFINED> instruction: 0x0000b4b0
     8bc:	60910200 	addsvs	r0, r1, r0, lsl #4
     8c0:	72041400 	andvc	r1, r4, #0, 8
     8c4:	19000002 	stmdbne	r0, {r1}
     8c8:	000003e3 	andeq	r0, r0, r3, ror #7
     8cc:	00010a01 	andeq	r0, r1, r1, lsl #20
     8d0:	26000000 	strcs	r0, [r0], -r0
     8d4:	01000000 	mrseq	r0, (UNDEF: 0)
     8d8:	00038a9c 	muleq	r3, ip, sl
     8dc:	06a51a00 	strteq	r1, [r5], r0, lsl #20
     8e0:	0a010000 	beq	408e8 <g_pfnVectors-0x7fbf718>
     8e4:	00035e01 	andeq	r5, r3, r1, lsl #28
     8e8:	74910200 	ldrvc	r0, [r1], #512	; 0x200
     8ec:	05081b00 	streq	r1, [r8, #-2816]	; 0xb00
     8f0:	19010000 	stmdbne	r1, {}	; <UNPREDICTABLE>
     8f4:	00009301 	andeq	r9, r0, r1, lsl #6
     8f8:	00000000 	andeq	r0, r0, r0
     8fc:	00003400 	andeq	r3, r0, r0, lsl #8
     900:	d29c0100 	addsle	r0, ip, #0, 2
     904:	1a000003 	bne	918 <g_pfnVectors-0x7fff6e8>
     908:	0000069f 	muleq	r0, pc, r6	; <UNPREDICTABLE>
     90c:	c1011901 	tstgt	r1, r1, lsl #18
     910:	02000002 	andeq	r0, r0, #2
     914:	9a1a6c91 	bls	69bb60 <g_pfnVectors-0x79644a0>
     918:	01000003 	tsteq	r0, r3
     91c:	009e0119 	addseq	r0, lr, r9, lsl r1
     920:	91020000 	mrsls	r0, (UNDEF: 2)
     924:	05361c6a 	ldreq	r1, [r6, #-3178]!	; 0xc6a
     928:	1b010000 	blne	40930 <g_pfnVectors-0x7fbf6d0>
     92c:	00009301 	andeq	r9, r0, r1, lsl #6
     930:	77910200 	ldrvc	r0, [r1, r0, lsl #4]
     934:	05c21b00 	strbeq	r1, [r2, #2816]	; 0xb00
     938:	31010000 	mrscc	r0, (UNDEF: 1)
     93c:	00009e01 	andeq	r9, r0, r1, lsl #28
     940:	00000000 	andeq	r0, r0, r0
     944:	00001a00 	andeq	r1, r0, r0, lsl #20
     948:	fc9c0100 	ldc2	1, cr0, [ip], {0}
     94c:	1a000003 	bne	960 <g_pfnVectors-0x7fff6a0>
     950:	0000069f 	muleq	r0, pc, r6	; <UNPREDICTABLE>
     954:	c1013101 	tstgt	r1, r1, lsl #2
     958:	02000002 	andeq	r0, r0, #2
     95c:	1b007491 	blne	1dba8 <g_pfnVectors-0x7fe2458>
     960:	00000710 	andeq	r0, r0, r0, lsl r7
     964:	93014001 	movwls	r4, #4097	; 0x1001
     968:	00000000 	andeq	r0, r0, r0
     96c:	34000000 	strcc	r0, [r0], #-0
     970:	01000000 	mrseq	r0, (UNDEF: 0)
     974:	0004449c 	muleq	r4, ip, r4
     978:	069f1a00 	ldreq	r1, [pc], r0, lsl #20
     97c:	40010000 	andmi	r0, r1, r0
     980:	0002c101 	andeq	ip, r2, r1, lsl #2
     984:	6c910200 	lfmvs	f0, 4, [r1], {0}
     988:	00039a1a 	andeq	r9, r3, sl, lsl sl
     98c:	01400100 	mrseq	r0, (UNDEF: 80)
     990:	0000009e 	muleq	r0, lr, r0
     994:	1c6a9102 	stfnep	f1, [sl], #-8
     998:	00000536 	andeq	r0, r0, r6, lsr r5
     99c:	93014201 	movwls	r4, #4609	; 0x1201
     9a0:	02000000 	andeq	r0, r0, #0
     9a4:	1b007791 	blne	1e7f0 <g_pfnVectors-0x7fe1810>
     9a8:	000003ab 	andeq	r0, r0, fp, lsr #7
     9ac:	9e015701 	cdpls	7, 0, cr5, cr1, cr1, {0}
     9b0:	00000000 	andeq	r0, r0, r0
     9b4:	1a000000 	bne	9bc <g_pfnVectors-0x7fff644>
     9b8:	01000000 	mrseq	r0, (UNDEF: 0)
     9bc:	00046e9c 	muleq	r4, ip, lr
     9c0:	069f1a00 	ldreq	r1, [pc], r0, lsl #20
     9c4:	57010000 	strpl	r0, [r1, -r0]
     9c8:	0002c101 	andeq	ip, r2, r1, lsl #2
     9cc:	74910200 	ldrvc	r0, [r1], #512	; 0x200
     9d0:	04871900 	streq	r1, [r7], #2304	; 0x900
     9d4:	66010000 	strvs	r0, [r1], -r0
     9d8:	00000001 	andeq	r0, r0, r1
     9dc:	00001c00 	andeq	r1, r0, r0, lsl #24
     9e0:	a39c0100 	orrsge	r0, ip, #0, 2
     9e4:	1a000004 	bne	9fc <g_pfnVectors-0x7fff604>
     9e8:	0000069f 	muleq	r0, pc, r6	; <UNPREDICTABLE>
     9ec:	c1016601 	tstgt	r1, r1, lsl #12
     9f0:	02000002 	andeq	r0, r0, #2
     9f4:	9a1a7491 	bls	69dc40 <g_pfnVectors-0x79623c0>
     9f8:	01000003 	tsteq	r0, r3
     9fc:	009e0166 	addseq	r0, lr, r6, ror #2
     a00:	91020000 	mrsls	r0, (UNDEF: 2)
     a04:	eb190072 	bl	640bd4 <g_pfnVectors-0x79bf42c>
     a08:	01000006 	tsteq	r0, r6
     a0c:	00000176 	andeq	r0, r0, r6, ror r1
     a10:	001c0000 	andseq	r0, ip, r0
     a14:	9c010000 	stcls	0, cr0, [r1], {-0}
     a18:	000004d8 	ldrdeq	r0, [r0], -r8
     a1c:	00069f1a 	andeq	r9, r6, sl, lsl pc
     a20:	01760100 	cmneq	r6, r0, lsl #2
     a24:	000002c1 	andeq	r0, r0, r1, asr #5
     a28:	1a749102 	bne	1d24e38 <g_pfnVectors-0x62db1c8>
     a2c:	0000039a 	muleq	r0, sl, r3
     a30:	9e017601 	cfmadd32ls	mvax0, mvfx7, mvfx1, mvfx1
     a34:	02000000 	andeq	r0, r0, #0
     a38:	19007291 	stmdbne	r0, {r0, r4, r7, r9, ip, sp, lr}
     a3c:	00000461 	andeq	r0, r0, r1, ror #8
     a40:	00018a01 	andeq	r8, r1, r1, lsl #20
     a44:	2e000000 	cdpcs	0, 0, cr0, cr0, cr0, {0}
     a48:	01000000 	mrseq	r0, (UNDEF: 0)
     a4c:	00051c9c 	muleq	r5, ip, ip
     a50:	069f1a00 	ldreq	r1, [pc], r0, lsl #20
     a54:	8a010000 	bhi	40a5c <g_pfnVectors-0x7fbf5a4>
     a58:	0002c101 	andeq	ip, r2, r1, lsl #2
     a5c:	74910200 	ldrvc	r0, [r1], #512	; 0x200
     a60:	00039a1a 	andeq	r9, r3, sl, lsl sl
     a64:	018a0100 	orreq	r0, sl, r0, lsl #2
     a68:	0000009e 	muleq	r0, lr, r0
     a6c:	1a729102 	bne	1ca4e7c <g_pfnVectors-0x635b184>
     a70:	00000450 	andeq	r0, r0, r0, asr r4
     a74:	92018a01 	andls	r8, r1, #4096	; 0x1000
     a78:	02000002 	andeq	r0, r0, #2
     a7c:	19007191 	stmdbne	r0, {r0, r4, r7, r8, ip, sp, lr}
     a80:	000006cb 	andeq	r0, r0, fp, asr #13
     a84:	6001a201 	andvs	sl, r1, r1, lsl #4
     a88:	28080004 	stmdacs	r8, {r2}
     a8c:	01000000 	mrseq	r0, (UNDEF: 0)
     a90:	0005519c 	muleq	r5, ip, r1
     a94:	069f1a00 	ldreq	r1, [pc], r0, lsl #20
     a98:	a2010000 	andge	r0, r1, #0
     a9c:	0002c101 	andeq	ip, r2, r1, lsl #2
     aa0:	74910200 	ldrvc	r0, [r1], #512	; 0x200
     aa4:	00039a1a 	andeq	r9, r3, sl, lsl sl
     aa8:	01a20100 			; <UNDEFINED> instruction: 0x01a20100
     aac:	0000009e 	muleq	r0, lr, r0
     ab0:	00729102 	rsbseq	r9, r2, r2, lsl #2
     ab4:	00061a19 	andeq	r1, r6, r9, lsl sl
     ab8:	01b10100 			; <UNDEFINED> instruction: 0x01b10100
     abc:	00000000 	andeq	r0, r0, r0
     ac0:	0000001c 	andeq	r0, r0, ip, lsl r0
     ac4:	05869c01 	streq	r9, [r6, #3073]	; 0xc01
     ac8:	9f1a0000 	svcls	0x001a0000
     acc:	01000006 	tsteq	r0, r6
     ad0:	02c101b1 	sbceq	r0, r1, #1073741868	; 0x4000002c
     ad4:	91020000 	mrsls	r0, (UNDEF: 2)
     ad8:	05861a74 	streq	r1, [r6, #2676]	; 0xa74
     adc:	b1010000 	mrslt	r0, (UNDEF: 1)
     ae0:	00009e01 	andeq	r9, r0, r1, lsl #28
     ae4:	72910200 	addsvc	r0, r1, #0, 4
     ae8:	05fc1900 	ldrbeq	r1, [ip, #2304]!	; 0x900
     aec:	c0010000 	andgt	r0, r1, r0
     af0:	00000001 	andeq	r0, r0, r1
     af4:	00004200 	andeq	r4, r0, r0, lsl #4
     af8:	ca9c0100 	bgt	fe700f00 <__StackTop+0xde6fbf00>
     afc:	1a000005 	bne	b18 <g_pfnVectors-0x7fff4e8>
     b00:	0000069f 	muleq	r0, pc, r6	; <UNPREDICTABLE>
     b04:	c101c001 	tstgt	r1, r1
     b08:	02000002 	andeq	r0, r0, #2
     b0c:	9a1a6c91 	bls	69bd58 <g_pfnVectors-0x79642a8>
     b10:	01000003 	tsteq	r0, r3
     b14:	009e01c0 	addseq	r0, lr, r0, asr #3
     b18:	91020000 	mrsls	r0, (UNDEF: 2)
     b1c:	6d741d6a 	ldclvs	13, cr1, [r4, #-424]!	; 0xfffffe58
     b20:	c2010070 	andgt	r0, r1, #112	; 0x70
     b24:	0000b401 	andeq	fp, r0, r1, lsl #8
     b28:	74910200 	ldrvc	r0, [r1], #512	; 0x200
     b2c:	04ec1900 	strbteq	r1, [ip], #2304	; 0x900
     b30:	de010000 	cdple	0, 0, cr0, cr1, cr0, {0}
     b34:	00000001 	andeq	r0, r0, r1
     b38:	00004800 	andeq	r4, r0, r0, lsl #16
     b3c:	0e9c0100 	fmleqe	f0, f4, f0
     b40:	1a000006 	bne	b60 <g_pfnVectors-0x7fff4a0>
     b44:	000004d0 	ldrdeq	r0, [r0], -r0	; <UNPREDICTABLE>
     b48:	9301de01 	movwls	sp, #7681	; 0x1e01
     b4c:	02000000 	andeq	r0, r0, #0
     b50:	b31a6f91 	tstlt	sl, #580	; 0x244
     b54:	01000005 	tsteq	r0, r5
     b58:	009301de 			; <UNDEFINED> instruction: 0x009301de
     b5c:	91020000 	mrsls	r0, (UNDEF: 2)
     b60:	052f1c6e 	streq	r1, [pc, #-3182]!	; fffffefa <__StackTop+0xdfffaefa>
     b64:	e0010000 	and	r0, r1, r0
     b68:	0000b401 	andeq	fp, r0, r1, lsl #8
     b6c:	74910200 	ldrvc	r0, [r1], #512	; 0x200
     b70:	03cf1900 	biceq	r1, pc, #0, 18
     b74:	f3010000 	vhadd.u8	d0, d1, d0
     b78:	00000001 	andeq	r0, r0, r1
     b7c:	00002000 	andeq	r2, r0, r0
     b80:	349c0100 	ldrcc	r0, [ip], #256	; 0x100
     b84:	1a000006 	bne	ba4 <g_pfnVectors-0x7fff45c>
     b88:	000004b7 			; <UNDEFINED> instruction: 0x000004b7
     b8c:	0101f301 	tsteq	r1, r1, lsl #6
     b90:	02000001 	andeq	r0, r0, #1
     b94:	19007791 	stmdbne	r0, {r0, r4, r7, r8, r9, sl, ip, sp, lr}
     b98:	0000059a 	muleq	r0, sl, r5
     b9c:	00023501 	andeq	r3, r2, r1, lsl #10
     ba0:	e0000000 	and	r0, r0, r0
     ba4:	01000000 	mrseq	r0, (UNDEF: 0)
     ba8:	0006a59c 	muleq	r6, ip, r5
     bac:	064c1a00 	strbeq	r1, [ip], -r0, lsl #20
     bb0:	35010000 	strcc	r0, [r1, #-0]
     bb4:	0000b402 	andeq	fp, r0, r2, lsl #8
     bb8:	64910200 	ldrvs	r0, [r1], #512	; 0x200
     bbc:	0004b71a 	andeq	fp, r4, sl, lsl r7
     bc0:	02350100 	eorseq	r0, r5, #0, 2
     bc4:	00000101 	andeq	r0, r0, r1, lsl #2
     bc8:	1d639102 	stfnep	f1, [r3, #-8]!
     bcc:	00706d74 	rsbseq	r6, r0, r4, ror sp
     bd0:	b4023701 	strlt	r3, [r2], #-1793	; 0x701
     bd4:	02000000 	andeq	r0, r0, #0
     bd8:	331c7091 	tstcc	ip, #145	; 0x91
     bdc:	01000006 	tsteq	r0, r6
     be0:	00b40237 	adcseq	r0, r4, r7, lsr r2
     be4:	91020000 	mrsls	r0, (UNDEF: 2)
     be8:	052f1c6c 	streq	r1, [pc, #-3180]!	; ffffff84 <__StackTop+0xdfffaf84>
     bec:	37010000 	strcc	r0, [r1, -r0]
     bf0:	0000b402 	andeq	fp, r0, r2, lsl #8
     bf4:	74910200 	ldrvc	r0, [r1], #512	; 0x200
     bf8:	0005d51c 	andeq	sp, r5, ip, lsl r5
     bfc:	02370100 	eorseq	r0, r7, #0, 2
     c00:	000000b4 	strheq	r0, [r0], -r4
     c04:	00689102 	rsbeq	r9, r8, r2, lsl #2
     c08:	00055119 	andeq	r5, r5, r9, lsl r1
     c0c:	02710100 	rsbseq	r0, r1, #0, 2
     c10:	00000000 	andeq	r0, r0, r0
     c14:	0000007c 	andeq	r0, r0, ip, ror r0
     c18:	06e99c01 	strbteq	r9, [r9], r1, lsl #24
     c1c:	d01a0000 	andsle	r0, sl, r0
     c20:	01000004 	tsteq	r0, r4
     c24:	00930271 	addseq	r0, r3, r1, ror r2
     c28:	91020000 	mrsls	r0, (UNDEF: 2)
     c2c:	05b31a6f 	ldreq	r1, [r3, #2671]!	; 0xa6f
     c30:	71010000 	mrsvc	r0, (UNDEF: 1)
     c34:	00009302 	andeq	r9, r0, r2, lsl #6
     c38:	6e910200 	cdpvs	2, 9, cr0, cr1, cr0, {0}
     c3c:	706d741d 	rsbvc	r7, sp, sp, lsl r4
     c40:	02730100 	rsbseq	r0, r3, #0, 2
     c44:	000000b4 	strheq	r0, [r0], -r4
     c48:	00749102 	rsbseq	r9, r4, r2, lsl #2
     c4c:	00074719 	andeq	r4, r7, r9, lsl r7
     c50:	02860100 	addeq	r0, r6, #0, 2
     c54:	00000000 	andeq	r0, r0, r0
     c58:	0000001c 	andeq	r0, r0, ip, lsl r0
     c5c:	070f9c01 	streq	r9, [pc, -r1, lsl #24]
     c60:	6f1a0000 	svcvs	0x001a0000
     c64:	01000004 	tsteq	r0, r4
     c68:	00b40286 	adcseq	r0, r4, r6, lsl #5
     c6c:	91020000 	mrsls	r0, (UNDEF: 2)
     c70:	4a1e0074 	bmi	780e48 <g_pfnVectors-0x787f1b8>
     c74:	06000002 	streq	r0, [r0], -r2
     c78:	00db0607 	sbcseq	r0, fp, r7, lsl #12
     c7c:	28000000 	stmdacs	r0, {}	; <UNPREDICTABLE>
     c80:	04000011 	streq	r0, [r0], #-17
     c84:	0003c400 	andeq	ip, r3, r0, lsl #8
     c88:	0c010400 	cfstrseq	mvf0, [r1], {-0}
     c8c:	01000000 	mrseq	r0, (UNDEF: 0)
     c90:	00000edd 	ldrdeq	r0, [r0], -sp
     c94:	000008ea 	andeq	r0, r0, sl, ror #17
     c98:	000000e0 	andeq	r0, r0, r0, ror #1
     c9c:	00000000 	andeq	r0, r0, r0
     ca0:	00000728 	andeq	r0, r0, r8, lsr #14
     ca4:	000d5102 	andeq	r5, sp, r2, lsl #2
     ca8:	a7030100 	strge	r0, [r3, -r0, lsl #2]
     cac:	00000164 	andeq	r0, r0, r4, ror #2
     cb0:	000ab003 	andeq	fp, sl, r3
     cb4:	d3037200 	movwle	r7, #12800	; 0x3200
     cb8:	7400000a 	strvc	r0, [r0], #-10
     cbc:	000b9403 	andeq	r9, fp, r3, lsl #8
     cc0:	dc037500 	cfstr32le	mvfx7, [r3], {-0}
     cc4:	76000009 	strvc	r0, [r0], -r9
     cc8:	000bec03 	andeq	lr, fp, r3, lsl #24
     ccc:	44037b00 	strmi	r7, [r3], #-2816	; 0xb00
     cd0:	7c00000e 	stcvc	0, cr0, [r0], {14}
     cd4:	000fc003 	andeq	ip, pc, r3
     cd8:	b2037e00 	andlt	r7, r3, #0, 28
     cdc:	7f000008 	svcvc	0x00000008
     ce0:	000ac403 	andeq	ip, sl, r3, lsl #8
     ce4:	10030000 	andne	r0, r3, r0
     ce8:	0100000e 	tsteq	r0, lr
     cec:	00088403 	andeq	r8, r8, r3, lsl #8
     cf0:	1e030200 	cdpne	2, 0, cr0, cr3, cr0, {0}
     cf4:	03000010 	movweq	r0, #16
     cf8:	0007f703 	andeq	pc, r7, r3, lsl #14
     cfc:	8b030400 	blhi	c1d04 <g_pfnVectors-0x7f3e2fc>
     d00:	0500000e 	streq	r0, [r0, #-14]
     d04:	000e2c03 	andeq	r2, lr, r3, lsl #24
     d08:	a5030600 	strge	r0, [r3, #-1536]	; 0x600
     d0c:	0700000a 	streq	r0, [r0, -sl]
     d10:	00076e03 	andeq	r6, r7, r3, lsl #28
     d14:	b5030800 	strlt	r0, [r3, #-2048]	; 0x800
     d18:	0900000f 	stmdbeq	r0, {r0, r1, r2, r3}
     d1c:	000c4603 	andeq	r4, ip, r3, lsl #12
     d20:	9f030a00 	svcls	0x00030a00
     d24:	0b000009 	bleq	d50 <g_pfnVectors-0x7fff2b0>
     d28:	000eca03 	andeq	ip, lr, r3, lsl #20
     d2c:	6b030c00 	blvs	c3d34 <g_pfnVectors-0x7f3c2cc>
     d30:	0d00000e 	stceq	0, cr0, [r0, #-56]	; 0xffffffc8
     d34:	000ae903 	andeq	lr, sl, r3, lsl #18
     d38:	ad030e00 	stcge	14, cr0, [r3, #-0]
     d3c:	0f000007 	svceq	0x00000007
     d40:	000ff503 	andeq	pc, pc, r3, lsl #10
     d44:	90031000 	andls	r1, r3, r0
     d48:	1100000c 	tstne	r0, ip
     d4c:	000ea603 	andeq	sl, lr, r3, lsl #12
     d50:	ec031200 	sfm	f1, 4, [r3], {-0}
     d54:	13000009 	movwne	r0, #9
     d58:	000e5603 	andeq	r5, lr, r3, lsl #12
     d5c:	57031400 	strpl	r1, [r3, -r0, lsl #8]
     d60:	1500000f 	strne	r0, [r0, #-15]
     d64:	000b0f03 	andeq	r0, fp, r3, lsl #30
     d68:	85031600 	strhi	r1, [r3, #-1536]	; 0x600
     d6c:	1700000f 	strne	r0, [r0, -pc]
     d70:	0009b203 	andeq	fp, r9, r3, lsl #4
     d74:	42031800 	andmi	r1, r3, #0, 16
     d78:	1900000f 	stmdbne	r0, {r0, r1, r2, r3}
     d7c:	000d2203 	andeq	r2, sp, r3, lsl #4
     d80:	98031a00 	stmdals	r3, {r9, fp, ip}
     d84:	1b00000a 	blne	db4 <g_pfnVectors-0x7fff24c>
     d88:	00080e03 	andeq	r0, r8, r3, lsl #28
     d8c:	77031c00 	strvc	r1, [r3, -r0, lsl #24]
     d90:	1d00000d 	stcne	0, cr0, [r0, #-52]	; 0xffffffcc
     d94:	000a3003 	andeq	r3, sl, r3
     d98:	52031e00 	andpl	r1, r3, #0, 28
     d9c:	1f00000a 	svcne	0x0000000a
     da0:	00098b03 	andeq	r8, r9, r3, lsl #22
     da4:	5f032000 	svcpl	0x00032000
     da8:	2100000c 	tstcs	r0, ip
     dac:	000b6503 	andeq	r6, fp, r3, lsl #10
     db0:	d1032200 	mrsle	r2, R11_usr
     db4:	2300000b 	movwcs	r0, #11
     db8:	00082303 	andeq	r2, r8, r3, lsl #6
     dbc:	89032400 	stmdbhi	r3, {sl, sp}
     dc0:	2500000d 	strcs	r0, [r0, #-13]
     dc4:	000a3a03 	andeq	r3, sl, r3, lsl #20
     dc8:	d1032600 	tstle	r3, r0, lsl #12
     dcc:	27000008 	strcs	r0, [r0, -r8]
     dd0:	000d4703 	andeq	r4, sp, r3, lsl #14
     dd4:	38032800 	stmdacc	r3, {fp, sp}
     dd8:	2900000c 	stmdbcs	r0, {r2, r3}
     ddc:	000a2103 	andeq	r2, sl, r3, lsl #2
     de0:	04002a00 	streq	r2, [r0], #-2560	; 0xa00
     de4:	00000b1d 	andeq	r0, r0, sp, lsl fp
     de8:	2501d803 	strcs	sp, [r1, #-2051]	; 0x803
     dec:	05000000 	streq	r0, [r0, #-0]
     df0:	00000d3e 	andeq	r0, r0, lr, lsr sp
     df4:	017b1b04 	cmneq	fp, r4, lsl #22
     df8:	01060000 	mrseq	r0, (UNDEF: 6)
     dfc:	00016606 	andeq	r6, r1, r6, lsl #12
     e00:	01360500 	teqeq	r6, r0, lsl #10
     e04:	1c040000 	stcne	0, cr0, [r4], {-0}
     e08:	0000018d 	andeq	r0, r0, sp, lsl #3
     e0c:	64080106 	strvs	r0, [r8], #-262	; 0x106
     e10:	06000001 	streq	r0, [r0], -r1
     e14:	00f40502 	rscseq	r0, r4, r2, lsl #10
     e18:	c2050000 	andgt	r0, r5, #0
     e1c:	04000000 	streq	r0, [r0], #-0
     e20:	0001a626 	andeq	sl, r1, r6, lsr #12
     e24:	07020600 	streq	r0, [r2, -r0, lsl #12]
     e28:	000001dc 	ldrdeq	r0, [r0], -ip
     e2c:	00022405 	andeq	r2, r2, r5, lsl #8
     e30:	b8370400 	ldmdalt	r7!, {sl}
     e34:	06000001 	streq	r0, [r0], -r1
     e38:	01100504 	tsteq	r0, r4, lsl #10
     e3c:	b7050000 	strlt	r0, [r5, -r0]
     e40:	04000000 	streq	r0, [r0], #-0
     e44:	0001ca38 	andeq	ip, r1, r8, lsr sl
     e48:	07040600 	streq	r0, [r4, -r0, lsl #12]
     e4c:	0000019d 	muleq	r0, sp, r1
     e50:	0b050806 	bleq	142e70 <g_pfnVectors-0x7ebd190>
     e54:	06000001 	streq	r0, [r0], -r1
     e58:	01980708 	orrseq	r0, r8, r8, lsl #14
     e5c:	04070000 	streq	r0, [r7], #-0
     e60:	746e6905 	strbtvc	r6, [lr], #-2309	; 0x905
     e64:	07040600 	streq	r0, [r4, -r0, lsl #12]
     e68:	000001a2 	andeq	r0, r0, r2, lsr #3
     e6c:	000d4005 	andeq	r4, sp, r5
     e70:	70290500 	eorvc	r0, r9, r0, lsl #10
     e74:	05000001 	streq	r0, [r0, #-1]
     e78:	00000138 	andeq	r0, r0, r8, lsr r1
     e7c:	01822a05 	orreq	r2, r2, r5, lsl #20
     e80:	c4050000 	strgt	r0, [r5], #-0
     e84:	05000000 	streq	r0, [r0, #-0]
     e88:	00019b36 	andeq	r9, r1, r6, lsr fp
     e8c:	02260500 	eoreq	r0, r6, #0, 10
     e90:	41050000 	mrsmi	r0, (UNDEF: 5)
     e94:	000001ad 	andeq	r0, r0, sp, lsr #3
     e98:	0000b905 	andeq	fp, r0, r5, lsl #18
     e9c:	bf420500 	svclt	0x00420500
     ea0:	08000001 	stmdaeq	r0, {r0}
     ea4:	19010e04 	stmdbne	r1, {r2, r9, sl, fp}
     ea8:	0002e001 	andeq	lr, r2, r1
     eac:	0fdd0900 	svceq	0x00dd0900
     eb0:	1b010000 	blne	40eb8 <g_pfnVectors-0x7fbf148>
     eb4:	0002f701 	andeq	pc, r2, r1, lsl #14
     eb8:	dd090000 	stcle	0, cr0, [r9, #-0]
     ebc:	01000000 	mrseq	r0, (UNDEF: 0)
     ec0:	02fc011c 	rscseq	r0, ip, #28, 2
     ec4:	09200000 	stmdbeq	r0!, {}	; <UNPREDICTABLE>
     ec8:	00000dca 	andeq	r0, r0, sl, asr #27
     ecc:	0c011d01 	stceq	13, cr1, [r1], {1}
     ed0:	80000003 	andhi	r0, r0, r3
     ed4:	00076509 	andeq	r6, r7, r9, lsl #10
     ed8:	011e0100 	tsteq	lr, r0, lsl #2
     edc:	000002fc 	strdeq	r0, [r0], -ip
     ee0:	0fb00aa0 	svceq	0x00b00aa0
     ee4:	1f010000 	svcne	0x00010000
     ee8:	00031101 	andeq	r1, r3, r1, lsl #2
     eec:	0a010000 	beq	40ef4 <g_pfnVectors-0x7fbf10c>
     ef0:	000009c0 	andeq	r0, r0, r0, asr #19
     ef4:	fc012001 	stc2	0, cr2, [r1], {1}
     ef8:	20000002 	andcs	r0, r0, r2
     efc:	08180a01 	ldmdaeq	r8, {r0, r9, fp}
     f00:	21010000 	mrscs	r0, (UNDEF: 1)
     f04:	00031601 	andeq	r1, r3, r1, lsl #12
     f08:	0a018000 	beq	60f10 <g_pfnVectors-0x7f9f0f0>
     f0c:	0000094d 	andeq	r0, r0, sp, asr #18
     f10:	fc012201 	stc2	2, cr2, [r1], {1}
     f14:	a0000002 	andge	r0, r0, r2
     f18:	09750a01 	ldmdbeq	r5!, {r0, r9, fp}^
     f1c:	23010000 	movwcs	r0, #4096	; 0x1000
     f20:	00031b01 	andeq	r1, r3, r1, lsl #22
     f24:	0a020000 	beq	80f2c <g_pfnVectors-0x7f7f0d4>
     f28:	00000957 	andeq	r0, r0, r7, asr r9
     f2c:	20012401 	andcs	r2, r1, r1, lsl #8
     f30:	20000003 	andcs	r0, r0, r3
     f34:	50490b02 	subpl	r0, r9, r2, lsl #22
     f38:	01250100 	teqeq	r5, r0, lsl #2
     f3c:	00000340 	andeq	r0, r0, r0, asr #6
     f40:	610a0300 	mrsvs	r0, (UNDEF: 58)
     f44:	01000009 	tsteq	r0, r9
     f48:	03450126 	movteq	r0, #20774	; 0x5126
     f4c:	03f00000 	mvnseq	r0, #0
     f50:	000a4d0a 	andeq	r4, sl, sl, lsl #26
     f54:	01270100 	teqeq	r7, r0, lsl #2
     f58:	00000356 	andeq	r0, r0, r6, asr r3
     f5c:	0c000e00 	stceq	14, cr0, [r0], {-0}
     f60:	00000219 	andeq	r0, r0, r9, lsl r2
     f64:	000002f0 	strdeq	r0, [r0], -r0	; <UNPREDICTABLE>
     f68:	0002f00d 	andeq	pc, r2, sp
     f6c:	06000700 	streq	r0, [r0], -r0, lsl #14
     f70:	00a90704 	adceq	r0, r9, r4, lsl #14
     f74:	e00e0000 	and	r0, lr, r0
     f78:	0c000002 	stceq	0, cr0, [r0], {2}
     f7c:	00000219 	andeq	r0, r0, r9, lsl r2
     f80:	0000030c 	andeq	r0, r0, ip, lsl #6
     f84:	0002f00d 	andeq	pc, r2, sp
     f88:	0e001700 	cdpeq	7, 0, cr1, cr0, cr0, {0}
     f8c:	000002e0 	andeq	r0, r0, r0, ror #5
     f90:	0002e00e 	andeq	lr, r2, lr
     f94:	02e00e00 	rsceq	r0, r0, #0, 28
     f98:	e00e0000 	and	r0, lr, r0
     f9c:	0c000002 	stceq	0, cr0, [r0], {2}
     fa0:	00000219 	andeq	r0, r0, r9, lsl r2
     fa4:	00000330 	andeq	r0, r0, r0, lsr r3
     fa8:	0002f00d 	andeq	pc, r2, sp
     fac:	0c003700 	stceq	7, cr3, [r0], {-0}
     fb0:	000001f8 	strdeq	r0, [r0], -r8
     fb4:	00000340 	andeq	r0, r0, r0, asr #6
     fb8:	0002f00d 	andeq	pc, r2, sp
     fbc:	0e00ef00 	cdpeq	15, 0, cr14, cr0, cr0, {0}
     fc0:	00000330 	andeq	r0, r0, r0, lsr r3
     fc4:	0002190c 	andeq	r1, r2, ip, lsl #18
     fc8:	00035600 	andeq	r5, r3, r0, lsl #12
     fcc:	02f00f00 	rscseq	r0, r0, #0, 30
     fd0:	02830000 	addeq	r0, r3, #0
     fd4:	02190e00 	andseq	r0, r9, #0, 28
     fd8:	34040000 	strcc	r0, [r4], #-0
     fdc:	0100000d 	tsteq	r0, sp
     fe0:	02240128 	eoreq	r0, r4, #40, 2
     fe4:	8c100000 	ldchi	0, cr0, [r0], {-0}
     fe8:	82013901 	andhi	r3, r1, #16384	; 0x4000
     fec:	09000004 	stmdbeq	r0, {r2}
     ff0:	000000d7 	ldrdeq	r0, [r0], -r7
     ff4:	82013b01 	andhi	r3, r1, #1024	; 0x400
     ff8:	00000004 	andeq	r0, r0, r4
     ffc:	0000fe09 	andeq	pc, r0, r9, lsl #28
    1000:	013c0100 	teqeq	ip, r0, lsl #2
    1004:	00000356 	andeq	r0, r0, r6, asr r3
    1008:	01ef0904 	mvneq	r0, r4, lsl #18
    100c:	3d010000 	stccc	0, cr0, [r1, #-0]
    1010:	00035601 	andeq	r5, r3, r1, lsl #12
    1014:	72090800 	andvc	r0, r9, #0, 16
    1018:	01000001 	tsteq	r0, r1
    101c:	0356013e 	cmpeq	r6, #-2147483633	; 0x8000000f
    1020:	110c0000 	mrsne	r0, (UNDEF: 12)
    1024:	00524353 	subseq	r4, r2, r3, asr r3
    1028:	56013f01 	strpl	r3, [r1], -r1, lsl #30
    102c:	10000003 	andne	r0, r0, r3
    1030:	52434311 	subpl	r4, r3, #1140850688	; 0x44000000
    1034:	01400100 	mrseq	r0, (UNDEF: 80)
    1038:	00000356 	andeq	r0, r0, r6, asr r3
    103c:	48531114 	ldmdami	r3, {r2, r4, r8, ip}^
    1040:	41010050 	qaddmi	r0, r0, r1
    1044:	00049701 	andeq	r9, r4, r1, lsl #14
    1048:	af091800 	svcge	0x00091800
    104c:	01000001 	tsteq	r0, r1
    1050:	03560142 	cmpeq	r6, #-2147483632	; 0x80000010
    1054:	09240000 	stmdbeq	r4!, {}	; <UNPREDICTABLE>
    1058:	00000145 	andeq	r0, r0, r5, asr #2
    105c:	56014301 	strpl	r4, [r1], -r1, lsl #6
    1060:	28000003 	stmdacs	r0, {r0, r1}
    1064:	00020e09 	andeq	r0, r2, r9, lsl #28
    1068:	01440100 	mrseq	r0, (UNDEF: 84)
    106c:	00000356 	andeq	r0, r0, r6, asr r3
    1070:	01f9092c 	mvnseq	r0, ip, lsr #18
    1074:	45010000 	strmi	r0, [r1, #-0]
    1078:	00035601 	andeq	r5, r3, r1, lsl #12
    107c:	cb093000 	blgt	24d084 <g_pfnVectors-0x7db2f7c>
    1080:	01000001 	tsteq	r0, r1
    1084:	03560146 	cmpeq	r6, #-2147483631	; 0x80000011
    1088:	09340000 	ldmdbeq	r4!, {}	; <UNPREDICTABLE>
    108c:	00000119 	andeq	r0, r0, r9, lsl r1
    1090:	56014701 	strpl	r4, [r1], -r1, lsl #14
    1094:	38000003 	stmdacc	r0, {r0, r1}
    1098:	00022e09 	andeq	r2, r2, r9, lsl #28
    109c:	01480100 	mrseq	r0, (UNDEF: 88)
    10a0:	00000356 	andeq	r0, r0, r6, asr r3
    10a4:	4650113c 			; <UNDEFINED> instruction: 0x4650113c
    10a8:	49010052 	stmdbmi	r1, {r1, r4, r6}
    10ac:	0004ac01 	andeq	sl, r4, r1, lsl #24
    10b0:	44114000 	ldrmi	r4, [r1], #-0
    10b4:	01005246 	tsteq	r0, r6, asr #4
    10b8:	0482014a 	streq	r0, [r2], #330	; 0x14a
    10bc:	11480000 	mrsne	r0, (UNDEF: 72)
    10c0:	00524441 	subseq	r4, r2, r1, asr #8
    10c4:	82014b01 	andhi	r4, r1, #1024	; 0x400
    10c8:	4c000004 	stcmi	0, cr0, [r0], {4}
    10cc:	00021309 	andeq	r1, r2, r9, lsl #6
    10d0:	014c0100 	mrseq	r0, (UNDEF: 92)
    10d4:	000004c6 	andeq	r0, r0, r6, asr #9
    10d8:	01f40950 	mvnseq	r0, r0, asr r9
    10dc:	4d010000 	stcmi	0, cr0, [r1, #-0]
    10e0:	0004e001 	andeq	lr, r4, r1
    10e4:	dd096000 	stcle	0, cr6, [r9, #-0]
    10e8:	01000000 	mrseq	r0, (UNDEF: 0)
    10ec:	04d0014e 	ldrbeq	r0, [r0], #334	; 0x14e
    10f0:	09740000 	ldmdbeq	r4!, {}^	; <UNPREDICTABLE>
    10f4:	00000257 	andeq	r0, r0, r7, asr r2
    10f8:	56014f01 	strpl	r4, [r1], -r1, lsl #30
    10fc:	88000003 	stmdahi	r0, {r0, r1}
    1100:	03561200 	cmpeq	r6, #0, 4
    1104:	f80c0000 			; <UNDEFINED> instruction: 0xf80c0000
    1108:	97000001 	strls	r0, [r0, -r1]
    110c:	0d000004 	stceq	0, cr0, [r0, #-16]
    1110:	000002f0 	strdeq	r0, [r0], -r0	; <UNPREDICTABLE>
    1114:	870e000b 	strhi	r0, [lr, -fp]
    1118:	0c000004 	stceq	0, cr0, [r0], {4}
    111c:	00000219 	andeq	r0, r0, r9, lsl r2
    1120:	000004ac 	andeq	r0, r0, ip, lsr #9
    1124:	0002f00d 	andeq	pc, r2, sp
    1128:	12000100 	andne	r0, r0, #0, 2
    112c:	000004b1 			; <UNDEFINED> instruction: 0x000004b1
    1130:	00049c0e 	andeq	r9, r4, lr, lsl #24
    1134:	02190c00 	andseq	r0, r9, #0, 24
    1138:	04c60000 	strbeq	r0, [r6], #0
    113c:	f00d0000 			; <UNDEFINED> instruction: 0xf00d0000
    1140:	03000002 	movweq	r0, #2
    1144:	04cb1200 	strbeq	r1, [fp], #512	; 0x200
    1148:	b60e0000 	strlt	r0, [lr], -r0
    114c:	0c000004 	stceq	0, cr0, [r0], {4}
    1150:	00000219 	andeq	r0, r0, r9, lsl r2
    1154:	000004e0 	andeq	r0, r0, r0, ror #9
    1158:	0002f00d 	andeq	pc, r2, sp
    115c:	12000400 	andne	r0, r0, #0, 8
    1160:	000004e5 	andeq	r0, r0, r5, ror #9
    1164:	0004d00e 	andeq	sp, r4, lr
    1168:	01780400 	cmneq	r8, r0, lsl #8
    116c:	50010000 	andpl	r0, r1, r0
    1170:	00036701 	andeq	r6, r3, r1, lsl #14
    1174:	01101000 	tsteq	r0, r0
    1178:	0534023f 	ldreq	r0, [r4, #-575]!	; 0x23f
    117c:	51090000 	mrspl	r0, (UNDEF: 9)
    1180:	0100000c 	tsteq	r0, ip
    1184:	03560241 	cmpeq	r6, #268435460	; 0x10000004
    1188:	09000000 	stmdbeq	r0, {}	; <UNPREDICTABLE>
    118c:	00000c2d 	andeq	r0, r0, sp, lsr #24
    1190:	56024201 	strpl	r4, [r2], -r1, lsl #4
    1194:	04000003 	streq	r0, [r0], #-3
    1198:	4c415611 	mcrrmi	6, 1, r5, r1, cr1
    119c:	02430100 	subeq	r0, r3, #0, 2
    11a0:	00000356 	andeq	r0, r0, r6, asr r3
    11a4:	0e200908 	cdpeq	9, 2, cr0, cr0, cr8, {0}
    11a8:	44010000 	strmi	r0, [r1], #-0
    11ac:	00048202 	andeq	r8, r4, r2, lsl #4
    11b0:	04000c00 	streq	r0, [r0], #-3072	; 0xc00
    11b4:	00000ce4 	andeq	r0, r0, r4, ror #25
    11b8:	f6024501 			; <UNDEFINED> instruction: 0xf6024501
    11bc:	0e000004 	cdpeq	0, 0, cr0, cr0, cr4, {0}
    11c0:	00000203 	andeq	r0, r0, r3, lsl #4
    11c4:	00020e0e 	andeq	r0, r2, lr, lsl #28
    11c8:	03011300 	movweq	r1, #4864	; 0x1300
    11cc:	05600207 	strbeq	r0, [r0, #-519]!	; 0x207
    11d0:	5b030000 	blpl	c11d8 <g_pfnVectors-0x7f3ee28>
    11d4:	00000004 	andeq	r0, r0, r4
    11d8:	54455314 	strbpl	r5, [r5], #-788	; 0x314
    11dc:	13000100 	movwne	r0, #256	; 0x100
    11e0:	02090301 	andeq	r0, r9, #67108864	; 0x4000000
    11e4:	00000576 	andeq	r0, r0, r6, ror r5
    11e8:	0004c803 	andeq	ip, r4, r3, lsl #16
    11ec:	94030000 	strls	r0, [r3], #-0
    11f0:	01000004 	tsteq	r0, r4
    11f4:	031c1000 	tsteq	ip, #0
    11f8:	05db03e9 	ldrbeq	r0, [fp, #1001]	; 0x3e9
    11fc:	43110000 	tstmi	r1, #0
    1200:	03004c52 	movweq	r4, #3154	; 0xc52
    1204:	035603eb 	cmpeq	r6, #-1409286141	; 0xac000003
    1208:	11000000 	mrsne	r0, (UNDEF: 0)
    120c:	00485243 	subeq	r5, r8, r3, asr #4
    1210:	5603ec03 	strpl	lr, [r3], -r3, lsl #24
    1214:	04000003 	streq	r0, [r0], #-3
    1218:	52444911 	subpl	r4, r4, #278528	; 0x44000
    121c:	03ed0300 	mvneq	r0, #0, 6
    1220:	00000356 	andeq	r0, r0, r6, asr r3
    1224:	444f1108 	strbmi	r1, [pc], #-264	; 122c <g_pfnVectors-0x7ffedd4>
    1228:	ee030052 	mcr	0, 0, r0, cr3, cr2, {2}
    122c:	00035603 	andeq	r5, r3, r3, lsl #12
    1230:	03090c00 	movweq	r0, #39936	; 0x9c00
    1234:	03000005 	movweq	r0, #5
    1238:	035603ef 	cmpeq	r6, #-1140850685	; 0xbc000003
    123c:	11100000 	tstne	r0, r0
    1240:	00525242 	subseq	r5, r2, r2, asr #4
    1244:	5603f003 	strpl	pc, [r3], -r3
    1248:	14000003 	strne	r0, [r0], #-3
    124c:	0005ae09 	andeq	sl, r5, r9, lsl #28
    1250:	03f10300 	mvnseq	r0, #0, 6
    1254:	00000356 	andeq	r0, r0, r6, asr r3
    1258:	86040018 			; <UNDEFINED> instruction: 0x86040018
    125c:	03000003 	movweq	r0, #3
    1260:	057603f2 	ldrbeq	r0, [r6, #-1010]!	; 0x3f2
    1264:	1c100000 	ldcne	0, cr0, [r0], {-0}
    1268:	a504d203 	strge	sp, [r4, #-515]	; 0x203
    126c:	11000006 	tstne	r0, r6
    1270:	03005253 	movweq	r5, #595	; 0x253
    1274:	054004d4 	strbeq	r0, [r0, #-1236]	; 0x4d4
    1278:	09000000 	stmdbeq	r0, {}	; <UNPREDICTABLE>
    127c:	000000dd 	ldrdeq	r0, [r0], -sp
    1280:	0304d503 	movweq	sp, #17667	; 0x4503
    1284:	02000002 	andeq	r0, r0, #2
    1288:	00524411 	subseq	r4, r2, r1, lsl r4
    128c:	4004d603 	andmi	sp, r4, r3, lsl #12
    1290:	04000005 	streq	r0, [r0], #-5
    1294:	00094309 	andeq	r4, r9, r9, lsl #6
    1298:	04d70300 	ldrbeq	r0, [r7], #768	; 0x300
    129c:	00000203 	andeq	r0, r0, r3, lsl #4
    12a0:	52421106 	subpl	r1, r2, #-2147483647	; 0x80000001
    12a4:	d8030052 	stmdale	r3, {r1, r4, r6}
    12a8:	00054004 	andeq	r4, r5, r4
    12ac:	c0090800 	andgt	r0, r9, r0, lsl #16
    12b0:	03000009 	movweq	r0, #9
    12b4:	020304d9 	andeq	r0, r3, #-654311424	; 0xd9000000
    12b8:	110a0000 	mrsne	r0, (UNDEF: 10)
    12bc:	00315243 	eorseq	r5, r1, r3, asr #4
    12c0:	4004da03 	andmi	sp, r4, r3, lsl #20
    12c4:	0c000005 	stceq	0, cr0, [r0], {5}
    12c8:	00094d09 	andeq	r4, r9, r9, lsl #26
    12cc:	04db0300 	ldrbeq	r0, [fp], #768	; 0x300
    12d0:	00000203 	andeq	r0, r0, r3, lsl #4
    12d4:	5243110e 	subpl	r1, r3, #-2147483645	; 0x80000003
    12d8:	dc030032 	stcle	0, cr0, [r3], {50}	; 0x32
    12dc:	00054004 	andeq	r4, r5, r4
    12e0:	57091000 	strpl	r1, [r9, -r0]
    12e4:	03000009 	movweq	r0, #9
    12e8:	020304dd 	andeq	r0, r3, #-587202560	; 0xdd000000
    12ec:	11120000 	tstne	r2, r0
    12f0:	00335243 	eorseq	r5, r3, r3, asr #4
    12f4:	4004de03 	andmi	sp, r4, r3, lsl #28
    12f8:	14000005 	strne	r0, [r0], #-5
    12fc:	00096109 	andeq	r6, r9, r9, lsl #2
    1300:	04df0300 	ldrbeq	r0, [pc], #768	; 1308 <g_pfnVectors-0x7ffecf8>
    1304:	00000203 	andeq	r0, r0, r3, lsl #4
    1308:	07930916 			; <UNDEFINED> instruction: 0x07930916
    130c:	e0030000 	and	r0, r3, r0
    1310:	00054004 	andeq	r4, r5, r4
    1314:	6b091800 	blvs	24731c <g_pfnVectors-0x7db8ce4>
    1318:	03000009 	movweq	r0, #9
    131c:	020304e1 	andeq	r0, r3, #-520093696	; 0xe1000000
    1320:	001a0000 	andseq	r0, sl, r0
    1324:	000a1304 	andeq	r1, sl, r4, lsl #6
    1328:	04e20300 	strbteq	r0, [r2], #768	; 0x300
    132c:	000005e7 	andeq	r0, r0, r7, ror #11
    1330:	3b060115 	blcc	18178c <g_pfnVectors-0x7e7e874>
    1334:	000006cc 	andeq	r0, r0, ip, asr #13
    1338:	00051e03 	andeq	r1, r5, r3, lsl #28
    133c:	65030100 	strvs	r0, [r3, #-256]	; 0x100
    1340:	02000005 	andeq	r0, r0, #5
    1344:	0005eb03 	andeq	lr, r5, r3, lsl #22
    1348:	05000300 	streq	r0, [r0, #-768]	; 0x300
    134c:	00000678 	andeq	r0, r0, r8, ror r6
    1350:	06b13f06 	ldrteq	r3, [r1], r6, lsl #30
    1354:	01150000 	tsteq	r5, r0
    1358:	07114806 	ldreq	r4, [r1, -r6, lsl #16]
    135c:	3e030000 	cdpcc	0, 0, cr0, cr3, cr0, {0}
    1360:	00000006 	andeq	r0, r0, r6
    1364:	0006fa03 	andeq	pc, r6, r3, lsl #20
    1368:	dd030400 	cfstrsle	mvf0, [r3, #-0]
    136c:	28000005 	stmdacs	r0, {r0, r2}
    1370:	00062503 	andeq	r2, r6, r3, lsl #10
    1374:	0300c800 	movweq	ip, #2048	; 0x800
    1378:	00000540 	andeq	r0, r0, r0, asr #10
    137c:	06b50314 	ssateq	r0, #22, r4, lsl #6
    1380:	03100000 	tsteq	r0, #0
    1384:	00000737 	andeq	r0, r0, r7, lsr r7
    1388:	03bf031c 			; <UNDEFINED> instruction: 0x03bf031c
    138c:	00180000 	andseq	r0, r8, r0
    1390:	0006da05 	andeq	sp, r6, r5, lsl #20
    1394:	d7500600 	ldrble	r0, [r0, -r0, lsl #12]
    1398:	16000006 	strne	r0, [r0], -r6
    139c:	495b0604 	ldmdbmi	fp, {r2, r9, sl}^
    13a0:	17000007 	strne	r0, [r0, -r7]
    13a4:	0000039a 	muleq	r0, sl, r3
    13a8:	02035d06 	andeq	r5, r3, #384	; 0x180
    13ac:	17000000 	strne	r0, [r0, -r0]
    13b0:	0000049b 	muleq	r0, fp, r4
    13b4:	06cc6006 	strbeq	r6, [ip], r6
    13b8:	17020000 	strne	r0, [r2, -r0]
    13bc:	00000657 	andeq	r0, r0, r7, asr r6
    13c0:	07116306 	ldreq	r6, [r1, -r6, lsl #6]
    13c4:	00030000 	andeq	r0, r3, r0
    13c8:	00057505 	andeq	r7, r5, r5, lsl #10
    13cc:	1c650600 	stclne	6, cr0, [r5], #-0
    13d0:	16000007 	strne	r0, [r0], -r7
    13d4:	a5320710 	ldrge	r0, [r2, #-1808]!	; 0x710
    13d8:	17000007 	strne	r0, [r0, -r7]
    13dc:	00000a76 	andeq	r0, r0, r6, ror sl
    13e0:	02193407 	andseq	r3, r9, #117440512	; 0x7000000
    13e4:	17000000 	strne	r0, [r0, -r0]
    13e8:	0000097a 	andeq	r0, r0, sl, ror r9
    13ec:	02033907 	andeq	r3, r3, #114688	; 0x1c000
    13f0:	17040000 	strne	r0, [r4, -r0]
    13f4:	00000b39 	andeq	r0, r0, r9, lsr fp
    13f8:	02033c07 	andeq	r3, r3, #1792	; 0x700
    13fc:	17060000 	strne	r0, [r6, -r0]
    1400:	000009cf 	andeq	r0, r0, pc, asr #19
    1404:	02033f07 	andeq	r3, r3, #7, 30
    1408:	17080000 	strne	r0, [r8, -r0]
    140c:	00000a85 	andeq	r0, r0, r5, lsl #21
    1410:	02034607 	andeq	r4, r3, #7340032	; 0x700000
    1414:	170a0000 	strne	r0, [sl, -r0]
    1418:	00000f6b 	andeq	r0, r0, fp, ror #30
    141c:	02034907 	andeq	r4, r3, #114688	; 0x1c000
    1420:	000c0000 	andeq	r0, ip, r0
    1424:	000dfe05 	andeq	pc, sp, r5, lsl #28
    1428:	544c0700 	strbpl	r0, [ip], #-1792	; 0x700
    142c:	18000007 	stmdane	r0, {r0, r1, r2}
    1430:	0b270504 	bleq	9c2848 <g_pfnVectors-0x763d7b8>
    1434:	07080000 	streq	r0, [r8, -r0]
    1438:	000001df 	ldrdeq	r0, [r0], -pc	; <UNPREDICTABLE>
    143c:	000f9205 	andeq	r9, pc, r5, lsl #4
    1440:	b8100900 	ldmdalt	r0, {r8, fp}
    1444:	05000001 	streq	r0, [r0, #-1]
    1448:	00000d13 	andeq	r0, r0, r3, lsl sp
    144c:	01b82709 			; <UNDEFINED> instruction: 0x01b82709
    1450:	19040000 	stmdbne	r4, {}	; <UNPREDICTABLE>
    1454:	0a00000e 	beq	1494 <g_pfnVectors-0x7ffeb6c>
    1458:	01e60161 	mvneq	r0, r1, ror #2
    145c:	04190000 	ldreq	r0, [r9], #-0
    1460:	07fe4a09 	ldrbeq	r4, [lr, r9, lsl #20]!
    1464:	1d1a0000 	ldcne	0, cr0, [sl, #-0]
    1468:	09000008 	stmdbeq	r0, {r3}
    146c:	0007d34c 	andeq	sp, r7, ip, asr #6
    1470:	0d1b1a00 	vldreq	s2, [fp, #-0]
    1474:	4d090000 	stcmi	0, cr0, [r9, #-0]
    1478:	000007fe 	strdeq	r0, [r0], -lr
    147c:	018d0c00 	orreq	r0, sp, r0, lsl #24
    1480:	080e0000 	stmdaeq	lr, {}	; <UNPREDICTABLE>
    1484:	f00d0000 			; <UNDEFINED> instruction: 0xf00d0000
    1488:	03000002 	movweq	r0, #2
    148c:	09081600 	stmdbeq	r8, {r9, sl, ip}
    1490:	00082f47 	andeq	r2, r8, r7, asr #30
    1494:	0cdc1700 	ldcleq	7, cr1, [ip], {0}
    1498:	49090000 	stmdbmi	r9, {}	; <UNPREDICTABLE>
    149c:	000001df 	ldrdeq	r0, [r0], -pc	; <UNPREDICTABLE>
    14a0:	07791700 	ldrbeq	r1, [r9, -r0, lsl #14]!
    14a4:	4e090000 	cdpmi	0, 0, cr0, cr9, cr0, {0}
    14a8:	000007df 	ldrdeq	r0, [r0], -pc	; <UNPREDICTABLE>
    14ac:	df050004 	svcle	0x00050004
    14b0:	0900000d 	stmdbeq	r0, {r0, r2, r3}
    14b4:	00080e4f 	andeq	r0, r8, pc, asr #28
    14b8:	0dcf0500 	cfstr64eq	mvdx0, [pc]	; 14c0 <g_pfnVectors-0x7ffeb40>
    14bc:	53090000 	movwpl	r0, #36864	; 0x9000
    14c0:	000007b2 			; <UNDEFINED> instruction: 0x000007b2
    14c4:	000f3a05 	andeq	r3, pc, r5, lsl #20
    14c8:	ca160b00 	bgt	5840d0 <g_pfnVectors-0x7a7bf30>
    14cc:	1b000001 	blne	14d8 <g_pfnVectors-0x7ffeb28>
    14d0:	00000b72 	andeq	r0, r0, r2, ror fp
    14d4:	a32d0b18 	teqge	sp, #24, 22	; 0x6000
    14d8:	17000008 	strne	r0, [r0, -r8]
    14dc:	00000cc7 	andeq	r0, r0, r7, asr #25
    14e0:	08a32f0b 	stmiaeq	r3!, {r0, r1, r3, r8, r9, sl, fp, sp}
    14e4:	1c000000 	stcne	0, cr0, [r0], {-0}
    14e8:	0b006b5f 	bleq	1c26c <g_pfnVectors-0x7fe3d94>
    14ec:	0001df30 	andeq	sp, r1, r0, lsr pc
    14f0:	82170400 	andshi	r0, r7, #0, 8
    14f4:	0b00000b 	bleq	1528 <g_pfnVectors-0x7ffead8>
    14f8:	0001df30 	andeq	sp, r1, r0, lsr pc
    14fc:	32170800 	andscc	r0, r7, #0, 16
    1500:	0b00000c 	bleq	1538 <g_pfnVectors-0x7ffeac8>
    1504:	0001df30 	andeq	sp, r1, r0, lsr pc
    1508:	67170c00 	ldrvs	r0, [r7, -r0, lsl #24]
    150c:	0b00000a 	bleq	153c <g_pfnVectors-0x7ffeac4>
    1510:	0001df30 	andeq	sp, r1, r0, lsr pc
    1514:	5f1c1000 	svcpl	0x001c1000
    1518:	310b0078 	tstcc	fp, r8, ror r0
    151c:	000008a9 	andeq	r0, r0, r9, lsr #17
    1520:	041d0014 	ldreq	r0, [sp], #-20
    1524:	00000850 	andeq	r0, r0, r0, asr r8
    1528:	0008450c 	andeq	r4, r8, ip, lsl #10
    152c:	0008b900 	andeq	fp, r8, r0, lsl #18
    1530:	02f00d00 	rscseq	r0, r0, #0, 26
    1534:	00000000 	andeq	r0, r0, r0
    1538:	0007c81b 	andeq	ip, r7, fp, lsl r8
    153c:	350b2400 	strcc	r2, [fp, #-1024]	; 0x400
    1540:	00000932 	andeq	r0, r0, r2, lsr r9
    1544:	0007e417 	andeq	lr, r7, r7, lsl r4
    1548:	df370b00 	svcle	0x00370b00
    154c:	00000001 	andeq	r0, r0, r1
    1550:	00100817 	andseq	r0, r0, r7, lsl r8
    1554:	df380b00 	svcle	0x00380b00
    1558:	04000001 	streq	r0, [r0], #-1
    155c:	000f9e17 	andeq	r9, pc, r7, lsl lr	; <UNPREDICTABLE>
    1560:	df390b00 	svcle	0x00390b00
    1564:	08000001 	stmdaeq	r0, {r0}
    1568:	000c7b17 	andeq	r7, ip, r7, lsl fp
    156c:	df3a0b00 	svcle	0x003a0b00
    1570:	0c000001 	stceq	0, cr0, [r0], {1}
    1574:	00089517 	andeq	r9, r8, r7, lsl r5
    1578:	df3b0b00 	svcle	0x003b0b00
    157c:	10000001 	andne	r0, r0, r1
    1580:	000eb217 	andeq	fp, lr, r7, lsl r2
    1584:	df3c0b00 	svcle	0x003c0b00
    1588:	14000001 	strne	r0, [r0], #-1
    158c:	000cf117 	andeq	pc, ip, r7, lsl r1	; <UNPREDICTABLE>
    1590:	df3d0b00 	svcle	0x003d0b00
    1594:	18000001 	stmdane	r0, {r0}
    1598:	000cfb17 	andeq	pc, ip, r7, lsl fp	; <UNPREDICTABLE>
    159c:	df3e0b00 	svcle	0x003e0b00
    15a0:	1c000001 	stcne	0, cr0, [r0], {1}
    15a4:	000fea17 	andeq	lr, pc, r7, lsl sl	; <UNPREDICTABLE>
    15a8:	df3f0b00 	svcle	0x003f0b00
    15ac:	20000001 	andcs	r0, r0, r1
    15b0:	08331e00 	ldmdaeq	r3!, {r9, sl, fp, ip}
    15b4:	01080000 	mrseq	r0, (UNDEF: 8)
    15b8:	0972480b 	ldmdbeq	r2!, {r0, r1, r3, fp, lr}^
    15bc:	e2170000 	ands	r0, r7, #0
    15c0:	0b00000f 	bleq	1604 <g_pfnVectors-0x7ffe9fc>
    15c4:	00097249 	andeq	r7, r9, r9, asr #4
    15c8:	56170000 	ldrpl	r0, [r7], -r0
    15cc:	0b00000d 	bleq	1608 <g_pfnVectors-0x7ffe9f8>
    15d0:	0009724a 	andeq	r7, r9, sl, asr #4
    15d4:	9d1f8000 	ldcls	0, cr8, [pc, #-0]	; 15dc <g_pfnVectors-0x7ffea24>
    15d8:	0b00000e 	bleq	1618 <g_pfnVectors-0x7ffe9e8>
    15dc:	0008454c 	andeq	r4, r8, ip, asr #10
    15e0:	1f010000 	svcne	0x00010000
    15e4:	00000f2b 	andeq	r0, r0, fp, lsr #30
    15e8:	08454f0b 	stmdaeq	r5, {r0, r1, r3, r8, r9, sl, fp, lr}^
    15ec:	01040000 	mrseq	r0, (UNDEF: 4)
    15f0:	07b00c00 	ldreq	r0, [r0, r0, lsl #24]!
    15f4:	09820000 	stmibeq	r2, {}	; <UNPREDICTABLE>
    15f8:	f00d0000 			; <UNDEFINED> instruction: 0xf00d0000
    15fc:	1f000002 	svcne	0x00000002
    1600:	0cd41e00 	ldcleq	14, cr1, [r4], {0}
    1604:	01900000 	orrseq	r0, r0, r0
    1608:	09c05b0b 	stmibeq	r0, {r0, r1, r3, r8, r9, fp, ip, lr}^
    160c:	c7170000 	ldrgt	r0, [r7, -r0]
    1610:	0b00000c 	bleq	1648 <g_pfnVectors-0x7ffe9b8>
    1614:	0009c05c 	andeq	ip, r9, ip, asr r0
    1618:	ca170000 	bgt	5c1620 <g_pfnVectors-0x7a3e9e0>
    161c:	0b000009 	bleq	1648 <g_pfnVectors-0x7ffe9b8>
    1620:	0001df5d 	andeq	sp, r1, sp, asr pc
    1624:	00170400 	andseq	r0, r7, r0, lsl #8
    1628:	0b00000a 	bleq	1658 <g_pfnVectors-0x7ffe9a8>
    162c:	0009c65f 	andeq	ip, r9, pc, asr r6
    1630:	33170800 	tstcc	r7, #0, 16
    1634:	0b000008 	bleq	165c <g_pfnVectors-0x7ffe9a4>
    1638:	00093260 	andeq	r3, r9, r0, ror #4
    163c:	1d008800 	stcne	8, cr8, [r0, #-0]
    1640:	00098204 	andeq	r8, r9, r4, lsl #4
    1644:	09d60c00 	ldmibeq	r6, {sl, fp}^
    1648:	09d60000 	ldmibeq	r6, {}^	; <UNPREDICTABLE>
    164c:	f00d0000 			; <UNDEFINED> instruction: 0xf00d0000
    1650:	1f000002 	svcne	0x00000002
    1654:	dc041d00 	stcle	13, cr1, [r4], {-0}
    1658:	20000009 	andcs	r0, r0, r9
    165c:	000f241b 	andeq	r2, pc, fp, lsl r4	; <UNPREDICTABLE>
    1660:	730b0800 	movwvc	r0, #47104	; 0xb800
    1664:	00000a02 	andeq	r0, r0, r2, lsl #20
    1668:	000da817 	andeq	sl, sp, r7, lsl r8
    166c:	02740b00 	rsbseq	r0, r4, #0, 22
    1670:	0000000a 	andeq	r0, r0, sl
    1674:	0018a017 	andseq	sl, r8, r7, lsl r0
    1678:	df750b00 	svcle	0x00750b00
    167c:	04000001 	streq	r0, [r0], #-1
    1680:	8d041d00 	stchi	13, cr1, [r4, #-0]
    1684:	1b000001 	blne	1690 <g_pfnVectors-0x7ffe970>
    1688:	00000fa8 	andeq	r0, r0, r8, lsr #31
    168c:	32b30b68 	adcscc	r0, r3, #104, 22	; 0x1a000
    1690:	1c00000b 	stcne	0, cr0, [r0], {11}
    1694:	0b00705f 	bleq	1d818 <g_pfnVectors-0x7fe27e8>
    1698:	000a02b4 			; <UNDEFINED> instruction: 0x000a02b4
    169c:	5f1c0000 	svcpl	0x001c0000
    16a0:	b50b0072 	strlt	r0, [fp, #-114]	; 0x72
    16a4:	000001df 	ldrdeq	r0, [r0], -pc	; <UNPREDICTABLE>
    16a8:	775f1c04 	ldrbvc	r1, [pc, -r4, lsl #24]
    16ac:	dfb60b00 	svcle	0x00b60b00
    16b0:	08000001 	stmdaeq	r0, {r0}
    16b4:	000ccd17 	andeq	ip, ip, r7, lsl sp
    16b8:	94b70b00 	ldrtls	r0, [r7], #2816	; 0xb00
    16bc:	0c000001 	stceq	0, cr0, [r0], {1}
    16c0:	00082d17 	andeq	r2, r8, r7, lsl sp
    16c4:	94b80b00 	ldrtls	r0, [r8], #2816	; 0xb00
    16c8:	0e000001 	cdpeq	0, 0, cr0, cr0, cr1, {0}
    16cc:	66625f1c 	uqadd16vs	r5, r2, ip
    16d0:	ddb90b00 	ldcle	11, cr0, [r9]
    16d4:	10000009 	andne	r0, r0, r9
    16d8:	000ebc17 	andeq	fp, lr, r7, lsl ip
    16dc:	dfba0b00 	svcle	0x00ba0b00
    16e0:	18000001 	stmdane	r0, {r0}
    16e4:	000a5f17 	andeq	r5, sl, r7, lsl pc
    16e8:	b0c10b00 	sbclt	r0, r1, r0, lsl #22
    16ec:	1c000007 	stcne	0, cr0, [r0], {7}
    16f0:	00078617 	andeq	r8, r7, r7, lsl r6
    16f4:	95c30b00 	strbls	r0, [r3, #2816]	; 0xb00
    16f8:	2000000c 	andcs	r0, r0, ip
    16fc:	00078c17 	andeq	r8, r7, r7, lsl ip
    1700:	c4c50b00 	strbgt	r0, [r5], #2816	; 0xb00
    1704:	2400000c 	strcs	r0, [r0], #-12
    1708:	00080217 	andeq	r0, r8, r7, lsl r2
    170c:	e8c80b00 	stmia	r8, {r8, r9, fp}^
    1710:	2800000c 	stmdacs	r0, {r2, r3}
    1714:	000a0517 	andeq	r0, sl, r7, lsl r5
    1718:	02c90b00 	sbceq	r0, r9, #0, 22
    171c:	2c00000d 	stccs	0, cr0, [r0], {13}
    1720:	62755f1c 	rsbsvs	r5, r5, #28, 30	; 0x70
    1724:	ddcc0b00 	vstrle	d16, [ip]
    1728:	30000009 	andcc	r0, r0, r9
    172c:	70755f1c 	rsbsvc	r5, r5, ip, lsl pc
    1730:	02cd0b00 	sbceq	r0, sp, #0, 22
    1734:	3800000a 	stmdacc	r0, {r1, r3}
    1738:	72755f1c 	rsbsvc	r5, r5, #28, 30	; 0x70
    173c:	dfce0b00 	svcle	0x00ce0b00
    1740:	3c000001 	stccc	0, cr0, [r0], {1}
    1744:	000c8a17 	andeq	r8, ip, r7, lsl sl
    1748:	08d10b00 	ldmeq	r1, {r8, r9, fp}^
    174c:	4000000d 	andmi	r0, r0, sp
    1750:	0007de17 	andeq	sp, r7, r7, lsl lr
    1754:	18d20b00 	ldmne	r2, {r8, r9, fp}^
    1758:	4300000d 	movwmi	r0, #13
    175c:	626c5f1c 	rsbvs	r5, ip, #28, 30	; 0x70
    1760:	ddd50b00 	vldrle	d16, [r5]
    1764:	44000009 	strmi	r0, [r0], #-9
    1768:	00187217 	andseq	r7, r8, r7, lsl r2
    176c:	dfd80b00 	svcle	0x00d80b00
    1770:	4c000001 	stcmi	0, cr0, [r0], {1}
    1774:	000d0b17 	andeq	r0, sp, r7, lsl fp
    1778:	bdd90b00 	vldrlt	d16, [r9]
    177c:	50000007 	andpl	r0, r0, r7
    1780:	000e2617 	andeq	r2, lr, r7, lsl r6
    1784:	50dc0b00 	sbcspl	r0, ip, r0, lsl #22
    1788:	5400000b 	strpl	r0, [r0], #-11
    178c:	000f6517 	andeq	r6, pc, r7, lsl r5	; <UNPREDICTABLE>
    1790:	3ae00b00 	bcc	ff804398 <__StackTop+0xdf7ff398>
    1794:	58000008 	stmdapl	r0, {r3}
    1798:	000cb917 	andeq	fp, ip, r7, lsl r9
    179c:	2fe20b00 	svccs	0x00e20b00
    17a0:	5c000008 	stcpl	0, cr0, [r0], {8}
    17a4:	000b0717 	andeq	r0, fp, r7, lsl r7
    17a8:	dfe30b00 	svcle	0x00e30b00
    17ac:	64000001 	strvs	r0, [r0], #-1
    17b0:	01df2100 	bicseq	r2, pc, r0, lsl #2
    17b4:	0b500000 	bleq	14017bc <g_pfnVectors-0x6bfe844>
    17b8:	50220000 	eorpl	r0, r2, r0
    17bc:	2200000b 	andcs	r0, r0, #11
    17c0:	000007b0 			; <UNDEFINED> instruction: 0x000007b0
    17c4:	000c8822 	andeq	r8, ip, r2, lsr #16
    17c8:	01df2200 	bicseq	r2, pc, r0, lsl #4
    17cc:	1d000000 	stcne	0, cr0, [r0, #-0]
    17d0:	000b5604 	andeq	r5, fp, r4, lsl #12
    17d4:	09982300 	ldmibeq	r8, {r8, r9, sp}
    17d8:	04280000 	strteq	r0, [r8], #-0
    17dc:	8802390b 	stmdahi	r2, {r0, r1, r3, r8, fp, ip, sp}
    17e0:	0900000c 	stmdbeq	r0, {r2, r3}
    17e4:	00000c58 	andeq	r0, r0, r8, asr ip
    17e8:	df023b0b 	svcle	0x00023b0b
    17ec:	00000001 	andeq	r0, r0, r1
    17f0:	000a0c09 	andeq	r0, sl, r9, lsl #24
    17f4:	02400b00 	subeq	r0, r0, #0, 22
    17f8:	00000d6f 	andeq	r0, r0, pc, ror #26
    17fc:	0d810904 	stceq	9, cr0, [r1, #16]
    1800:	400b0000 	andmi	r0, fp, r0
    1804:	000d6f02 	andeq	r6, sp, r2, lsl #30
    1808:	a3090800 	movwge	r0, #38912	; 0x9800
    180c:	0b00000c 	bleq	1844 <g_pfnVectors-0x7ffe7bc>
    1810:	0d6f0240 	sfmeq	f0, 2, [pc, #-256]!	; 1718 <g_pfnVectors-0x7ffe8e8>
    1814:	090c0000 	stmdbeq	ip, {}	; <UNPREDICTABLE>
    1818:	00000ec5 	andeq	r0, r0, r5, asr #29
    181c:	df02420b 	svcle	0x0002420b
    1820:	10000001 	andne	r0, r0, r1
    1824:	000bb109 	andeq	fp, fp, r9, lsl #2
    1828:	02430b00 	subeq	r0, r3, #0, 22
    182c:	00000f51 	andeq	r0, r0, r1, asr pc
    1830:	08bf0914 	ldmeq	pc!, {r2, r4, r8, fp}	; <UNPREDICTABLE>
    1834:	450b0000 	strmi	r0, [fp, #-0]
    1838:	0001df02 	andeq	sp, r1, r2, lsl #30
    183c:	07093000 	streq	r3, [r9, -r0]
    1840:	0b00000c 	bleq	1878 <g_pfnVectors-0x7ffe788>
    1844:	0cb90246 	lfmeq	f0, 4, [r9], #280	; 0x118
    1848:	09340000 	ldmdbeq	r4!, {}	; <UNPREDICTABLE>
    184c:	00000afc 	strdeq	r0, [r0], -ip
    1850:	df02480b 	svcle	0x0002480b
    1854:	38000001 	stmdacc	r0, {r0}
    1858:	000b8a09 	andeq	r8, fp, r9, lsl #20
    185c:	024a0b00 	subeq	r0, sl, #0, 22
    1860:	00000f6c 	andeq	r0, r0, ip, ror #30
    1864:	0f4f093c 	svceq	0x004f093c
    1868:	4d0b0000 	stcmi	0, cr0, [fp, #-0]
    186c:	0008a302 	andeq	sl, r8, r2, lsl #6
    1870:	5b094000 	blpl	251878 <g_pfnVectors-0x7dae788>
    1874:	0b000008 	bleq	189c <g_pfnVectors-0x7ffe764>
    1878:	01df024e 	bicseq	r0, pc, lr, asr #4
    187c:	09440000 	stmdbeq	r4, {}^	; <UNPREDICTABLE>
    1880:	00000ace 	andeq	r0, r0, lr, asr #21
    1884:	a3024f0b 	movwge	r4, #12043	; 0x2f0b
    1888:	48000008 	stmdami	r0, {r3}
    188c:	000c1709 	andeq	r1, ip, r9, lsl #14
    1890:	02500b00 	subseq	r0, r0, #0, 22
    1894:	00000f72 	andeq	r0, r0, r2, ror pc
    1898:	07a5094c 	streq	r0, [r5, ip, asr #18]!
    189c:	530b0000 	movwpl	r0, #45056	; 0xb000
    18a0:	0001df02 	andeq	sp, r1, r2, lsl #30
    18a4:	90095000 	andls	r5, r9, r0
    18a8:	0b00000a 	bleq	18d8 <g_pfnVectors-0x7ffe728>
    18ac:	0c880254 	sfmeq	f0, 4, [r8], {84}	; 0x54
    18b0:	09540000 	ldmdbeq	r4, {}^	; <UNPREDICTABLE>
    18b4:	00000c85 	andeq	r0, r0, r5, lsl #25
    18b8:	2f02770b 	svccs	0x0002770b
    18bc:	5800000f 	stmdapl	r0, {r0, r1, r2, r3}
    18c0:	000cd40a 	andeq	sp, ip, sl, lsl #8
    18c4:	027b0b00 	rsbseq	r0, fp, #0, 22
    18c8:	000009c0 	andeq	r0, r0, r0, asr #19
    18cc:	a80a0148 	stmdage	sl, {r3, r6, r8}
    18d0:	0b00000b 	bleq	1904 <g_pfnVectors-0x7ffe6fc>
    18d4:	0982027c 	stmibeq	r2, {r2, r3, r4, r5, r6, r9}
    18d8:	014c0000 	mrseq	r0, (UNDEF: 76)
    18dc:	000a6c0a 	andeq	r6, sl, sl, lsl #24
    18e0:	02800b00 	addeq	r0, r0, #0, 22
    18e4:	00000f83 	andeq	r0, r0, r3, lsl #31
    18e8:	db0a02dc 	blle	282460 <g_pfnVectors-0x7d7dba0>
    18ec:	0b00000b 	bleq	1920 <g_pfnVectors-0x7ffe6e0>
    18f0:	0d340285 	lfmeq	f0, 4, [r4, #-532]!	; 0xfffffdec
    18f4:	02e00000 	rsceq	r0, r0, #0
    18f8:	0007810a 	andeq	r8, r7, sl, lsl #2
    18fc:	02860b00 	addeq	r0, r6, #0, 22
    1900:	00000f8f 	andeq	r0, r0, pc, lsl #31
    1904:	1d0002ec 	sfmne	f0, 4, [r0, #-944]	; 0xfffffc50
    1908:	000c8e04 	andeq	r8, ip, r4, lsl #28
    190c:	08010600 	stmdaeq	r1, {r9, sl}
    1910:	0000016d 	andeq	r0, r0, sp, ror #2
    1914:	0b32041d 	bleq	c82990 <g_pfnVectors-0x737d670>
    1918:	df210000 	svcle	0x00210000
    191c:	b9000001 	stmdblt	r0, {r0}
    1920:	2200000c 	andcs	r0, r0, #12
    1924:	00000b50 	andeq	r0, r0, r0, asr fp
    1928:	0007b022 	andeq	fp, r7, r2, lsr #32
    192c:	0cb92200 	lfmeq	f2, 4, [r9]
    1930:	df220000 	svcle	0x00220000
    1934:	00000001 	andeq	r0, r0, r1
    1938:	0cbf041d 	cfldrseq	mvf0, [pc], #116	; 19b4 <g_pfnVectors-0x7ffe64c>
    193c:	8e120000 	cdphi	0, 1, cr0, cr2, cr0, {0}
    1940:	1d00000c 	stcne	0, cr0, [r0, #-48]	; 0xffffffd0
    1944:	000c9b04 	andeq	r9, ip, r4, lsl #22
    1948:	07c82100 	strbeq	r2, [r8, r0, lsl #2]
    194c:	0ce80000 	stcleq	0, cr0, [r8]
    1950:	50220000 	eorpl	r0, r2, r0
    1954:	2200000b 	andcs	r0, r0, #11
    1958:	000007b0 			; <UNDEFINED> instruction: 0x000007b0
    195c:	0007c822 	andeq	ip, r7, r2, lsr #16
    1960:	01df2200 	bicseq	r2, pc, r0, lsl #4
    1964:	1d000000 	stcne	0, cr0, [r0, #-0]
    1968:	000cca04 	andeq	ip, ip, r4, lsl #20
    196c:	01df2100 	bicseq	r2, pc, r0, lsl #2
    1970:	0d020000 	stceq	0, cr0, [r2, #-0]
    1974:	50220000 	eorpl	r0, r2, r0
    1978:	2200000b 	andcs	r0, r0, #11
    197c:	000007b0 			; <UNDEFINED> instruction: 0x000007b0
    1980:	ee041d00 	cdp	13, 0, cr1, cr4, cr0, {0}
    1984:	0c00000c 	stceq	0, cr0, [r0], {12}
    1988:	0000018d 	andeq	r0, r0, sp, lsl #3
    198c:	00000d18 	andeq	r0, r0, r8, lsl sp
    1990:	0002f00d 	andeq	pc, r2, sp
    1994:	0c000200 	sfmeq	f0, 4, [r0], {-0}
    1998:	0000018d 	andeq	r0, r0, sp, lsl #3
    199c:	00000d28 	andeq	r0, r0, r8, lsr #26
    19a0:	0002f00d 	andeq	pc, r2, sp
    19a4:	04000000 	streq	r0, [r0], #-0
    19a8:	00000dd8 	ldrdeq	r0, [r0], -r8
    19ac:	08011d0b 	stmdaeq	r1, {r0, r1, r3, r8, sl, fp, ip}
    19b0:	2400000a 	strcs	r0, [r0], #-10
    19b4:	00000c27 	andeq	r0, r0, r7, lsr #24
    19b8:	01210b0c 	teqeq	r1, ip, lsl #22
    19bc:	00000d69 	andeq	r0, r0, r9, ror #26
    19c0:	000cc709 	andeq	ip, ip, r9, lsl #14
    19c4:	01230b00 	teqeq	r3, r0, lsl #22
    19c8:	00000d69 	andeq	r0, r0, r9, ror #26
    19cc:	0bca0900 	bleq	ff283dd4 <__StackTop+0xdf27edd4>
    19d0:	240b0000 	strcs	r0, [fp], #-0
    19d4:	0001df01 	andeq	sp, r1, r1, lsl #30
    19d8:	21090400 	tstcs	r9, r0, lsl #8
    19dc:	0b00000c 	bleq	1a14 <g_pfnVectors-0x7ffe5ec>
    19e0:	0d6f0125 	stfeqe	f0, [pc, #-148]!	; 1954 <g_pfnVectors-0x7ffe6ac>
    19e4:	00080000 	andeq	r0, r8, r0
    19e8:	0d34041d 	cfldrseq	mvf0, [r4, #-116]!	; 0xffffff8c
    19ec:	041d0000 	ldreq	r0, [sp], #-0
    19f0:	00000d28 	andeq	r0, r0, r8, lsr #26
    19f4:	000d6f24 	andeq	r6, sp, r4, lsr #30
    19f8:	3d0b0e00 	stccc	14, cr0, [fp, #-0]
    19fc:	000daa01 	andeq	sl, sp, r1, lsl #20
    1a00:	0d050900 	stceq	9, cr0, [r5, #-0]
    1a04:	3e0b0000 	cdpcc	0, 0, cr0, cr11, cr0, {0}
    1a08:	000daa01 	andeq	sl, sp, r1, lsl #20
    1a0c:	08090000 	stmdaeq	r9, {}	; <UNPREDICTABLE>
    1a10:	0b000008 	bleq	1a38 <g_pfnVectors-0x7ffe5c8>
    1a14:	0daa013f 	stfeqs	f0, [sl, #252]!	; 0xfc
    1a18:	09060000 	stmdbeq	r6, {}	; <UNPREDICTABLE>
    1a1c:	00000f99 	muleq	r0, r9, pc	; <UNPREDICTABLE>
    1a20:	a601400b 	strge	r4, [r1], -fp
    1a24:	0c000001 	stceq	0, cr0, [r0], {1}
    1a28:	01a60c00 			; <UNDEFINED> instruction: 0x01a60c00
    1a2c:	0dba0000 	ldceq	0, cr0, [sl]
    1a30:	f00d0000 			; <UNDEFINED> instruction: 0xf00d0000
    1a34:	02000002 	andeq	r0, r0, #2
    1a38:	0bd01000 	bleq	ff405a40 <__StackTop+0xdf400a40>
    1a3c:	0ebb0258 	mrceq	2, 5, r0, cr11, cr8, {2}
    1a40:	dd090000 	stcle	0, cr0, [r9, #-0]
    1a44:	0b000008 	bleq	1a6c <g_pfnVectors-0x7ffe594>
    1a48:	01e6025a 	mvneq	r0, sl, asr r2
    1a4c:	09000000 	stmdbeq	r0, {}	; <UNPREDICTABLE>
    1a50:	00000dae 	andeq	r0, r0, lr, lsr #27
    1a54:	88025b0b 	stmdahi	r2, {r0, r1, r3, r8, r9, fp, ip, lr}
    1a58:	0400000c 	streq	r0, [r0], #-12
    1a5c:	00079809 	andeq	r9, r7, r9, lsl #16
    1a60:	025c0b00 	subseq	r0, ip, #0, 22
    1a64:	00000ebb 			; <UNDEFINED> instruction: 0x00000ebb
    1a68:	08750908 	ldmdaeq	r5!, {r3, r8, fp}^
    1a6c:	5d0b0000 	stcpl	0, cr0, [fp, #-0]
    1a70:	0008b902 	andeq	fp, r8, r2, lsl #18
    1a74:	f8092400 			; <UNDEFINED> instruction: 0xf8092400
    1a78:	0b00000b 	bleq	1aac <g_pfnVectors-0x7ffe554>
    1a7c:	01df025e 	bicseq	r0, pc, lr, asr r2	; <UNPREDICTABLE>
    1a80:	09480000 	stmdbeq	r8, {}^	; <UNPREDICTABLE>
    1a84:	00000cc2 	andeq	r0, r0, r2, asr #25
    1a88:	d8025f0b 	stmdale	r2, {r0, r1, r3, r8, r9, sl, fp, ip, lr}
    1a8c:	50000001 	andpl	r0, r0, r1
    1a90:	000dea09 	andeq	lr, sp, r9, lsl #20
    1a94:	02600b00 	rsbeq	r0, r0, #0, 22
    1a98:	00000d75 	andeq	r0, r0, r5, ror sp
    1a9c:	0e7e0958 	mrceq	9, 3, r0, cr14, cr8, {2}
    1aa0:	610b0000 	mrsvs	r0, (UNDEF: 11)
    1aa4:	00082f02 	andeq	r2, r8, r2, lsl #30
    1aa8:	bc096800 	stclt	8, cr6, [r9], {-0}
    1aac:	0b00000b 	bleq	1ae0 <g_pfnVectors-0x7ffe520>
    1ab0:	082f0262 	stmdaeq	pc!, {r1, r5, r6, r9}	; <UNPREDICTABLE>
    1ab4:	09700000 	ldmdbeq	r0!, {}^	; <UNPREDICTABLE>
    1ab8:	00000cab 	andeq	r0, r0, fp, lsr #25
    1abc:	2f02630b 	svccs	0x0002630b
    1ac0:	78000008 	stmdavc	r0, {r3}
    1ac4:	0007ed09 	andeq	lr, r7, r9, lsl #26
    1ac8:	02640b00 	rsbeq	r0, r4, #0, 22
    1acc:	00000ecb 	andeq	r0, r0, fp, asr #29
    1ad0:	0b480980 	bleq	12040d8 <g_pfnVectors-0x6dfbf28>
    1ad4:	650b0000 	strvs	r0, [fp, #-0]
    1ad8:	000edb02 	andeq	sp, lr, r2, lsl #22
    1adc:	11098800 	tstne	r9, r0, lsl #16
    1ae0:	0b000010 	bleq	1b28 <g_pfnVectors-0x7ffe4d8>
    1ae4:	01df0266 	bicseq	r0, pc, r6, ror #4
    1ae8:	09a00000 	stmibeq	r0!, {}	; <UNPREDICTABLE>
    1aec:	00000841 	andeq	r0, r0, r1, asr #16
    1af0:	2f02670b 	svccs	0x0002670b
    1af4:	a4000008 	strge	r0, [r0], #-8
    1af8:	000dbb09 	andeq	fp, sp, r9, lsl #22
    1afc:	02680b00 	rsbeq	r0, r8, #0, 22
    1b00:	0000082f 	andeq	r0, r0, pc, lsr #16
    1b04:	0fcc09ac 	svceq	0x00cc09ac
    1b08:	690b0000 	stmdbvs	fp, {}	; <UNPREDICTABLE>
    1b0c:	00082f02 	andeq	r2, r8, r2, lsl #30
    1b10:	6c09b400 	cfstrsvs	mvf11, [r9], {-0}
    1b14:	0b00000c 	bleq	1b4c <g_pfnVectors-0x7ffe4b4>
    1b18:	082f026a 	stmdaeq	pc!, {r1, r3, r5, r6, r9}	; <UNPREDICTABLE>
    1b1c:	09bc0000 	ldmibeq	ip!, {}	; <UNPREDICTABLE>
    1b20:	000007cd 	andeq	r0, r0, sp, asr #15
    1b24:	2f026b0b 	svccs	0x00026b0b
    1b28:	c4000008 	strgt	r0, [r0], #-8
    1b2c:	000c5609 	andeq	r5, ip, r9, lsl #12
    1b30:	026c0b00 	rsbeq	r0, ip, #0, 22
    1b34:	000001df 	ldrdeq	r0, [r0], -pc	; <UNPREDICTABLE>
    1b38:	8e0c00cc 	cdphi	0, 0, cr0, cr12, cr12, {6}
    1b3c:	cb00000c 	blgt	1b74 <g_pfnVectors-0x7ffe48c>
    1b40:	0d00000e 	stceq	0, cr0, [r0, #-56]	; 0xffffffc8
    1b44:	000002f0 	strdeq	r0, [r0], -r0	; <UNPREDICTABLE>
    1b48:	8e0c0019 	mcrhi	0, 0, r0, cr12, cr9, {0}
    1b4c:	db00000c 	blle	1b84 <g_pfnVectors-0x7ffe47c>
    1b50:	0d00000e 	stceq	0, cr0, [r0, #-56]	; 0xffffffc8
    1b54:	000002f0 	strdeq	r0, [r0], -r0	; <UNPREDICTABLE>
    1b58:	8e0c0007 	cdphi	0, 0, cr0, cr12, cr7, {0}
    1b5c:	eb00000c 	bl	1b94 <g_pfnVectors-0x7ffe46c>
    1b60:	0d00000e 	stceq	0, cr0, [r0, #-56]	; 0xffffffc8
    1b64:	000002f0 	strdeq	r0, [r0], -r0	; <UNPREDICTABLE>
    1b68:	f0100017 			; <UNDEFINED> instruction: 0xf0100017
    1b6c:	0f02710b 	svceq	0x0002710b
    1b70:	0900000f 	stmdbeq	r0, {r0, r1, r2, r3}
    1b74:	00000f33 	andeq	r0, r0, r3, lsr pc
    1b78:	0f02740b 	svceq	0x0002740b
    1b7c:	0000000f 	andeq	r0, r0, pc
    1b80:	000be309 	andeq	lr, fp, r9, lsl #6
    1b84:	02750b00 	rsbseq	r0, r5, #0, 22
    1b88:	00000f1f 	andeq	r0, r0, pc, lsl pc
    1b8c:	020c0078 	andeq	r0, ip, #120	; 0x78
    1b90:	1f00000a 	svcne	0x0000000a
    1b94:	0d00000f 	stceq	0, cr0, [r0, #-60]	; 0xffffffc4
    1b98:	000002f0 	strdeq	r0, [r0], -r0	; <UNPREDICTABLE>
    1b9c:	e60c001d 			; <UNDEFINED> instruction: 0xe60c001d
    1ba0:	2f000001 	svccs	0x00000001
    1ba4:	0d00000f 	stceq	0, cr0, [r0, #-60]	; 0xffffffc4
    1ba8:	000002f0 	strdeq	r0, [r0], -r0	; <UNPREDICTABLE>
    1bac:	f025001d 			; <UNDEFINED> instruction: 0xf025001d
    1bb0:	5102560b 	tstpl	r2, fp, lsl #12
    1bb4:	2600000f 	strcs	r0, [r0], -pc
    1bb8:	00000998 	muleq	r0, r8, r9
    1bbc:	ba026d0b 	blt	9cff0 <g_pfnVectors-0x7f63010>
    1bc0:	2600000d 	strcs	r0, [r0], -sp
    1bc4:	000007c0 	andeq	r0, r0, r0, asr #15
    1bc8:	eb02760b 	bl	9f3fc <g_pfnVectors-0x7f60c04>
    1bcc:	0000000e 	andeq	r0, r0, lr
    1bd0:	000c8e0c 	andeq	r8, ip, ip, lsl #28
    1bd4:	000f6100 	andeq	r6, pc, r0, lsl #2
    1bd8:	02f00d00 	rscseq	r0, r0, #0, 26
    1bdc:	00180000 	andseq	r0, r8, r0
    1be0:	000f6c27 	andeq	r6, pc, r7, lsr #24
    1be4:	0b502200 	bleq	140a3ec <g_pfnVectors-0x6bf5c14>
    1be8:	1d000000 	stcne	0, cr0, [r0, #-0]
    1bec:	000f6104 	andeq	r6, pc, r4, lsl #2
    1bf0:	a3041d00 	movwge	r1, #19712	; 0x4d00
    1bf4:	27000008 	strcs	r0, [r0, -r8]
    1bf8:	00000f83 	andeq	r0, r0, r3, lsl #31
    1bfc:	0001df22 	andeq	sp, r1, r2, lsr #30
    1c00:	041d0000 	ldreq	r0, [sp], #-0
    1c04:	00000f89 	andeq	r0, r0, r9, lsl #31
    1c08:	0f78041d 	svceq	0x0078041d
    1c0c:	280c0000 	stmdacs	ip, {}	; <UNPREDICTABLE>
    1c10:	9f00000d 	svcls	0x0000000d
    1c14:	0d00000f 	stceq	0, cr0, [r0, #-60]	; 0xffffffc4
    1c18:	000002f0 	strdeq	r0, [r0], -r0	; <UNPREDICTABLE>
    1c1c:	54280002 	strtpl	r0, [r8], #-2
    1c20:	0100000b 	tsteq	r0, fp
    1c24:	0488056e 	streq	r0, [r8], #1390	; 0x56e
    1c28:	00540800 	subseq	r0, r4, r0, lsl #16
    1c2c:	9c010000 	stcls	0, cr0, [r1], {-0}
    1c30:	00000fd4 	ldrdeq	r0, [r0], -r4
    1c34:	000d5129 	andeq	r5, sp, r9, lsr #2
    1c38:	056e0100 	strbeq	r0, [lr, #-256]!	; 0x100
    1c3c:	00000164 	andeq	r0, r0, r4, ror #2
    1c40:	29779102 	ldmdbcs	r7!, {r1, r8, ip, pc}^
    1c44:	00000e94 	muleq	r0, r4, lr
    1c48:	19056e01 	stmdbne	r5, {r0, r9, sl, fp, sp, lr}
    1c4c:	02000002 	andeq	r0, r0, #2
    1c50:	2a007091 	bcs	1de9c <g_pfnVectors-0x7fe2164>
    1c54:	00000def 	andeq	r0, r0, pc, ror #27
    1c58:	1905ed01 	stmdbne	r5, {r0, r8, sl, fp, sp, lr, pc}
    1c5c:	dc000002 	stcle	0, cr0, [r0], {2}
    1c60:	44080004 	strmi	r0, [r8], #-4
    1c64:	01000000 	mrseq	r0, (UNDEF: 0)
    1c68:	000ffe9c 	muleq	pc, ip, lr	; <UNPREDICTABLE>
    1c6c:	0ba22900 	bleq	fe88c074 <__StackTop+0xde887074>
    1c70:	ed010000 	stc	0, cr0, [r1, #-0]
    1c74:	00021905 	andeq	r1, r2, r5, lsl #18
    1c78:	74910200 	ldrvc	r0, [r1], #512	; 0x200
    1c7c:	08652b00 	stmdaeq	r5!, {r8, r9, fp, sp}^
    1c80:	22020000 	andcs	r0, r2, #0
    1c84:	08000520 	stmdaeq	r0, {r5, r8, sl}
    1c88:	0000001c 	andeq	r0, r0, ip, lsl r0
    1c8c:	902c9c01 	eorls	r9, ip, r1, lsl #24
    1c90:	02000008 	andeq	r0, r0, #8
    1c94:	0001df2c 	andeq	sp, r1, ip, lsr #30
    1c98:	00053c00 	andeq	r3, r5, r0, lsl #24
    1c9c:	00025008 	andeq	r5, r2, r8
    1ca0:	2d9c0100 	ldfcss	f0, [ip]
    1ca4:	000004ab 	andeq	r0, r0, fp, lsr #9
    1ca8:	078c6102 	streq	r6, [ip, r2, lsl #2]
    1cac:	00a80800 	adceq	r0, r8, r0, lsl #16
    1cb0:	9c010000 	stcls	0, cr0, [r1], {-0}
    1cb4:	00001048 	andeq	r1, r0, r8, asr #32
    1cb8:	00089e2e 	andeq	r9, r8, lr, lsr #28
    1cbc:	a5910200 	ldrge	r0, [r1, #512]	; 0x200
    1cc0:	02000007 	andeq	r0, r0, #7
    1cc4:	2f006891 	svccs	0x00006891
    1cc8:	00000d62 	andeq	r0, r0, r2, ror #26
    1ccc:	01dfa402 	bicseq	sl, pc, r2, lsl #8
    1cd0:	08340000 	ldmdaeq	r4!, {}	; <UNPREDICTABLE>
    1cd4:	00340800 	eorseq	r0, r4, r0, lsl #16
    1cd8:	9c010000 	stcls	0, cr0, [r1], {-0}
    1cdc:	0000106f 	andeq	r1, r0, pc, rrx
    1ce0:	00686330 	rsbeq	r6, r8, r0, lsr r3
    1ce4:	01dfa402 	bicseq	sl, pc, r2, lsl #8
    1ce8:	91020000 	mrsls	r0, (UNDEF: 2)
    1cec:	372f0074 			; <UNDEFINED> instruction: 0x372f0074
    1cf0:	0200000e 	andeq	r0, r0, #14
    1cf4:	0001dfb0 			; <UNDEFINED> instruction: 0x0001dfb0
    1cf8:	00086800 	andeq	r6, r8, r0, lsl #16
    1cfc:	00002c08 	andeq	r2, r0, r8, lsl #24
    1d00:	969c0100 	ldrls	r0, [ip], r0, lsl #2
    1d04:	30000010 	andcc	r0, r0, r0, lsl r0
    1d08:	02006863 	andeq	r6, r0, #6488064	; 0x630000
    1d0c:	0001dfb0 			; <UNDEFINED> instruction: 0x0001dfb0
    1d10:	74910200 	ldrvc	r0, [r1], #512	; 0x200
    1d14:	024a3100 	subeq	r3, sl, #0, 2
    1d18:	07010000 	streq	r0, [r1, -r0]
    1d1c:	00054506 	andeq	r4, r5, r6, lsl #10
    1d20:	01fe3200 	mvnseq	r3, r0, lsl #4
    1d24:	350c0000 	strcc	r0, [ip, #-0]
    1d28:	00000219 	andeq	r0, r0, r9, lsl r2
    1d2c:	00084f31 	andeq	r4, r8, r1, lsr pc
    1d30:	02fa0b00 	rscseq	r0, sl, #0, 22
    1d34:	00000b50 	andeq	r0, r0, r0, asr fp
    1d38:	000d9533 	andeq	r9, sp, r3, lsr r5
    1d3c:	49180200 	ldmdbmi	r8, {r9}
    1d40:	05000007 	streq	r0, [r0, #-7]
    1d44:	0000a803 	andeq	sl, r0, r3, lsl #16
    1d48:	0b7a3320 	bleq	1e8e9d0 <g_pfnVectors-0x6171630>
    1d4c:	1a020000 	bne	81d54 <g_pfnVectors-0x7f7e2ac>
    1d50:	00000356 	andeq	r0, r0, r6, asr r3
    1d54:	00ac0305 	adceq	r0, ip, r5, lsl #6
    1d58:	54342000 	ldrtpl	r2, [r4], #-0
    1d5c:	26020030 			; <UNDEFINED> instruction: 0x26020030
    1d60:	00000219 	andeq	r0, r0, r9, lsl r2
    1d64:	00a00305 	adceq	r0, r0, r5, lsl #6
    1d68:	46332000 	ldrtmi	r2, [r3], -r0
    1d6c:	0200000a 	andeq	r0, r0, #10
    1d70:	00021926 	andeq	r1, r2, r6, lsr #18
    1d74:	8c030500 	cfstr32hi	mvfx0, [r3], {-0}
    1d78:	34200000 	strtcc	r0, [r0], #-0
    1d7c:	27020078 	smlsdxcs	r2, r8, r0, r0
    1d80:	000001f8 	strdeq	r0, [r0], -r8
    1d84:	00900305 	addseq	r0, r0, r5, lsl #6
    1d88:	63342000 	teqvs	r4, #0
    1d8c:	ed290200 	sfm	f0, 4, [r9, #-0]
    1d90:	05000001 	streq	r0, [r0, #-1]
    1d94:	0000a403 	andeq	sl, r0, r3, lsl #8
    1d98:	64643420 	strbtvs	r3, [r4], #-1056	; 0x420
    1d9c:	2a020064 	bcs	81f34 <g_pfnVectors-0x7f7e0cc>
    1da0:	000001f8 	strdeq	r0, [r0], -r8
    1da4:	00b00305 	adcseq	r0, r0, r5, lsl #6
    1da8:	89002000 	stmdbhi	r0, {sp}
    1dac:	04000008 	streq	r0, [r0], #-8
    1db0:	0006a900 	andeq	sl, r6, r0, lsl #18
    1db4:	0c010400 	cfstrseq	mvf0, [r1], {-0}
    1db8:	01000000 	mrseq	r0, (UNDEF: 0)
    1dbc:	000012a4 	andeq	r1, r0, r4, lsr #5
    1dc0:	00000120 	andeq	r0, r0, r0, lsr #2
    1dc4:	00000000 	andeq	r0, r0, r0
    1dc8:	00000b7c 	andeq	r0, r0, ip, ror fp
    1dcc:	66060102 	strvs	r0, [r6], -r2, lsl #2
    1dd0:	03000001 	movweq	r0, #1
    1dd4:	00000136 	andeq	r0, r0, r6, lsr r1
    1dd8:	00331c02 	eorseq	r1, r3, r2, lsl #24
    1ddc:	01020000 	mrseq	r0, (UNDEF: 2)
    1de0:	00016408 	andeq	r6, r1, r8, lsl #8
    1de4:	05020200 	streq	r0, [r2, #-512]	; 0x200
    1de8:	000000f4 	strdeq	r0, [r0], -r4
    1dec:	0000c203 	andeq	ip, r0, r3, lsl #4
    1df0:	4c260200 	sfmmi	f0, 4, [r6], #-0
    1df4:	02000000 	andeq	r0, r0, #0
    1df8:	01dc0702 	bicseq	r0, ip, r2, lsl #14
    1dfc:	24030000 	strcs	r0, [r3], #-0
    1e00:	02000002 	andeq	r0, r0, #2
    1e04:	00005e37 	andeq	r5, r0, r7, lsr lr
    1e08:	05040200 	streq	r0, [r4, #-512]	; 0x200
    1e0c:	00000110 	andeq	r0, r0, r0, lsl r1
    1e10:	0000b703 	andeq	fp, r0, r3, lsl #14
    1e14:	70380200 	eorsvc	r0, r8, r0, lsl #4
    1e18:	02000000 	andeq	r0, r0, #0
    1e1c:	019d0704 	orrseq	r0, sp, r4, lsl #14
    1e20:	08020000 	stmdaeq	r2, {}	; <UNPREDICTABLE>
    1e24:	00010b05 	andeq	r0, r1, r5, lsl #22
    1e28:	07080200 	streq	r0, [r8, -r0, lsl #4]
    1e2c:	00000198 	muleq	r0, r8, r1
    1e30:	69050404 	stmdbvs	r5, {r2, sl}
    1e34:	0200746e 	andeq	r7, r0, #1845493760	; 0x6e000000
    1e38:	01a20704 			; <UNDEFINED> instruction: 0x01a20704
    1e3c:	38030000 	stmdacc	r3, {}	; <UNPREDICTABLE>
    1e40:	03000001 	movweq	r0, #1
    1e44:	0000282a 	andeq	r2, r0, sl, lsr #16
    1e48:	00c40300 	sbceq	r0, r4, r0, lsl #6
    1e4c:	36030000 	strcc	r0, [r3], -r0
    1e50:	00000041 	andeq	r0, r0, r1, asr #32
    1e54:	00022603 	andeq	r2, r2, r3, lsl #12
    1e58:	53410300 	movtpl	r0, #4864	; 0x1300
    1e5c:	03000000 	movweq	r0, #0
    1e60:	000000b9 	strheq	r0, [r0], -r9
    1e64:	00654203 	rsbeq	r4, r5, r3, lsl #4
    1e68:	04020000 	streq	r0, [r2], #-0
    1e6c:	0000a907 	andeq	sl, r0, r7, lsl #18
    1e70:	00b40500 	adcseq	r0, r4, r0, lsl #10
    1e74:	a9050000 	stmdbge	r5, {}	; <UNPREDICTABLE>
    1e78:	06000000 	streq	r0, [r0], -r0
    1e7c:	02070401 	andeq	r0, r7, #16777216	; 0x1000000
    1e80:	000000e6 	andeq	r0, r0, r6, ror #1
    1e84:	00045b07 	andeq	r5, r4, r7, lsl #22
    1e88:	53080000 	movwpl	r0, #32768	; 0x8000
    1e8c:	01005445 	tsteq	r0, r5, asr #8
    1e90:	122e0900 	eorne	r0, lr, #0, 18
    1e94:	07040000 	streq	r0, [r4, -r0]
    1e98:	0000d002 	andeq	sp, r0, r2
    1e9c:	107d0900 	rsbsne	r0, sp, r0, lsl #18
    1ea0:	07040000 	streq	r0, [r4, -r0]
    1ea4:	0000d002 	andeq	sp, r0, r2
    1ea8:	04010600 	streq	r0, [r1], #-1536	; 0x600
    1eac:	01140209 	tsteq	r4, r9, lsl #4
    1eb0:	c8070000 	stmdagt	r7, {}	; <UNPREDICTABLE>
    1eb4:	00000004 	andeq	r0, r0, r4
    1eb8:	00049407 	andeq	r9, r4, r7, lsl #8
    1ebc:	09000100 	stmdbeq	r0, {r8}
    1ec0:	0000068a 	andeq	r0, r0, sl, lsl #13
    1ec4:	fe020904 	cdp2	9, 0, cr0, cr2, cr4, {0}
    1ec8:	06000000 	streq	r0, [r0], -r0
    1ecc:	020c0401 	andeq	r0, ip, #16777216	; 0x1000000
    1ed0:	00000136 	andeq	r0, r0, r6, lsr r1
    1ed4:	0011aa07 	andseq	sl, r1, r7, lsl #20
    1ed8:	41070000 	mrsmi	r0, (UNDEF: 7)
    1edc:	01000011 	tsteq	r0, r1, lsl r0
    1ee0:	116e0900 	cmnne	lr, r0, lsl #18
    1ee4:	0c040000 	stceq	0, cr0, [r4], {-0}
    1ee8:	00012002 	andeq	r2, r1, r2
    1eec:	04280a00 	strteq	r0, [r8], #-2560	; 0xa00
    1ef0:	01cd0434 	biceq	r0, sp, r4, lsr r4
    1ef4:	430b0000 	movwmi	r0, #45056	; 0xb000
    1ef8:	36040052 			; <UNDEFINED> instruction: 0x36040052
    1efc:	0000c604 	andeq	ip, r0, r4, lsl #12
    1f00:	e70c0000 	str	r0, [ip, -r0]
    1f04:	04000000 	streq	r0, [r0], #-0
    1f08:	00c60437 	sbceq	r0, r6, r7, lsr r4
    1f0c:	0b040000 	bleq	101f14 <g_pfnVectors-0x7efe0ec>
    1f10:	00524943 	subseq	r4, r2, r3, asr #18
    1f14:	c6043804 	strgt	r3, [r4], -r4, lsl #16
    1f18:	08000000 	stmdaeq	r0, {}	; <UNPREDICTABLE>
    1f1c:	00012d0c 	andeq	r2, r1, ip, lsl #26
    1f20:	04390400 	ldrteq	r0, [r9], #-1024	; 0x400
    1f24:	000000c6 	andeq	r0, r0, r6, asr #1
    1f28:	00a00c0c 	adceq	r0, r0, ip, lsl #24
    1f2c:	3a040000 	bcc	101f34 <g_pfnVectors-0x7efe0cc>
    1f30:	0000c604 	andeq	ip, r0, r4, lsl #12
    1f34:	260c1000 	strcs	r1, [ip], -r0
    1f38:	04000001 	streq	r0, [r0], #-1
    1f3c:	00c6043b 	sbceq	r0, r6, fp, lsr r4
    1f40:	0c140000 	ldceq	0, cr0, [r4], {-0}
    1f44:	00000181 	andeq	r0, r0, r1, lsl #3
    1f48:	c6043c04 	strgt	r3, [r4], -r4, lsl #24
    1f4c:	18000000 	stmdane	r0, {}	; <UNPREDICTABLE>
    1f50:	0000ec0c 	andeq	lr, r0, ip, lsl #24
    1f54:	043d0400 	ldrteq	r0, [sp], #-1024	; 0x400
    1f58:	000000c6 	andeq	r0, r0, r6, asr #1
    1f5c:	00b20c1c 	adcseq	r0, r2, ip, lsl ip
    1f60:	3e040000 	cdpcc	0, 0, cr0, cr4, cr0, {0}
    1f64:	0000c604 	andeq	ip, r0, r4, lsl #12
    1f68:	430b2000 	movwmi	r2, #45056	; 0xb000
    1f6c:	04005253 	streq	r5, [r0], #-595	; 0x253
    1f70:	00c6043f 	sbceq	r0, r6, pc, lsr r4
    1f74:	00240000 	eoreq	r0, r4, r0
    1f78:	00000009 	andeq	r0, r0, r9
    1f7c:	044a0400 	strbeq	r0, [sl], #-1024	; 0x400
    1f80:	00000142 	andeq	r0, r0, r2, asr #2
    1f84:	2e05140d 	cdpcs	4, 0, cr1, cr5, cr13, {0}
    1f88:	0000021e 	andeq	r0, r0, lr, lsl r2
    1f8c:	0012930e 	andseq	r9, r2, lr, lsl #6
    1f90:	b4300500 	ldrtlt	r0, [r0], #-1280	; 0x500
    1f94:	00000000 	andeq	r0, r0, r0
    1f98:	0010dd0e 	andseq	sp, r0, lr, lsl #26
    1f9c:	b4310500 	ldrtlt	r0, [r1], #-1280	; 0x500
    1fa0:	04000000 	streq	r0, [r0], #-0
    1fa4:	00134d0e 	andseq	r4, r3, lr, lsl #26
    1fa8:	b4320500 	ldrtlt	r0, [r2], #-1280	; 0x500
    1fac:	08000000 	stmdaeq	r0, {}	; <UNPREDICTABLE>
    1fb0:	0013000e 	andseq	r0, r3, lr
    1fb4:	b4330500 	ldrtlt	r0, [r3], #-1280	; 0x500
    1fb8:	0c000000 	stceq	0, cr0, [r0], {-0}
    1fbc:	0012740e 	andseq	r7, r2, lr, lsl #8
    1fc0:	b4340500 	ldrtlt	r0, [r4], #-1280	; 0x500
    1fc4:	10000000 	andne	r0, r0, r0
    1fc8:	10aa0300 	adcne	r0, sl, r0, lsl #6
    1fcc:	35050000 	strcc	r0, [r5, #-0]
    1fd0:	000001d9 	ldrdeq	r0, [r0], -r9
    1fd4:	00110f0f 	andseq	r0, r1, pc, lsl #30
    1fd8:	00d90100 	sbcseq	r0, r9, r0, lsl #2
    1fdc:	5c000000 	stcpl	0, cr0, [r0], {-0}
    1fe0:	01000000 	mrseq	r0, (UNDEF: 0)
    1fe4:	1285109c 	addne	r1, r5, #156	; 0x9c
    1fe8:	0e010000 	cdpeq	0, 0, cr0, cr1, cr0, {0}
    1fec:	00000001 	andeq	r0, r0, r1
    1ff0:	00005c00 	andeq	r5, r0, r0, lsl #24
    1ff4:	609c0100 	addsvs	r0, ip, r0, lsl #2
    1ff8:	11000002 	tstne	r0, r2
    1ffc:	00001334 	andeq	r1, r0, r4, lsr r3
    2000:	b4010e01 	strlt	r0, [r1], #-3585	; 0xe01
    2004:	02000000 	andeq	r0, r0, #0
    2008:	12007491 	andne	r7, r0, #-1862270976	; 0x91000000
    200c:	0000111a 	andeq	r1, r0, sl, lsl r1
    2010:	36013001 	strcc	r3, [r1], -r1
    2014:	00000001 	andeq	r0, r0, r1
    2018:	50000000 	andpl	r0, r0, r0
    201c:	01000000 	mrseq	r0, (UNDEF: 0)
    2020:	0002a89c 	muleq	r2, ip, r8
    2024:	01891300 	orreq	r1, r9, r0, lsl #6
    2028:	32010000 	andcc	r0, r1, #0
    202c:	0000c601 	andeq	ip, r0, r1, lsl #12
    2030:	70910200 	addsvc	r0, r1, r0, lsl #4
    2034:	00053913 	andeq	r3, r5, r3, lsl r9
    2038:	01330100 	teqeq	r3, r0, lsl #2
    203c:	00000136 	andeq	r0, r0, r6, lsr r1
    2040:	13779102 	cmnne	r7, #-2147483648	; 0x80000000
    2044:	000000cd 	andeq	r0, r0, sp, asr #1
    2048:	e6013401 	str	r3, [r1], -r1, lsl #8
    204c:	02000000 	andeq	r0, r0, #0
    2050:	10007691 	mulne	r0, r1, r6
    2054:	000013e0 	andeq	r1, r0, r0, ror #7
    2058:	00014e01 	andeq	r4, r1, r1, lsl #28
    205c:	3c000000 	stccc	0, cr0, [r0], {-0}
    2060:	01000000 	mrseq	r0, (UNDEF: 0)
    2064:	0002dd9c 	muleq	r2, ip, sp
    2068:	13ea1100 	mvnne	r1, #0, 2
    206c:	4e010000 	cdpmi	0, 0, cr0, cr1, cr0, {0}
    2070:	00009301 	andeq	r9, r0, r1, lsl #6
    2074:	6f910200 	svcvs	0x00910200
    2078:	00052f13 	andeq	r2, r5, r3, lsl pc
    207c:	01500100 	cmpeq	r0, r0, lsl #2
    2080:	000000b4 	strheq	r0, [r0], -r4
    2084:	00749102 	rsbseq	r9, r4, r2, lsl #2
    2088:	0013c610 	andseq	ip, r3, r0, lsl r6
    208c:	01620100 	cmneq	r2, r0, lsl #2
    2090:	00000000 	andeq	r0, r0, r0
    2094:	00000020 	andeq	r0, r0, r0, lsr #32
    2098:	03039c01 	movweq	r9, #15361	; 0x3c01
    209c:	b7110000 	ldrlt	r0, [r1, -r0]
    20a0:	01000004 	tsteq	r0, r4
    20a4:	01140162 	tsteq	r4, r2, ror #2
    20a8:	91020000 	mrsls	r0, (UNDEF: 2)
    20ac:	60100077 	andsvs	r0, r0, r7, ror r0
    20b0:	01000011 	tsteq	r0, r1, lsl r0
    20b4:	0000017a 	andeq	r0, r0, sl, ror r1
    20b8:	003c0000 	eorseq	r0, ip, r0
    20bc:	9c010000 	stcls	0, cr0, [r1], {-0}
    20c0:	00000347 	andeq	r0, r0, r7, asr #6
    20c4:	00120811 	andseq	r0, r2, r1, lsl r8
    20c8:	017a0100 	cmneq	sl, r0, lsl #2
    20cc:	000000b4 	strheq	r0, [r0], -r4
    20d0:	116c9102 	cmnne	ip, r2, lsl #2
    20d4:	000010bc 	strheq	r1, [r0], -ip
    20d8:	b4017a01 	strlt	r7, [r1], #-2561	; 0xa01
    20dc:	02000000 	andeq	r0, r0, #0
    20e0:	2f136891 	svccs	0x00136891
    20e4:	01000005 	tsteq	r0, r5
    20e8:	00b4017c 	adcseq	r0, r4, ip, ror r1
    20ec:	91020000 	mrsls	r0, (UNDEF: 2)
    20f0:	9f100074 	svcls	0x00100074
    20f4:	01000010 	tsteq	r0, r0, lsl r0
    20f8:	00000191 	muleq	r0, r1, r1
    20fc:	00200000 	eoreq	r0, r0, r0
    2100:	9c010000 	stcls	0, cr0, [r1], {-0}
    2104:	0000036d 	andeq	r0, r0, sp, ror #6
    2108:	0004b711 	andeq	fp, r4, r1, lsl r7
    210c:	01910100 	orrseq	r0, r1, r0, lsl #2
    2110:	00000114 	andeq	r0, r0, r4, lsl r1
    2114:	00779102 	rsbseq	r9, r7, r2, lsl #2
    2118:	00121610 	andseq	r1, r2, r0, lsl r6
    211c:	02340100 	eorseq	r0, r4, #0, 2
    2120:	00000000 	andeq	r0, r0, r0
    2124:	00000038 	andeq	r0, r0, r8, lsr r0
    2128:	03a29c01 			; <UNDEFINED> instruction: 0x03a29c01
    212c:	3c110000 	ldccc	0, cr0, [r1], {-0}
    2130:	01000013 	tsteq	r0, r3, lsl r0
    2134:	00b40234 	adcseq	r0, r4, r4, lsr r2
    2138:	91020000 	mrsls	r0, (UNDEF: 2)
    213c:	052f136c 	streq	r1, [pc, #-876]!	; 1dd8 <g_pfnVectors-0x7ffe228>
    2140:	36010000 	strcc	r0, [r1], -r0
    2144:	0000b402 	andeq	fp, r0, r2, lsl #8
    2148:	74910200 	ldrvc	r0, [r1], #512	; 0x200
    214c:	11961400 	orrsne	r1, r6, r0, lsl #8
    2150:	4b010000 	blmi	42158 <g_pfnVectors-0x7fbdea8>
    2154:	00009302 	andeq	r9, r0, r2, lsl #6
    2158:	00000000 	andeq	r0, r0, r0
    215c:	00002000 	andeq	r2, r0, r0
    2160:	109c0100 	addsne	r0, ip, r0, lsl #2
    2164:	000013b7 			; <UNDEFINED> instruction: 0x000013b7
    2168:	00026001 	andeq	r6, r2, r1
    216c:	38000000 	stmdacc	r0, {}	; <UNPREDICTABLE>
    2170:	01000000 	mrseq	r0, (UNDEF: 0)
    2174:	0003ed9c 	muleq	r3, ip, sp
    2178:	12691100 	rsbne	r1, r9, #0, 2
    217c:	60010000 	andvs	r0, r1, r0
    2180:	0000b402 	andeq	fp, r0, r2, lsl #8
    2184:	6c910200 	lfmvs	f0, 4, [r1], {0}
    2188:	00052f13 	andeq	r2, r5, r3, lsl pc
    218c:	02620100 	rsbeq	r0, r2, #0, 2
    2190:	000000b4 	strheq	r0, [r0], -r4
    2194:	00749102 	rsbseq	r9, r4, r2, lsl #2
    2198:	0011b010 	andseq	fp, r1, r0, lsl r0
    219c:	027a0100 	rsbseq	r0, sl, #0, 2
    21a0:	00000000 	andeq	r0, r0, r0
    21a4:	00000038 	andeq	r0, r0, r8, lsr r0
    21a8:	04229c01 	strteq	r9, [r2], #-3073	; 0xc01
    21ac:	27110000 	ldrcs	r0, [r1, -r0]
    21b0:	01000010 	tsteq	r0, r0, lsl r0
    21b4:	00b4027a 	adcseq	r0, r4, sl, ror r2
    21b8:	91020000 	mrsls	r0, (UNDEF: 2)
    21bc:	052f136c 	streq	r1, [pc, #-876]!	; 1e58 <g_pfnVectors-0x7ffe1a8>
    21c0:	7c010000 	stcvc	0, cr0, [r1], {-0}
    21c4:	0000b402 	andeq	fp, r0, r2, lsl #8
    21c8:	74910200 	ldrvc	r0, [r1], #512	; 0x200
    21cc:	140c1000 	strne	r1, [ip], #-0
    21d0:	94010000 	strls	r0, [r1], #-0
    21d4:	00000002 	andeq	r0, r0, r2
    21d8:	00003800 	andeq	r3, r0, r0, lsl #16
    21dc:	579c0100 	ldrpl	r0, [ip, r0, lsl #2]
    21e0:	11000004 	tstne	r0, r4
    21e4:	00001027 	andeq	r1, r0, r7, lsr #32
    21e8:	b4029401 	strlt	r9, [r2], #-1025	; 0x401
    21ec:	02000000 	andeq	r0, r0, #0
    21f0:	2f136c91 	svccs	0x00136c91
    21f4:	01000005 	tsteq	r0, r5
    21f8:	00b40296 	umlalseq	r0, r4, r6, r2
    21fc:	91020000 	mrsls	r0, (UNDEF: 2)
    2200:	10100074 	andsne	r0, r0, r4, ror r0
    2204:	01000013 	tsteq	r0, r3, lsl r0
    2208:	000002bc 			; <UNDEFINED> instruction: 0x000002bc
    220c:	00480000 	subeq	r0, r8, r0
    2210:	9c010000 	stcls	0, cr0, [r1], {-0}
    2214:	0000048c 	andeq	r0, r0, ip, lsl #9
    2218:	0013d911 	andseq	sp, r3, r1, lsl r9
    221c:	02bc0100 	adcseq	r0, ip, #0, 2
    2220:	00000093 	muleq	r0, r3, r0
    2224:	11779102 	cmnne	r7, r2, lsl #2
    2228:	000004b7 			; <UNDEFINED> instruction: 0x000004b7
    222c:	1402bc01 	strne	fp, [r2], #-3073	; 0xc01
    2230:	02000001 	andeq	r0, r0, #1
    2234:	10007691 	mulne	r0, r1, r6
    2238:	0000117a 	andeq	r1, r0, sl, ror r1
    223c:	0002d801 	andeq	sp, r2, r1, lsl #16
    2240:	1c000000 	stcne	0, cr0, [r0], {-0}
    2244:	01000000 	mrseq	r0, (UNDEF: 0)
    2248:	0004b29c 	muleq	r4, ip, r2
    224c:	124a1100 	subne	r1, sl, #0, 2
    2250:	d8010000 	stmdale	r1, {}	; <UNPREDICTABLE>
    2254:	0000b402 	andeq	fp, r0, r2, lsl #8
    2258:	74910200 	ldrvc	r0, [r1], #512	; 0x200
    225c:	10301000 	eorsne	r1, r0, r0
    2260:	fe010000 	cdp2	0, 0, cr0, cr1, cr0, {0}
    2264:	00000002 	andeq	r0, r0, r2
    2268:	00003800 	andeq	r3, r0, r0, lsl #16
    226c:	e79c0100 	ldr	r0, [ip, r0, lsl #2]
    2270:	11000004 	tstne	r0, r4
    2274:	00001095 	muleq	r0, r5, r0
    2278:	b402fe01 	strlt	pc, [r2], #-3585	; 0xe01
    227c:	02000000 	andeq	r0, r0, #0
    2280:	2f136c91 	svccs	0x00136c91
    2284:	01000005 	tsteq	r0, r5
    2288:	00b40300 	adcseq	r0, r4, r0, lsl #6
    228c:	91020000 	mrsls	r0, (UNDEF: 2)
    2290:	5d100074 	ldcpl	0, cr0, [r0, #-464]	; 0xfffffe30
    2294:	01000013 	tsteq	r0, r3, lsl r0
    2298:	0000033d 	andeq	r0, r0, sp, lsr r3
    229c:	00400000 	subeq	r0, r0, r0
    22a0:	9c010000 	stcls	0, cr0, [r1], {-0}
    22a4:	0000050d 	andeq	r0, r0, sp, lsl #10
    22a8:	00106e11 	andseq	r6, r0, r1, lsl lr
    22ac:	033d0100 	teqeq	sp, #0, 2
    22b0:	00000093 	muleq	r0, r3, r0
    22b4:	00779102 	rsbseq	r9, r7, r2, lsl #2
    22b8:	00118b10 	andseq	r8, r1, r0, lsl fp
    22bc:	035e0100 	cmpeq	lr, #0, 2
    22c0:	00000000 	andeq	r0, r0, r0
    22c4:	00000020 	andeq	r0, r0, r0, lsr #32
    22c8:	05339c01 	ldreq	r9, [r3, #-3073]!	; 0xc01
    22cc:	b7110000 	ldrlt	r0, [r1, -r0]
    22d0:	01000004 	tsteq	r0, r4
    22d4:	0114035e 	tsteq	r4, lr, asr r3
    22d8:	91020000 	mrsls	r0, (UNDEF: 2)
    22dc:	39100077 	ldmdbcc	r0, {r0, r1, r2, r4, r5, r6}
    22e0:	01000012 	tsteq	r0, r2, lsl r0
    22e4:	0000036f 	andeq	r0, r0, pc, ror #6
    22e8:	00240000 	eoreq	r0, r4, r0
    22ec:	9c010000 	stcls	0, cr0, [r1], {-0}
    22f0:	00000559 	andeq	r0, r0, r9, asr r5
    22f4:	00113011 	andseq	r3, r1, r1, lsl r0
    22f8:	036f0100 	cmneq	pc, #0, 2
    22fc:	000000b4 	strheq	r0, [r0], -r4
    2300:	00749102 	rsbseq	r9, r4, r2, lsl #2
    2304:	00138e10 	andseq	r8, r3, r0, lsl lr
    2308:	037d0100 	cmneq	sp, #0, 2
    230c:	00000000 	andeq	r0, r0, r0
    2310:	00000020 	andeq	r0, r0, r0, lsr #32
    2314:	057f9c01 	ldrbeq	r9, [pc, #-3073]!	; 171b <g_pfnVectors-0x7ffe8e5>
    2318:	b7110000 	ldrlt	r0, [r1, -r0]
    231c:	01000004 	tsteq	r0, r4
    2320:	0114037d 	tsteq	r4, sp, ror r3
    2324:	91020000 	mrsls	r0, (UNDEF: 2)
    2328:	7c100077 	ldcvc	0, cr0, [r0], {119}	; 0x77
    232c:	01000013 	tsteq	r0, r3, lsl r0
    2330:	0894038c 	ldmeq	r4, {r2, r3, r7, r8, r9}
    2334:	01640800 	cmneq	r4, r0, lsl #16
    2338:	9c010000 	stcls	0, cr0, [r1], {-0}
    233c:	000005e1 	andeq	r0, r0, r1, ror #11
    2340:	0011e111 	andseq	lr, r1, r1, lsl r1
    2344:	038c0100 	orreq	r0, ip, #0, 2
    2348:	000005e1 	andeq	r0, r0, r1, ror #11
    234c:	15649102 	strbne	r9, [r4, #-258]!	; 0x102
    2350:	00706d74 	rsbseq	r6, r0, r4, ror sp
    2354:	b4038e01 	strlt	r8, [r3], #-3585	; 0xe01
    2358:	02000000 	andeq	r0, r0, #0
    235c:	1e137491 	cfcmpsne	r7, mvf3, mvf1
    2360:	01000001 	tsteq	r0, r1
    2364:	00b4038e 	adcseq	r0, r4, lr, lsl #7
    2368:	91020000 	mrsls	r0, (UNDEF: 2)
    236c:	015a1370 	cmpeq	sl, r0, ror r3
    2370:	8e010000 	cdphi	0, 0, cr0, cr1, cr0, {0}
    2374:	0000b403 	andeq	fp, r0, r3, lsl #8
    2378:	6c910200 	lfmvs	f0, 4, [r1], {0}
    237c:	0010fb13 	andseq	pc, r0, r3, lsl fp	; <UNPREDICTABLE>
    2380:	038e0100 	orreq	r0, lr, #0, 2
    2384:	000000b4 	strheq	r0, [r0], -r4
    2388:	00689102 	rsbeq	r9, r8, r2, lsl #2
    238c:	021e0416 	andseq	r0, lr, #369098752	; 0x16000000
    2390:	c7100000 	ldrgt	r0, [r0, -r0]
    2394:	01000010 	tsteq	r0, r0, lsl r0
    2398:	00000428 	andeq	r0, r0, r8, lsr #8
    239c:	003c0000 	eorseq	r0, ip, r0
    23a0:	9c010000 	stcls	0, cr0, [r1], {-0}
    23a4:	0000061c 	andeq	r0, r0, ip, lsl r6
    23a8:	0013fe11 	andseq	pc, r3, r1, lsl lr	; <UNPREDICTABLE>
    23ac:	04280100 	strteq	r0, [r8], #-256	; 0x100
    23b0:	000000b4 	strheq	r0, [r0], -r4
    23b4:	11749102 	cmnne	r4, r2, lsl #2
    23b8:	000004b7 			; <UNDEFINED> instruction: 0x000004b7
    23bc:	14042801 	strne	r2, [r4], #-2049	; 0x801
    23c0:	02000001 	andeq	r0, r0, #1
    23c4:	10007391 	mulne	r0, r1, r3
    23c8:	0000131d 	andeq	r1, r0, sp, lsl r3
    23cc:	f8044701 			; <UNDEFINED> instruction: 0xf8044701
    23d0:	3c080009 	stccc	0, cr0, [r8], {9}
    23d4:	01000000 	mrseq	r0, (UNDEF: 0)
    23d8:	0006519c 	muleq	r6, ip, r1
    23dc:	10861100 	addne	r1, r6, r0, lsl #2
    23e0:	47010000 	strmi	r0, [r1, -r0]
    23e4:	0000b404 	andeq	fp, r0, r4, lsl #8
    23e8:	74910200 	ldrvc	r0, [r1], #512	; 0x200
    23ec:	0004b711 	andeq	fp, r4, r1, lsl r7
    23f0:	04470100 	strbeq	r0, [r7], #-256	; 0x100
    23f4:	00000114 	andeq	r0, r0, r4, lsl r1
    23f8:	00739102 	rsbseq	r9, r3, r2, lsl #2
    23fc:	0011ca10 	andseq	ip, r1, r0, lsl sl
    2400:	04660100 	strbteq	r0, [r6], #-256	; 0x100
    2404:	00000000 	andeq	r0, r0, r0
    2408:	0000003c 	andeq	r0, r0, ip, lsr r0
    240c:	06869c01 	streq	r9, [r6], r1, lsl #24
    2410:	ec110000 	ldc	0, cr0, [r1], {-0}
    2414:	01000010 	tsteq	r0, r0, lsl r0
    2418:	00b40466 	adcseq	r0, r4, r6, ror #8
    241c:	91020000 	mrsls	r0, (UNDEF: 2)
    2420:	04b71174 	ldrteq	r1, [r7], #372	; 0x174
    2424:	66010000 	strvs	r0, [r1], -r0
    2428:	00011404 	andeq	r1, r1, r4, lsl #8
    242c:	73910200 	orrsvc	r0, r1, #0, 4
    2430:	10571000 	subsne	r1, r7, r0
    2434:	a1010000 	mrsge	r0, (UNDEF: 1)
    2438:	00000004 	andeq	r0, r0, r4
    243c:	00003c00 	andeq	r3, r0, r0, lsl #24
    2440:	bb9c0100 	bllt	fe702848 <__StackTop+0xde6fd848>
    2444:	11000006 	tstne	r0, r6
    2448:	00001086 	andeq	r1, r0, r6, lsl #1
    244c:	b404a101 	strlt	sl, [r4], #-257	; 0x101
    2450:	02000000 	andeq	r0, r0, #0
    2454:	b7117491 			; <UNDEFINED> instruction: 0xb7117491
    2458:	01000004 	tsteq	r0, r4
    245c:	011404a1 	tsteq	r4, r1, lsr #9
    2460:	91020000 	mrsls	r0, (UNDEF: 2)
    2464:	49100073 	ldmdbmi	r0, {r0, r1, r4, r5, r6}
    2468:	01000011 	tsteq	r0, r1, lsl r0
    246c:	000004c0 	andeq	r0, r0, r0, asr #9
    2470:	003c0000 	eorseq	r0, ip, r0
    2474:	9c010000 	stcls	0, cr0, [r1], {-0}
    2478:	000006f0 	strdeq	r0, [r0], -r0	; <UNPREDICTABLE>
    247c:	0010ec11 	andseq	lr, r0, r1, lsl ip
    2480:	04c00100 	strbeq	r0, [r0], #256	; 0x100
    2484:	000000b4 	strheq	r0, [r0], -r4
    2488:	11749102 	cmnne	r4, r2, lsl #2
    248c:	000004b7 			; <UNDEFINED> instruction: 0x000004b7
    2490:	1404c001 	strne	ip, [r4], #-1
    2494:	02000001 	andeq	r0, r0, #1
    2498:	10007391 	mulne	r0, r1, r3
    249c:	000011ec 	andeq	r1, r0, ip, ror #3
    24a0:	0004d501 	andeq	sp, r4, r1, lsl #10
    24a4:	20000000 	andcs	r0, r0, r0
    24a8:	01000000 	mrseq	r0, (UNDEF: 0)
    24ac:	0007169c 	muleq	r7, ip, r6
    24b0:	04b71100 	ldrteq	r1, [r7], #256	; 0x100
    24b4:	d5010000 	strle	r0, [r1, #-0]
    24b8:	00011404 	andeq	r1, r1, r4, lsl #8
    24bc:	77910200 	ldrvc	r0, [r1, r0, lsl #4]
    24c0:	139c1000 	orrsne	r1, ip, #0
    24c4:	e2010000 	and	r0, r1, #0
    24c8:	00000004 	andeq	r0, r0, r4
    24cc:	00002000 	andeq	r2, r0, r0
    24d0:	3c9c0100 	ldfccs	f0, [ip], {0}
    24d4:	11000007 	tstne	r0, r7
    24d8:	000004b7 			; <UNDEFINED> instruction: 0x000004b7
    24dc:	1404e201 	strne	lr, [r4], #-513	; 0x201
    24e0:	02000001 	andeq	r0, r0, #1
    24e4:	10007791 	mulne	r0, r1, r7
    24e8:	00001101 	andeq	r1, r0, r1, lsl #2
    24ec:	00050201 	andeq	r0, r5, r1, lsl #4
    24f0:	20000000 	andcs	r0, r0, r0
    24f4:	01000000 	mrseq	r0, (UNDEF: 0)
    24f8:	0007629c 	muleq	r7, ip, r2
    24fc:	13d11100 	bicsne	r1, r1, #0, 2
    2500:	02010000 	andeq	r0, r1, #0
    2504:	00009305 	andeq	r9, r0, r5, lsl #6
    2508:	77910200 	ldrvc	r0, [r1, r0, lsl #4]
    250c:	12271700 	eorne	r1, r7, #0, 14
    2510:	2e010000 	cdpcs	0, 0, cr0, cr1, cr0, {0}
    2514:	0000e605 	andeq	lr, r0, r5, lsl #12
    2518:	00000000 	andeq	r0, r0, r0
    251c:	00007400 	andeq	r7, r0, r0, lsl #8
    2520:	b99c0100 	ldmiblt	ip, {r8}
    2524:	11000007 	tstne	r0, r7
    2528:	000011ff 	strdeq	r1, [r0], -pc	; <UNPREDICTABLE>
    252c:	93052e01 	movwls	r2, #24065	; 0x5e01
    2530:	02000000 	andeq	r0, r0, #0
    2534:	74156791 	ldrvc	r6, [r5], #-1937	; 0x791
    2538:	0100706d 	tsteq	r0, sp, rrx
    253c:	00b40530 	adcseq	r0, r4, r0, lsr r5
    2540:	91020000 	mrsls	r0, (UNDEF: 2)
    2544:	11c0136c 	bicne	r1, r0, ip, ror #6
    2548:	31010000 	mrscc	r0, (UNDEF: 1)
    254c:	0000b405 	andeq	fp, r0, r5, lsl #8
    2550:	74910200 	ldrvc	r0, [r1], #512	; 0x200
    2554:	00053613 	andeq	r3, r5, r3, lsl r6
    2558:	05320100 	ldreq	r0, [r2, #-256]!	; 0x100
    255c:	000000e6 	andeq	r0, r0, r6, ror #1
    2560:	00739102 	rsbseq	r9, r3, r2, lsl #2
    2564:	00125b18 	andseq	r5, r2, r8, lsl fp
    2568:	055b0100 	ldrbeq	r0, [fp, #-256]	; 0x100
    256c:	00000000 	andeq	r0, r0, r0
    2570:	0000001c 	andeq	r0, r0, ip, lsl r0
    2574:	76179c01 	ldrvc	r9, [r7], -r1, lsl #24
    2578:	01000010 	tsteq	r0, r0, lsl r0
    257c:	00f2057a 	rscseq	r0, r2, sl, ror r5
    2580:	00000000 	andeq	r0, r0, r0
    2584:	00380000 	eorseq	r0, r8, r0
    2588:	9c010000 	stcls	0, cr0, [r1], {-0}
    258c:	00000804 	andeq	r0, r0, r4, lsl #16
    2590:	0013d911 	andseq	sp, r3, r1, lsl r9
    2594:	057a0100 	ldrbeq	r0, [sl, #-256]!	; 0x100
    2598:	00000093 	muleq	r0, r3, r0
    259c:	136f9102 	cmnne	pc, #-2147483648	; 0x80000000
    25a0:	00000536 	andeq	r0, r0, r6, lsr r5
    25a4:	f2057c01 			; <UNDEFINED> instruction: 0xf2057c01
    25a8:	02000000 	andeq	r0, r0, #0
    25ac:	10007791 	mulne	r0, r1, r7
    25b0:	00001041 	andeq	r1, r0, r1, asr #32
    25b4:	0005a801 	andeq	sl, r5, r1, lsl #16
    25b8:	20000000 	andcs	r0, r0, r0
    25bc:	01000000 	mrseq	r0, (UNDEF: 0)
    25c0:	00082a9c 	muleq	r8, ip, sl
    25c4:	13d91100 	bicsne	r1, r9, #0, 2
    25c8:	a8010000 	stmdage	r1, {}	; <UNPREDICTABLE>
    25cc:	00009305 	andeq	r9, r0, r5, lsl #6
    25d0:	77910200 	ldrvc	r0, [r1, r0, lsl #4]
    25d4:	00931900 	addseq	r1, r3, r0, lsl #18
    25d8:	083a0000 	ldmdaeq	sl!, {}	; <UNPREDICTABLE>
    25dc:	bf1a0000 	svclt	0x001a0000
    25e0:	0f000000 	svceq	0x00000000
    25e4:	136b1b00 	cmnne	fp, #0, 22
    25e8:	c1010000 	mrsgt	r0, (UNDEF: 1)
    25ec:	0000084b 	andeq	r0, r0, fp, asr #16
    25f0:	00140305 	andseq	r0, r4, r5, lsl #6
    25f4:	501c2000 	andspl	r2, ip, r0
    25f8:	05000008 	streq	r0, [r0, #-8]
    25fc:	0000082a 	andeq	r0, r0, sl, lsr #16
    2600:	00009319 	andeq	r9, r0, r9, lsl r3
    2604:	00086500 	andeq	r6, r8, r0, lsl #10
    2608:	00bf1a00 	adcseq	r1, pc, r0, lsl #20
    260c:	00030000 	andeq	r0, r3, r0
    2610:	00141c1b 	andseq	r1, r4, fp, lsl ip
    2614:	76c20100 	strbvc	r0, [r2], r0, lsl #2
    2618:	05000008 	streq	r0, [r0, #-8]
    261c:	00002403 	andeq	r2, r0, r3, lsl #8
    2620:	087b1c20 	ldmdaeq	fp!, {r5, sl, fp, ip}^
    2624:	55050000 	strpl	r0, [r5, #-0]
    2628:	1d000008 	stcne	0, cr0, [r0, #-32]	; 0xffffffe0
    262c:	0000024a 	andeq	r0, r0, sl, asr #4
    2630:	cb060706 	blgt	184250 <g_pfnVectors-0x7e7bdb0>
    2634:	00000000 	andeq	r0, r0, r0
    2638:	000009e4 	andeq	r0, r0, r4, ror #19
    263c:	08630004 	stmdaeq	r3!, {r2}^
    2640:	01040000 	mrseq	r0, (UNDEF: 4)
    2644:	0000000c 	andeq	r0, r0, ip
    2648:	00144401 	andseq	r4, r4, r1, lsl #8
    264c:	00022800 	andeq	r2, r2, r0, lsl #16
    2650:	00000000 	andeq	r0, r0, r0
    2654:	00109d00 	andseq	r9, r0, r0, lsl #26
    2658:	06010200 	streq	r0, [r1], -r0, lsl #4
    265c:	00000166 	andeq	r0, r0, r6, ror #2
    2660:	00013603 	andeq	r3, r1, r3, lsl #12
    2664:	331c0200 	tstcc	ip, #0, 4
    2668:	02000000 	andeq	r0, r0, #0
    266c:	01640801 	cmneq	r4, r1, lsl #16
    2670:	02020000 	andeq	r0, r2, #0
    2674:	0000f405 	andeq	pc, r0, r5, lsl #8
    2678:	00c20300 	sbceq	r0, r2, r0, lsl #6
    267c:	26020000 	strcs	r0, [r2], -r0
    2680:	0000004c 	andeq	r0, r0, ip, asr #32
    2684:	dc070202 	sfmle	f0, 4, [r7], {2}
    2688:	03000001 	movweq	r0, #1
    268c:	00000224 	andeq	r0, r0, r4, lsr #4
    2690:	005e3702 	subseq	r3, lr, r2, lsl #14
    2694:	04020000 	streq	r0, [r2], #-0
    2698:	00011005 	andeq	r1, r1, r5
    269c:	00b70300 	adcseq	r0, r7, r0, lsl #6
    26a0:	38020000 	stmdacc	r2, {}	; <UNPREDICTABLE>
    26a4:	00000070 	andeq	r0, r0, r0, ror r0
    26a8:	9d070402 	cfstrsls	mvf0, [r7, #-8]
    26ac:	02000001 	andeq	r0, r0, #1
    26b0:	010b0508 	tsteq	fp, r8, lsl #10
    26b4:	08020000 	stmdaeq	r2, {}	; <UNPREDICTABLE>
    26b8:	00019807 	andeq	r9, r1, r7, lsl #16
    26bc:	05040400 	streq	r0, [r4, #-1024]	; 0x400
    26c0:	00746e69 	rsbseq	r6, r4, r9, ror #28
    26c4:	a2070402 	andge	r0, r7, #33554432	; 0x2000000
    26c8:	03000001 	movweq	r0, #1
    26cc:	00000138 	andeq	r0, r0, r8, lsr r1
    26d0:	00282a03 	eoreq	r2, r8, r3, lsl #20
    26d4:	c4030000 	strgt	r0, [r3], #-0
    26d8:	03000000 	movweq	r0, #0
    26dc:	00004136 	andeq	r4, r0, r6, lsr r1
    26e0:	02260300 	eoreq	r0, r6, #0, 6
    26e4:	41030000 	mrsmi	r0, (UNDEF: 3)
    26e8:	00000053 	andeq	r0, r0, r3, asr r0
    26ec:	0000b903 	andeq	fp, r0, r3, lsl #18
    26f0:	65420300 	strbvs	r0, [r2, #-768]	; 0x300
    26f4:	02000000 	andeq	r0, r0, #0
    26f8:	00a90704 	adceq	r0, r9, r4, lsl #14
    26fc:	9e050000 	cdpls	0, 0, cr0, cr5, cr0, {0}
    2700:	05000000 	streq	r0, [r0, #-0]
    2704:	000000a9 	andeq	r0, r0, r9, lsr #1
    2708:	36317506 	ldrtcc	r7, [r1], -r6, lsl #10
    270c:	01f80400 	mvnseq	r0, r0, lsl #8
    2710:	0000009e 	muleq	r0, lr, r0
    2714:	07040107 	streq	r0, [r4, -r7, lsl #2]
    2718:	0000f202 	andeq	pc, r0, r2, lsl #4
    271c:	045b0800 	ldrbeq	r0, [fp], #-2048	; 0x800
    2720:	09000000 	stmdbeq	r0, {}	; <UNPREDICTABLE>
    2724:	00544553 	subseq	r4, r4, r3, asr r5
    2728:	2e0a0001 	cdpcs	0, 0, cr0, cr10, cr1, {0}
    272c:	04000012 	streq	r0, [r0], #-18
    2730:	00dc0207 	sbcseq	r0, ip, r7, lsl #4
    2734:	7d0a0000 	stcvc	0, cr0, [sl, #-0]
    2738:	04000010 	streq	r0, [r0], #-16
    273c:	00dc0207 	sbcseq	r0, ip, r7, lsl #4
    2740:	01070000 	mrseq	r0, (UNDEF: 7)
    2744:	20020904 	andcs	r0, r2, r4, lsl #18
    2748:	08000001 	stmdaeq	r0, {r0}
    274c:	000004c8 	andeq	r0, r0, r8, asr #9
    2750:	04940800 	ldreq	r0, [r4], #2048	; 0x800
    2754:	00010000 	andeq	r0, r1, r0
    2758:	00068a0a 	andeq	r8, r6, sl, lsl #20
    275c:	02090400 	andeq	r0, r9, #0, 8
    2760:	0000010a 	andeq	r0, r0, sl, lsl #2
    2764:	d2041c0b 	andle	r1, r4, #2816	; 0xb00
    2768:	0001ea04 	andeq	lr, r1, r4, lsl #20
    276c:	52530c00 	subspl	r0, r3, #0, 24
    2770:	04d40400 	ldrbeq	r0, [r4], #1024	; 0x400
    2774:	000000c6 	andeq	r0, r0, r6, asr #1
    2778:	00dd0d00 	sbcseq	r0, sp, r0, lsl #26
    277c:	d5040000 	strle	r0, [r4, #-0]
    2780:	00009e04 	andeq	r9, r0, r4, lsl #28
    2784:	440c0200 	strmi	r0, [ip], #-512	; 0x200
    2788:	d6040052 			; <UNDEFINED> instruction: 0xd6040052
    278c:	0000c604 	andeq	ip, r0, r4, lsl #12
    2790:	430d0400 	movwmi	r0, #54272	; 0xd400
    2794:	04000009 	streq	r0, [r0], #-9
    2798:	009e04d7 			; <UNDEFINED> instruction: 0x009e04d7
    279c:	0c060000 	stceq	0, cr0, [r6], {-0}
    27a0:	00525242 	subseq	r5, r2, r2, asr #4
    27a4:	c604d804 	strgt	sp, [r4], -r4, lsl #16
    27a8:	08000000 	stmdaeq	r0, {}	; <UNPREDICTABLE>
    27ac:	0009c00d 	andeq	ip, r9, sp
    27b0:	04d90400 	ldrbeq	r0, [r9], #1024	; 0x400
    27b4:	0000009e 	muleq	r0, lr, r0
    27b8:	52430c0a 	subpl	r0, r3, #2560	; 0xa00
    27bc:	da040031 	ble	102888 <g_pfnVectors-0x7efd778>
    27c0:	0000c604 	andeq	ip, r0, r4, lsl #12
    27c4:	4d0d0c00 	stcmi	12, cr0, [sp, #-0]
    27c8:	04000009 	streq	r0, [r0], #-9
    27cc:	009e04db 			; <UNDEFINED> instruction: 0x009e04db
    27d0:	0c0e0000 	stceq	0, cr0, [lr], {-0}
    27d4:	00325243 	eorseq	r5, r2, r3, asr #4
    27d8:	c604dc04 	strgt	sp, [r4], -r4, lsl #24
    27dc:	10000000 	andne	r0, r0, r0
    27e0:	0009570d 	andeq	r5, r9, sp, lsl #14
    27e4:	04dd0400 	ldrbeq	r0, [sp], #1024	; 0x400
    27e8:	0000009e 	muleq	r0, lr, r0
    27ec:	52430c12 	subpl	r0, r3, #4608	; 0x1200
    27f0:	de040033 	mcrle	0, 0, r0, cr4, cr3, {1}
    27f4:	0000c604 	andeq	ip, r0, r4, lsl #12
    27f8:	610d1400 	tstvs	sp, r0, lsl #8
    27fc:	04000009 	streq	r0, [r0], #-9
    2800:	009e04df 			; <UNDEFINED> instruction: 0x009e04df
    2804:	0d160000 	ldceq	0, cr0, [r6, #-0]
    2808:	00000793 	muleq	r0, r3, r7
    280c:	c604e004 	strgt	lr, [r4], -r4
    2810:	18000000 	stmdane	r0, {}	; <UNPREDICTABLE>
    2814:	00096b0d 	andeq	r6, r9, sp, lsl #22
    2818:	04e10400 	strbteq	r0, [r1], #1024	; 0x400
    281c:	0000009e 	muleq	r0, lr, r0
    2820:	130a001a 	movwne	r0, #40986	; 0xa01a
    2824:	0400000a 	streq	r0, [r0], #-10
    2828:	012c04e2 	smulwteq	ip, r2, r4
    282c:	100e0000 	andne	r0, lr, r0
    2830:	02473205 	subeq	r3, r7, #1342177280	; 0x50000000
    2834:	760f0000 	strvc	r0, [pc], -r0
    2838:	0500000a 	streq	r0, [r0, #-10]
    283c:	0000b434 	andeq	fp, r0, r4, lsr r4
    2840:	7a0f0000 	bvc	3c2848 <g_pfnVectors-0x7c3d7b8>
    2844:	05000009 	streq	r0, [r0, #-9]
    2848:	00009e39 	andeq	r9, r0, r9, lsr lr
    284c:	390f0400 	stmdbcc	pc, {sl}	; <UNPREDICTABLE>
    2850:	0500000b 	streq	r0, [r0, #-11]
    2854:	00009e3c 	andeq	r9, r0, ip, lsr lr
    2858:	cf0f0600 	svcgt	0x000f0600
    285c:	05000009 	streq	r0, [r0, #-9]
    2860:	00009e3f 	andeq	r9, r0, pc, lsr lr
    2864:	850f0800 	strhi	r0, [pc, #-2048]	; 206c <g_pfnVectors-0x7ffdf94>
    2868:	0500000a 	streq	r0, [r0, #-10]
    286c:	00009e46 	andeq	r9, r0, r6, asr #28
    2870:	6b0f0a00 	blvs	3c5078 <g_pfnVectors-0x7c3af88>
    2874:	0500000f 	streq	r0, [r0, #-15]
    2878:	00009e49 	andeq	r9, r0, r9, asr #28
    287c:	03000c00 	movweq	r0, #3072	; 0xc00
    2880:	00000dfe 	strdeq	r0, [r0], -lr
    2884:	01f64c05 	mvnseq	r4, r5, lsl #24
    2888:	080e0000 	stmdaeq	lr, {}	; <UNPREDICTABLE>
    288c:	028b5205 	addeq	r5, fp, #1342177280	; 0x50000000
    2890:	d40f0000 	strle	r0, [pc], #-0	; 2898 <g_pfnVectors-0x7ffd768>
    2894:	05000016 	streq	r0, [r0, #-22]
    2898:	00009e55 	andeq	r9, r0, r5, asr lr
    289c:	c20f0000 	andgt	r0, pc, #0
    28a0:	05000017 	streq	r0, [r0, #-23]
    28a4:	00009e58 	andeq	r9, r0, r8, asr lr
    28a8:	390f0200 	stmdbcc	pc, {r9}	; <UNPREDICTABLE>
    28ac:	05000014 	streq	r0, [r0, #-20]
    28b0:	00009e5b 	andeq	r9, r0, fp, asr lr
    28b4:	4f0f0400 	svcmi	0x000f0400
    28b8:	05000015 	streq	r0, [r0, #-21]
    28bc:	00009e5e 	andeq	r9, r0, lr, asr lr
    28c0:	03000600 	movweq	r0, #1536	; 0x600
    28c4:	000014f1 	strdeq	r1, [r0], -r1	; <UNPREDICTABLE>
    28c8:	02526105 	subseq	r6, r2, #1073741825	; 0x40000001
    28cc:	140e0000 	strne	r0, [lr], #-0
    28d0:	02db2e06 	sbcseq	r2, fp, #6, 28	; 0x60
    28d4:	930f0000 	movwls	r0, #61440	; 0xf000
    28d8:	06000012 			; <UNDEFINED> instruction: 0x06000012
    28dc:	0000b430 	andeq	fp, r0, r0, lsr r4
    28e0:	dd0f0000 	stcle	0, cr0, [pc, #-0]	; 28e8 <g_pfnVectors-0x7ffd718>
    28e4:	06000010 			; <UNDEFINED> instruction: 0x06000010
    28e8:	0000b431 	andeq	fp, r0, r1, lsr r4
    28ec:	4d0f0400 	cfstrsmi	mvf0, [pc, #-0]	; 28f4 <g_pfnVectors-0x7ffd70c>
    28f0:	06000013 			; <UNDEFINED> instruction: 0x06000013
    28f4:	0000b432 	andeq	fp, r0, r2, lsr r4
    28f8:	000f0800 	andeq	r0, pc, r0, lsl #16
    28fc:	06000013 			; <UNDEFINED> instruction: 0x06000013
    2900:	0000b433 	andeq	fp, r0, r3, lsr r4
    2904:	740f0c00 	strvc	r0, [pc], #-3072	; 290c <g_pfnVectors-0x7ffd6f4>
    2908:	06000012 			; <UNDEFINED> instruction: 0x06000012
    290c:	0000b434 	andeq	fp, r0, r4, lsr r4
    2910:	03001000 	movweq	r1, #0
    2914:	000010aa 	andeq	r1, r0, sl, lsr #1
    2918:	02963506 	addseq	r3, r6, #25165824	; 0x1800000
    291c:	c9100000 	ldmdbgt	r0, {}	; <UNPREDICTABLE>
    2920:	01000015 	tsteq	r0, r5, lsl r0
    2924:	00000082 	andeq	r0, r0, r2, lsl #1
    2928:	0000b800 	andeq	fp, r0, r0, lsl #16
    292c:	0a9c0100 	beq	fe702d34 <__StackTop+0xde6fdd34>
    2930:	11000003 	tstne	r0, r3
    2934:	0000166d 	andeq	r1, r0, sp, ror #12
    2938:	030a8201 	movweq	r8, #41473	; 0xa201
    293c:	91020000 	mrsls	r0, (UNDEF: 2)
    2940:	04120074 	ldreq	r0, [r2], #-116	; 0x74
    2944:	000001ea 	andeq	r0, r0, sl, ror #3
    2948:	0014b510 	andseq	fp, r4, r0, lsl r5
    294c:	34b00100 	ldrtcc	r0, [r0], #256	; 0x100
    2950:	7408000a 	strvc	r0, [r8], #-10
    2954:	01000001 	tsteq	r0, r1
    2958:	0003969c 	muleq	r3, ip, r6
    295c:	166d1100 	strbtne	r1, [sp], -r0, lsl #2
    2960:	b0010000 	andlt	r0, r1, r0
    2964:	0000030a 	andeq	r0, r0, sl, lsl #6
    2968:	114c9102 	cmpne	ip, r2, lsl #2
    296c:	0000167b 	andeq	r1, r0, fp, ror r6
    2970:	0396b001 	orrseq	fp, r6, #1
    2974:	91020000 	mrsls	r0, (UNDEF: 2)
    2978:	052f1348 	streq	r1, [pc, #-840]!	; 2638 <g_pfnVectors-0x7ffd9c8>
    297c:	b2010000 	andlt	r0, r1, #0
    2980:	000000b4 	strheq	r0, [r0], -r4
    2984:	13749102 	cmnne	r4, #-2147483648	; 0x80000000
    2988:	0000156c 	andeq	r1, r0, ip, ror #10
    298c:	00b4b201 	adcseq	fp, r4, r1, lsl #4
    2990:	91020000 	mrsls	r0, (UNDEF: 2)
    2994:	142a1370 	strtne	r1, [sl], #-880	; 0x370
    2998:	b3010000 	movwlt	r0, #4096	; 0x1000
    299c:	000000b4 	strheq	r0, [r0], -r4
    29a0:	136c9102 	cmnne	ip, #-2147483648	; 0x80000000
    29a4:	00001713 	andeq	r1, r0, r3, lsl r7
    29a8:	00b4b401 	adcseq	fp, r4, r1, lsl #8
    29ac:	91020000 	mrsls	r0, (UNDEF: 2)
    29b0:	160f1368 	strne	r1, [pc], -r8, ror #6
    29b4:	b5010000 	strlt	r0, [r1, #-0]
    29b8:	000000b4 	strheq	r0, [r0], -r4
    29bc:	13649102 	cmnne	r4, #-2147483648	; 0x80000000
    29c0:	0000176c 	andeq	r1, r0, ip, ror #14
    29c4:	02dbb601 	sbcseq	fp, fp, #1048576	; 0x100000
    29c8:	91020000 	mrsls	r0, (UNDEF: 2)
    29cc:	04120050 	ldreq	r0, [r2], #-80	; 0x50
    29d0:	00000247 	andeq	r0, r0, r7, asr #4
    29d4:	0017dd14 	andseq	sp, r7, r4, lsl sp
    29d8:	01190100 	tsteq	r9, r0, lsl #2
    29dc:	00000000 	andeq	r0, r0, r0
    29e0:	00000038 	andeq	r0, r0, r8, lsr r0
    29e4:	03c29c01 	biceq	r9, r2, #256	; 0x100
    29e8:	7b150000 	blvc	5429f0 <g_pfnVectors-0x7abd610>
    29ec:	01000016 	tsteq	r0, r6, lsl r0
    29f0:	03960119 	orrseq	r0, r6, #1073741830	; 0x40000006
    29f4:	91020000 	mrsls	r0, (UNDEF: 2)
    29f8:	7d140074 	ldcvc	0, cr0, [r4, #-464]	; 0xfffffe30
    29fc:	01000017 	tsteq	r0, r7, lsl r0
    2a00:	0000012e 	andeq	r0, r0, lr, lsr #2
    2a04:	00540000 	subseq	r0, r4, r0
    2a08:	9c010000 	stcls	0, cr0, [r1], {-0}
    2a0c:	00000406 	andeq	r0, r0, r6, lsl #8
    2a10:	00166d15 	andseq	r6, r6, r5, lsl sp
    2a14:	012e0100 	teqeq	lr, r0, lsl #2
    2a18:	0000030a 	andeq	r0, r0, sl, lsl #6
    2a1c:	156c9102 	strbne	r9, [ip, #-258]!	; 0x102
    2a20:	000015d6 	ldrdeq	r1, [r0], -r6
    2a24:	06012e01 	streq	r2, [r1], -r1, lsl #28
    2a28:	02000004 	andeq	r0, r0, #4
    2a2c:	2f166891 	svccs	0x00166891
    2a30:	01000005 	tsteq	r0, r5
    2a34:	00b40130 	adcseq	r0, r4, r0, lsr r1
    2a38:	91020000 	mrsls	r0, (UNDEF: 2)
    2a3c:	04120074 	ldreq	r0, [r2], #-116	; 0x74
    2a40:	0000028b 	andeq	r0, r0, fp, lsl #5
    2a44:	0015f914 	andseq	pc, r5, r4, lsl r9	; <UNPREDICTABLE>
    2a48:	014d0100 	mrseq	r0, (UNDEF: 93)
    2a4c:	00000000 	andeq	r0, r0, r0
    2a50:	0000002a 	andeq	r0, r0, sl, lsr #32
    2a54:	04329c01 	ldrteq	r9, [r2], #-3073	; 0xc01
    2a58:	d6150000 	ldrle	r0, [r5], -r0
    2a5c:	01000015 	tsteq	r0, r5, lsl r0
    2a60:	0406014d 	streq	r0, [r6], #-333	; 0x14d
    2a64:	91020000 	mrsls	r0, (UNDEF: 2)
    2a68:	08140074 	ldmdaeq	r4, {r2, r4, r5, r6}
    2a6c:	01000015 	tsteq	r0, r5, lsl r0
    2a70:	0ba8015f 	bleq	fea02ff4 <__StackTop+0xde9fdff4>
    2a74:	003e0800 	eorseq	r0, lr, r0, lsl #16
    2a78:	9c010000 	stcls	0, cr0, [r1], {-0}
    2a7c:	00000467 	andeq	r0, r0, r7, ror #8
    2a80:	00166d15 	andseq	r6, r6, r5, lsl sp
    2a84:	015f0100 	cmpeq	pc, r0, lsl #2
    2a88:	0000030a 	andeq	r0, r0, sl, lsl #6
    2a8c:	15749102 	ldrbne	r9, [r4, #-258]!	; 0x102
    2a90:	000004b7 			; <UNDEFINED> instruction: 0x000004b7
    2a94:	20015f01 	andcs	r5, r1, r1, lsl #30
    2a98:	02000001 	andeq	r0, r0, #1
    2a9c:	14007391 	strne	r7, [r0], #-913	; 0x391
    2aa0:	0000165e 	andeq	r1, r0, lr, asr r6
    2aa4:	00018401 	andeq	r8, r1, r1, lsl #8
    2aa8:	8e000000 	cdphi	0, 0, cr0, cr0, cr0, {0}
    2aac:	01000000 	mrseq	r0, (UNDEF: 0)
    2ab0:	0004e79c 	muleq	r4, ip, r7
    2ab4:	166d1500 	strbtne	r1, [sp], -r0, lsl #10
    2ab8:	84010000 	strhi	r0, [r1], #-0
    2abc:	00030a01 	andeq	r0, r3, r1, lsl #20
    2ac0:	64910200 	ldrvs	r0, [r1], #512	; 0x200
    2ac4:	00176315 	andseq	r6, r7, r5, lsl r3
    2ac8:	01840100 	orreq	r0, r4, r0, lsl #2
    2acc:	0000009e 	muleq	r0, lr, r0
    2ad0:	15629102 	strbne	r9, [r2, #-258]!	; 0x102
    2ad4:	000004b7 			; <UNDEFINED> instruction: 0x000004b7
    2ad8:	20018401 	andcs	r8, r1, r1, lsl #8
    2adc:	02000001 	andeq	r0, r0, #1
    2ae0:	d4166191 	ldrle	r6, [r6], #-401	; 0x191
    2ae4:	01000017 	tsteq	r0, r7, lsl r0
    2ae8:	00b40186 	adcseq	r0, r4, r6, lsl #3
    2aec:	91020000 	mrsls	r0, (UNDEF: 2)
    2af0:	16751670 			; <UNDEFINED> instruction: 0x16751670
    2af4:	86010000 	strhi	r0, [r1], -r0
    2af8:	0000b401 	andeq	fp, r0, r1, lsl #8
    2afc:	6c910200 	lfmvs	f0, 4, [r1], {0}
    2b00:	0017cd16 	andseq	ip, r7, r6, lsl sp
    2b04:	01860100 	orreq	r0, r6, r0, lsl #2
    2b08:	000000b4 	strheq	r0, [r0], -r4
    2b0c:	16689102 	strbtne	r9, [r8], -r2, lsl #2
    2b10:	0000160f 	andeq	r1, r0, pc, lsl #12
    2b14:	b4018701 	strlt	r8, [r1], #-1793	; 0x701
    2b18:	02000000 	andeq	r0, r0, #0
    2b1c:	14007491 	strne	r7, [r0], #-1169	; 0x491
    2b20:	00001542 	andeq	r1, r0, r2, asr #10
    2b24:	0001c001 	andeq	ip, r1, r1
    2b28:	46000000 	strmi	r0, [r0], -r0
    2b2c:	01000000 	mrseq	r0, (UNDEF: 0)
    2b30:	00052b9c 	muleq	r5, ip, fp
    2b34:	166d1500 	strbtne	r1, [sp], -r0, lsl #10
    2b38:	c0010000 	andgt	r0, r1, r0
    2b3c:	00030a01 	andeq	r0, r3, r1, lsl #20
    2b40:	74910200 	ldrvc	r0, [r1], #512	; 0x200
    2b44:	0015ec15 	andseq	lr, r5, r5, lsl ip
    2b48:	01c00100 	biceq	r0, r0, r0, lsl #2
    2b4c:	0000009e 	muleq	r0, lr, r0
    2b50:	15729102 	ldrbne	r9, [r2, #-258]!	; 0x102
    2b54:	000004b7 			; <UNDEFINED> instruction: 0x000004b7
    2b58:	2001c001 	andcs	ip, r1, r1
    2b5c:	02000001 	andeq	r0, r0, #1
    2b60:	14007191 	strne	r7, [r0], #-401	; 0x191
    2b64:	0000162a 	andeq	r1, r0, sl, lsr #12
    2b68:	0001dc01 	andeq	sp, r1, r1, lsl #24
    2b6c:	38000000 	stmdacc	r0, {}	; <UNPREDICTABLE>
    2b70:	01000000 	mrseq	r0, (UNDEF: 0)
    2b74:	0005609c 	muleq	r5, ip, r0
    2b78:	166d1500 	strbtne	r1, [sp], -r0, lsl #10
    2b7c:	dc010000 	stcle	0, cr0, [r1], {-0}
    2b80:	00030a01 	andeq	r0, r3, r1, lsl #20
    2b84:	74910200 	ldrvc	r0, [r1], #512	; 0x200
    2b88:	00168c15 	andseq	r8, r6, r5, lsl ip
    2b8c:	01dc0100 	bicseq	r0, ip, r0, lsl #2
    2b90:	00000093 	muleq	r0, r3, r0
    2b94:	00739102 	rsbseq	r9, r3, r2, lsl #2
    2b98:	00178d14 	andseq	r8, r7, r4, lsl sp
    2b9c:	01f30100 	mvnseq	r0, r0, lsl #2
    2ba0:	00000000 	andeq	r0, r0, r0
    2ba4:	00000036 	andeq	r0, r0, r6, lsr r0
    2ba8:	05959c01 	ldreq	r9, [r5, #3073]	; 0xc01
    2bac:	6d150000 	ldcvs	0, cr0, [r5, #-0]
    2bb0:	01000016 	tsteq	r0, r6, lsl r0
    2bb4:	030a01f3 	movweq	r0, #41459	; 0xa1f3
    2bb8:	91020000 	mrsls	r0, (UNDEF: 2)
    2bbc:	15351574 	ldrne	r1, [r5, #-1396]!	; 0x574
    2bc0:	f3010000 	vhadd.u8	d0, d1, d0
    2bc4:	00009e01 	andeq	r9, r0, r1, lsl #28
    2bc8:	72910200 	addsvc	r0, r1, #0, 4
    2bcc:	16e01400 	strbtne	r1, [r0], r0, lsl #8
    2bd0:	06010000 	streq	r0, [r1], -r0
    2bd4:	00000002 	andeq	r0, r0, r2
    2bd8:	00003e00 	andeq	r3, r0, r0, lsl #28
    2bdc:	ca9c0100 	bgt	fe702fe4 <__StackTop+0xde6fdfe4>
    2be0:	15000005 	strne	r0, [r0, #-5]
    2be4:	0000166d 	andeq	r1, r0, sp, ror #12
    2be8:	0a020601 	beq	843f4 <g_pfnVectors-0x7f7bc0c>
    2bec:	02000003 	andeq	r0, r0, #3
    2bf0:	b7157491 			; <UNDEFINED> instruction: 0xb7157491
    2bf4:	01000004 	tsteq	r0, r4
    2bf8:	01200206 	teqeq	r0, r6, lsl #4
    2bfc:	91020000 	mrsls	r0, (UNDEF: 2)
    2c00:	9d140073 	ldcls	0, cr0, [r4, #-460]	; 0xfffffe34
    2c04:	01000015 	tsteq	r0, r5, lsl r0
    2c08:	00000223 	andeq	r0, r0, r3, lsr #4
    2c0c:	00360000 	eorseq	r0, r6, r0
    2c10:	9c010000 	stcls	0, cr0, [r1], {-0}
    2c14:	000005ff 	strdeq	r0, [r0], -pc	; <UNPREDICTABLE>
    2c18:	00166d15 	andseq	r6, r6, r5, lsl sp
    2c1c:	02230100 	eoreq	r0, r3, #0, 2
    2c20:	0000030a 	andeq	r0, r0, sl, lsl #6
    2c24:	15749102 	ldrbne	r9, [r4, #-258]!	; 0x102
    2c28:	000014c0 	andeq	r1, r0, r0, asr #9
    2c2c:	9e022301 	cdpls	3, 0, cr2, cr2, cr1, {0}
    2c30:	02000000 	andeq	r0, r0, #0
    2c34:	14007291 	strne	r7, [r0], #-657	; 0x291
    2c38:	00001706 	andeq	r1, r0, r6, lsl #14
    2c3c:	00023601 	andeq	r3, r2, r1, lsl #12
    2c40:	3e000000 	cdpcc	0, 0, cr0, cr0, cr0, {0}
    2c44:	01000000 	mrseq	r0, (UNDEF: 0)
    2c48:	0006349c 	muleq	r6, ip, r4
    2c4c:	166d1500 	strbtne	r1, [sp], -r0, lsl #10
    2c50:	36010000 	strcc	r0, [r1], -r0
    2c54:	00030a02 	andeq	r0, r3, r2, lsl #20
    2c58:	74910200 	ldrvc	r0, [r1], #512	; 0x200
    2c5c:	0004b715 	andeq	fp, r4, r5, lsl r7
    2c60:	02360100 	eorseq	r0, r6, #0, 2
    2c64:	00000120 	andeq	r0, r0, r0, lsr #2
    2c68:	00739102 	rsbseq	r9, r3, r2, lsl #2
    2c6c:	00151214 	andseq	r1, r5, r4, lsl r2
    2c70:	02500100 	subseq	r0, r0, #0, 2
    2c74:	08000be8 	stmdaeq	r0, {r3, r5, r6, r7, r8, r9, fp}
    2c78:	00000022 	andeq	r0, r0, r2, lsr #32
    2c7c:	06699c01 	strbteq	r9, [r9], -r1, lsl #24
    2c80:	6d150000 	ldcvs	0, cr0, [r5, #-0]
    2c84:	01000016 	tsteq	r0, r6, lsl r0
    2c88:	030a0250 	movweq	r0, #41552	; 0xa250
    2c8c:	91020000 	mrsls	r0, (UNDEF: 2)
    2c90:	151c1574 	ldrne	r1, [ip, #-1396]	; 0x574
    2c94:	50010000 	andpl	r0, r1, r0
    2c98:	00009e02 	andeq	r9, r0, r2, lsl #28
    2c9c:	72910200 	addsvc	r0, r1, #0, 4
    2ca0:	17a01700 	strne	r1, [r0, r0, lsl #14]!
    2ca4:	61010000 	mrsvs	r0, (UNDEF: 1)
    2ca8:	00009e02 	andeq	r9, r0, r2, lsl #28
    2cac:	000c0c00 	andeq	r0, ip, r0, lsl #24
    2cb0:	00002008 	andeq	r2, r0, r8
    2cb4:	939c0100 	orrsls	r0, ip, #0, 2
    2cb8:	15000006 	strne	r0, [r0, #-6]
    2cbc:	0000166d 	andeq	r1, r0, sp, ror #12
    2cc0:	0a026101 	beq	9b0cc <g_pfnVectors-0x7f64f34>
    2cc4:	02000003 	andeq	r0, r0, #3
    2cc8:	14007491 	strne	r7, [r0], #-1169	; 0x491
    2ccc:	0000164e 	andeq	r1, r0, lr, asr #12
    2cd0:	00027101 	andeq	r7, r2, r1, lsl #2
    2cd4:	22000000 	andcs	r0, r0, #0
    2cd8:	01000000 	mrseq	r0, (UNDEF: 0)
    2cdc:	0006b99c 	muleq	r6, ip, r9
    2ce0:	166d1500 	strbtne	r1, [sp], -r0, lsl #10
    2ce4:	71010000 	mrsvc	r0, (UNDEF: 1)
    2ce8:	00030a02 	andeq	r0, r3, r2, lsl #20
    2cec:	74910200 	ldrvc	r0, [r1], #512	; 0x200
    2cf0:	163b1400 	ldrtne	r1, [fp], -r0, lsl #8
    2cf4:	81010000 	mrshi	r0, (UNDEF: 1)
    2cf8:	00000002 	andeq	r0, r0, r2
    2cfc:	00003a00 	andeq	r3, r0, r0, lsl #20
    2d00:	ee9c0100 	fmle	f0, f4, f0
    2d04:	15000006 	strne	r0, [r0, #-6]
    2d08:	0000166d 	andeq	r1, r0, sp, ror #12
    2d0c:	0a028101 	beq	a3118 <g_pfnVectors-0x7f5cee8>
    2d10:	02000003 	andeq	r0, r0, #3
    2d14:	8d157491 	cfldrshi	mvf7, [r5, #-580]	; 0xfffffdbc
    2d18:	01000015 	tsteq	r0, r5, lsl r0
    2d1c:	00930281 	addseq	r0, r3, r1, lsl #5
    2d20:	91020000 	mrsls	r0, (UNDEF: 2)
    2d24:	a2140073 	andsge	r0, r4, #115	; 0x73
    2d28:	01000014 	tsteq	r0, r4, lsl r0
    2d2c:	00000295 	muleq	r0, r5, r2
    2d30:	00380000 	eorseq	r0, r8, r0
    2d34:	9c010000 	stcls	0, cr0, [r1], {-0}
    2d38:	00000723 	andeq	r0, r0, r3, lsr #14
    2d3c:	00166d15 	andseq	r6, r6, r5, lsl sp
    2d40:	02950100 	addseq	r0, r5, #0, 2
    2d44:	0000030a 	andeq	r0, r0, sl, lsl #6
    2d48:	15749102 	ldrbne	r9, [r4, #-258]!	; 0x102
    2d4c:	000017b2 			; <UNDEFINED> instruction: 0x000017b2
    2d50:	93029501 	movwls	r9, #9473	; 0x2501
    2d54:	02000000 	andeq	r0, r0, #0
    2d58:	14007391 	strne	r7, [r0], #-913	; 0x391
    2d5c:	00001750 	andeq	r1, r0, r0, asr r7
    2d60:	0002a801 	andeq	sl, r2, r1, lsl #16
    2d64:	3e000000 	cdpcc	0, 0, cr0, cr0, cr0, {0}
    2d68:	01000000 	mrseq	r0, (UNDEF: 0)
    2d6c:	0007589c 	muleq	r7, ip, r8
    2d70:	166d1500 	strbtne	r1, [sp], -r0, lsl #10
    2d74:	a8010000 	stmdage	r1, {}	; <UNPREDICTABLE>
    2d78:	00030a02 	andeq	r0, r3, r2, lsl #20
    2d7c:	74910200 	ldrvc	r0, [r1], #512	; 0x200
    2d80:	0004b715 	andeq	fp, r4, r5, lsl r7
    2d84:	02a80100 	adceq	r0, r8, #0, 2
    2d88:	00000120 	andeq	r0, r0, r0, lsr #2
    2d8c:	00739102 	rsbseq	r9, r3, r2, lsl #2
    2d90:	00172514 	andseq	r2, r7, r4, lsl r5
    2d94:	02c10100 	sbceq	r0, r1, #0, 2
    2d98:	00000000 	andeq	r0, r0, r0
    2d9c:	0000003e 	andeq	r0, r0, lr, lsr r0
    2da0:	078d9c01 	streq	r9, [sp, r1, lsl #24]
    2da4:	6d150000 	ldcvs	0, cr0, [r5, #-0]
    2da8:	01000016 	tsteq	r0, r6, lsl r0
    2dac:	030a02c1 	movweq	r0, #41665	; 0xa2c1
    2db0:	91020000 	mrsls	r0, (UNDEF: 2)
    2db4:	04b71574 	ldrteq	r1, [r7], #1396	; 0x574
    2db8:	c1010000 	mrsgt	r0, (UNDEF: 1)
    2dbc:	00012002 	andeq	r2, r1, r2
    2dc0:	73910200 	orrsvc	r0, r1, #0, 4
    2dc4:	15211400 	strne	r1, [r1, #-1024]!	; 0x400
    2dc8:	db010000 	blle	42dd0 <g_pfnVectors-0x7fbd230>
    2dcc:	00000002 	andeq	r0, r0, r2
    2dd0:	00003e00 	andeq	r3, r0, r0, lsl #28
    2dd4:	c29c0100 	addsgt	r0, ip, #0, 2
    2dd8:	15000007 	strne	r0, [r0, #-7]
    2ddc:	0000166d 	andeq	r1, r0, sp, ror #12
    2de0:	0a02db01 	beq	b99ec <g_pfnVectors-0x7f46614>
    2de4:	02000003 	andeq	r0, r0, #3
    2de8:	b7157491 			; <UNDEFINED> instruction: 0xb7157491
    2dec:	01000004 	tsteq	r0, r4
    2df0:	012002db 	ldrdeq	r0, [r0, -fp]!
    2df4:	91020000 	mrsls	r0, (UNDEF: 2)
    2df8:	9a140073 	bls	502fcc <g_pfnVectors-0x7afd034>
    2dfc:	01000016 	tsteq	r0, r6, lsl r0
    2e00:	000002fa 	strdeq	r0, [r0], -sl
    2e04:	00420000 	subeq	r0, r2, r0
    2e08:	9c010000 	stcls	0, cr0, [r1], {-0}
    2e0c:	000007f7 	strdeq	r0, [r0], -r7
    2e10:	00166d15 	andseq	r6, r6, r5, lsl sp
    2e14:	02fa0100 	rscseq	r0, sl, #0, 2
    2e18:	0000030a 	andeq	r0, r0, sl, lsl #6
    2e1c:	15749102 	ldrbne	r9, [r4, #-258]!	; 0x102
    2e20:	000004b7 			; <UNDEFINED> instruction: 0x000004b7
    2e24:	2002fa01 	andcs	pc, r2, r1, lsl #20
    2e28:	02000001 	andeq	r0, r0, #1
    2e2c:	14007391 	strne	r7, [r0], #-913	; 0x391
    2e30:	000014db 	ldrdeq	r1, [r0], -fp
    2e34:	00031501 	andeq	r1, r3, r1, lsl #10
    2e38:	3e000000 	cdpcc	0, 0, cr0, cr0, cr0, {0}
    2e3c:	01000000 	mrseq	r0, (UNDEF: 0)
    2e40:	00082c9c 	muleq	r8, ip, ip
    2e44:	166d1500 	strbtne	r1, [sp], -r0, lsl #10
    2e48:	15010000 	strne	r0, [r1, #-0]
    2e4c:	00030a03 	andeq	r0, r3, r3, lsl #20
    2e50:	74910200 	ldrvc	r0, [r1], #512	; 0x200
    2e54:	0004b715 	andeq	fp, r4, r5, lsl r7
    2e58:	03150100 	tsteq	r5, #0, 2
    2e5c:	00000120 	andeq	r0, r0, r0, lsr #2
    2e60:	00739102 	rsbseq	r9, r3, r2, lsl #2
    2e64:	0016c314 	andseq	ip, r6, r4, lsl r3
    2e68:	03320100 	teqeq	r2, #0, 2
    2e6c:	00000000 	andeq	r0, r0, r0
    2e70:	00000036 	andeq	r0, r0, r6, lsr r0
    2e74:	08619c01 	stmdaeq	r1!, {r0, sl, fp, ip, pc}^
    2e78:	6d150000 	ldcvs	0, cr0, [r5, #-0]
    2e7c:	01000016 	tsteq	r0, r6, lsl r0
    2e80:	030a0332 	movweq	r0, #41778	; 0xa332
    2e84:	91020000 	mrsls	r0, (UNDEF: 2)
    2e88:	155d1574 	ldrbne	r1, [sp, #-1396]	; 0x574
    2e8c:	32010000 	andcc	r0, r1, #0
    2e90:	00009e03 	andeq	r9, r0, r3, lsl #28
    2e94:	72910200 	addsvc	r0, r1, #0, 4
    2e98:	16f81400 	ldrbtne	r1, [r8], r0, lsl #8
    2e9c:	45010000 	strmi	r0, [r1, #-0]
    2ea0:	00000003 	andeq	r0, r0, r3
    2ea4:	00003e00 	andeq	r3, r0, r0, lsl #28
    2ea8:	969c0100 	ldrls	r0, [ip], r0, lsl #2
    2eac:	15000008 	strne	r0, [r0, #-8]
    2eb0:	0000166d 	andeq	r1, r0, sp, ror #12
    2eb4:	0a034501 	beq	d42c0 <g_pfnVectors-0x7f2bd40>
    2eb8:	02000003 	andeq	r0, r0, #3
    2ebc:	b7157491 			; <UNDEFINED> instruction: 0xb7157491
    2ec0:	01000004 	tsteq	r0, r4
    2ec4:	01200345 	teqeq	r0, r5, asr #6
    2ec8:	91020000 	mrsls	r0, (UNDEF: 2)
    2ecc:	3c170073 	ldccc	0, cr0, [r7], {115}	; 0x73
    2ed0:	01000017 	tsteq	r0, r7, lsl r0
    2ed4:	00f2036a 	rscseq	r0, r2, sl, ror #6
    2ed8:	0c2c0000 	stceq	0, cr0, [ip], #-0
    2edc:	00380800 	eorseq	r0, r8, r0, lsl #16
    2ee0:	9c010000 	stcls	0, cr0, [r1], {-0}
    2ee4:	000008de 	ldrdeq	r0, [r0], -lr
    2ee8:	00166d15 	andseq	r6, r6, r5, lsl sp
    2eec:	036a0100 	cmneq	sl, #0, 2
    2ef0:	0000030a 	andeq	r0, r0, sl, lsl #6
    2ef4:	156c9102 	strbne	r9, [ip, #-258]!	; 0x102
    2ef8:	000015be 			; <UNDEFINED> instruction: 0x000015be
    2efc:	9e036a01 	vmlals.f32	s12, s6, s2
    2f00:	02000000 	andeq	r0, r0, #0
    2f04:	36166a91 			; <UNDEFINED> instruction: 0x36166a91
    2f08:	01000005 	tsteq	r0, r5
    2f0c:	00f2036c 	rscseq	r0, r2, ip, ror #6
    2f10:	91020000 	mrsls	r0, (UNDEF: 2)
    2f14:	1a140077 	bne	5030f8 <g_pfnVectors-0x7afcf08>
    2f18:	01000016 	tsteq	r0, r6, lsl r0
    2f1c:	0000039b 	muleq	r0, fp, r3
    2f20:	00200000 	eoreq	r0, r0, r0
    2f24:	9c010000 	stcls	0, cr0, [r1], {-0}
    2f28:	00000913 	andeq	r0, r0, r3, lsl r9
    2f2c:	00166d15 	andseq	r6, r6, r5, lsl sp
    2f30:	039b0100 	orrseq	r0, fp, #0, 2
    2f34:	0000030a 	andeq	r0, r0, sl, lsl #6
    2f38:	15749102 	ldrbne	r9, [r4, #-258]!	; 0x102
    2f3c:	000015be 			; <UNDEFINED> instruction: 0x000015be
    2f40:	9e039b01 	vmlals.f64	d9, d3, d1
    2f44:	02000000 	andeq	r0, r0, #0
    2f48:	17007291 			; <UNDEFINED> instruction: 0x17007291
    2f4c:	000016b1 			; <UNDEFINED> instruction: 0x000016b1
    2f50:	fe03bc01 	cdp2	12, 0, cr11, cr3, cr1, {0}
    2f54:	00000000 	andeq	r0, r0, r0
    2f58:	ae000000 	cdpge	0, 0, cr0, cr0, cr0, {0}
    2f5c:	01000000 	mrseq	r0, (UNDEF: 0)
    2f60:	0009889c 	muleq	r9, ip, r8
    2f64:	166d1500 	strbtne	r1, [sp], -r0, lsl #10
    2f68:	bc010000 	stclt	0, cr0, [r1], {-0}
    2f6c:	00030a03 	andeq	r0, r3, r3, lsl #20
    2f70:	64910200 	ldrvs	r0, [r1], #512	; 0x200
    2f74:	00176315 	andseq	r6, r7, r5, lsl r3
    2f78:	03bc0100 			; <UNDEFINED> instruction: 0x03bc0100
    2f7c:	0000009e 	muleq	r0, lr, r0
    2f80:	16629102 	strbtne	r9, [r2], -r2, lsl #2
    2f84:	00001674 	andeq	r1, r0, r4, ror r6
    2f88:	b403be01 	strlt	fp, [r3], #-3585	; 0xe01
    2f8c:	02000000 	andeq	r0, r0, #0
    2f90:	cd166c91 	ldcgt	12, cr6, [r6, #-580]	; 0xfffffdbc
    2f94:	01000017 	tsteq	r0, r7, lsl r0
    2f98:	00b403be 	ldrhteq	r0, [r4], lr
    2f9c:	91020000 	mrsls	r0, (UNDEF: 2)
    2fa0:	17d41674 			; <UNDEFINED> instruction: 0x17d41674
    2fa4:	be010000 	cdplt	0, 0, cr0, cr1, cr0, {0}
    2fa8:	0000b403 	andeq	fp, r0, r3, lsl #8
    2fac:	68910200 	ldmvs	r1, {r9}
    2fb0:	00053616 	andeq	r3, r5, r6, lsl r6
    2fb4:	03bf0100 			; <UNDEFINED> instruction: 0x03bf0100
    2fb8:	000000fe 	strdeq	r0, [r0], -lr
    2fbc:	00739102 	rsbseq	r9, r3, r2, lsl #2
    2fc0:	00157514 	andseq	r7, r5, r4, lsl r5
    2fc4:	04060100 	streq	r0, [r6], #-256	; 0x100
    2fc8:	00000000 	andeq	r0, r0, r0
    2fcc:	00000038 	andeq	r0, r0, r8, lsr r0
    2fd0:	09db9c01 	ldmibeq	fp, {r0, sl, fp, ip, pc}^
    2fd4:	6d150000 	ldcvs	0, cr0, [r5, #-0]
    2fd8:	01000016 	tsteq	r0, r6, lsl r0
    2fdc:	030a0406 	movweq	r0, #41990	; 0xa406
    2fe0:	91020000 	mrsls	r0, (UNDEF: 2)
    2fe4:	1763156c 	strbne	r1, [r3, -ip, ror #10]!
    2fe8:	06010000 	streq	r0, [r1], -r0
    2fec:	00009e04 	andeq	r9, r0, r4, lsl #28
    2ff0:	6a910200 	bvs	fe4437f8 <__StackTop+0xde43e7f8>
    2ff4:	00167416 	andseq	r7, r6, r6, lsl r4
    2ff8:	04080100 	streq	r0, [r8], #-256	; 0x100
    2ffc:	0000009e 	muleq	r0, lr, r0
    3000:	16769102 	ldrbtne	r9, [r6], -r2, lsl #2
    3004:	000017cd 	andeq	r1, r0, sp, asr #15
    3008:	9e040801 	cdpls	8, 0, cr0, cr4, cr1, {0}
    300c:	02000000 	andeq	r0, r0, #0
    3010:	18007491 	stmdane	r0, {r0, r4, r7, sl, ip, sp, lr}
    3014:	0000024a 	andeq	r0, r0, sl, asr #4
    3018:	cb060707 	blgt	184c3c <g_pfnVectors-0x7e7b3c4>
    301c:	00000000 	andeq	r0, r0, r0
    3020:	0000053c 	andeq	r0, r0, ip, lsr r5
    3024:	09c50004 	stmibeq	r5, {r2}^
    3028:	01040000 	mrseq	r0, (UNDEF: 4)
    302c:	0000000c 	andeq	r0, r0, ip
    3030:	0017f601 	andseq	pc, r7, r1, lsl #12
    3034:	0008ea00 	andeq	lr, r8, r0, lsl #20
    3038:	00031800 	andeq	r1, r3, r0, lsl #16
    303c:	00000000 	andeq	r0, r0, r0
    3040:	00159b00 	andseq	r9, r5, r0, lsl #22
    3044:	07040200 	streq	r0, [r4, -r0, lsl #4]
    3048:	000001a2 	andeq	r0, r0, r2, lsr #3
    304c:	69050403 	stmdbvs	r5, {r0, r1, sl}
    3050:	0200746e 	andeq	r7, r0, #1845493760	; 0x6e000000
    3054:	01660601 	cmneq	r6, r1, lsl #12
    3058:	01020000 	mrseq	r0, (UNDEF: 2)
    305c:	00016408 	andeq	r6, r1, r8, lsl #8
    3060:	05020200 	streq	r0, [r2, #-512]	; 0x200
    3064:	000000f4 	strdeq	r0, [r0], -r4
    3068:	0000c204 	andeq	ip, r0, r4, lsl #4
    306c:	53260200 	teqpl	r6, #0, 4
    3070:	02000000 	andeq	r0, r0, #0
    3074:	01dc0702 	bicseq	r0, ip, r2, lsl #14
    3078:	24040000 	strcs	r0, [r4], #-0
    307c:	02000002 	andeq	r0, r0, #2
    3080:	00006537 	andeq	r6, r0, r7, lsr r5
    3084:	05040200 	streq	r0, [r4, #-512]	; 0x200
    3088:	00000110 	andeq	r0, r0, r0, lsl r1
    308c:	0000b704 	andeq	fp, r0, r4, lsl #14
    3090:	77380200 	ldrvc	r0, [r8, -r0, lsl #4]!
    3094:	02000000 	andeq	r0, r0, #0
    3098:	019d0704 	orrseq	r0, sp, r4, lsl #14
    309c:	08020000 	stmdaeq	r2, {}	; <UNPREDICTABLE>
    30a0:	00010b05 	andeq	r0, r1, r5, lsl #22
    30a4:	07080200 	streq	r0, [r8, -r0, lsl #4]
    30a8:	00000198 	muleq	r0, r8, r1
    30ac:	000f9204 	andeq	r9, pc, r4, lsl #4
    30b0:	65100300 	ldrvs	r0, [r0, #-768]	; 0x300
    30b4:	04000000 	streq	r0, [r0], #-0
    30b8:	00001929 	andeq	r1, r0, r9, lsr #18
    30bc:	00411403 	subeq	r1, r1, r3, lsl #8
    30c0:	31040000 	mrscc	r0, (UNDEF: 4)
    30c4:	03000019 	movweq	r0, #25
    30c8:	00005318 	andeq	r5, r0, r8, lsl r3
    30cc:	19410400 	stmdbne	r1, {sl}^
    30d0:	1b030000 	blne	c30d8 <g_pfnVectors-0x7f3cf28>
    30d4:	00000053 	andeq	r0, r0, r3, asr r0
    30d8:	a9070402 	stmdbge	r7, {r1, sl}
    30dc:	05000000 	streq	r0, [r0, #-0]
    30e0:	00003a04 	andeq	r3, r0, r4, lsl #20
    30e4:	cb040500 	blgt	1044ec <g_pfnVectors-0x7efbb14>
    30e8:	02000000 	andeq	r0, r0, #0
    30ec:	016d0801 	cmneq	sp, r1, lsl #16
    30f0:	ab040000 	blge	1030f8 <g_pfnVectors-0x7efcf08>
    30f4:	04000018 	streq	r0, [r0], #-24
    30f8:	0000657a 	andeq	r6, r0, sl, ror r5
    30fc:	18e10400 	stmiane	r1!, {sl}^
    3100:	92040000 	andls	r0, r4, #0
    3104:	000000c5 	andeq	r0, r0, r5, asr #1
    3108:	00188a04 	andseq	r8, r8, r4, lsl #20
    310c:	539b0400 	orrspl	r0, fp, #0, 8
    3110:	04000000 	streq	r0, [r0], #-0
    3114:	00000f93 	muleq	r0, r3, pc	; <UNPREDICTABLE>
    3118:	008cb804 	addeq	fp, ip, r4, lsl #16
    311c:	2b040000 	blcs	103124 <g_pfnVectors-0x7efcedc>
    3120:	04000019 	streq	r0, [r0], #-25
    3124:	000097b9 			; <UNDEFINED> instruction: 0x000097b9
    3128:	19330400 	ldmdbne	r3!, {sl}
    312c:	ba040000 	blt	103134 <g_pfnVectors-0x7efcecc>
    3130:	000000a2 	andeq	r0, r0, r2, lsr #1
    3134:	00194304 	andseq	r4, r9, r4, lsl #6
    3138:	adbb0400 	cfldrsge	mvf0, [fp]
    313c:	04000000 	streq	r0, [r0], #-0
    3140:	0000184a 	andeq	r1, r0, sl, asr #16
    3144:	0025d904 	eoreq	sp, r5, r4, lsl #18
    3148:	68040000 	stmdavs	r4, {}	; <UNPREDICTABLE>
    314c:	04000018 	streq	r0, [r0], #-24
    3150:	000053de 	ldrdeq	r5, [r0], -lr
    3154:	18630600 	stmdane	r3!, {r9, sl}^
    3158:	053c0000 	ldreq	r0, [ip, #-0]!
    315c:	00020e19 	andeq	r0, r2, r9, lsl lr
    3160:	185a0700 	ldmdane	sl, {r8, r9, sl}^
    3164:	1b050000 	blne	14316c <g_pfnVectors-0x7ebce94>
    3168:	000000fe 	strdeq	r0, [r0], -lr
    316c:	18b80700 	ldmne	r8!, {r8, r9, sl}
    3170:	1c050000 	stcne	0, cr0, [r5], {-0}
    3174:	000000e8 	andeq	r0, r0, r8, ror #1
    3178:	19390702 	ldmdbne	r9!, {r1, r8, r9, sl}
    317c:	1d050000 	stcne	0, cr0, [r5, #-0]
    3180:	0000011f 	andeq	r0, r0, pc, lsl r1
    3184:	18bf0704 	ldmne	pc!, {r2, r8, r9, sl}	; <UNPREDICTABLE>
    3188:	1e050000 	cdpne	0, 0, cr0, cr5, cr0, {0}
    318c:	0000012a 	andeq	r0, r0, sl, lsr #2
    3190:	18f30708 	ldmne	r3!, {r3, r8, r9, sl}^
    3194:	1f050000 	svcne	0x00050000
    3198:	00000109 	andeq	r0, r0, r9, lsl #2
    319c:	1883070a 	stmne	r3, {r1, r3, r8, r9, sl}
    31a0:	20050000 	andcs	r0, r5, r0
    31a4:	00000114 	andeq	r0, r0, r4, lsl r1
    31a8:	17ee070c 	strbne	r0, [lr, ip, lsl #14]!
    31ac:	21050000 	mrscs	r0, (UNDEF: 5)
    31b0:	000000fe 	strdeq	r0, [r0], -lr
    31b4:	189e070e 	ldmne	lr, {r1, r2, r3, r8, r9, sl}
    31b8:	22050000 	andcs	r0, r5, #0
    31bc:	000000f3 	strdeq	r0, [r0], -r3
    31c0:	18950710 	ldmne	r5, {r4, r8, r9, sl}
    31c4:	30050000 	andcc	r0, r5, r0
    31c8:	000000d2 	ldrdeq	r0, [r0], -r2
    31cc:	19040714 	stmdbne	r4, {r2, r4, r8, r9, sl}
    31d0:	31050000 	mrscc	r0, (UNDEF: 5)
    31d4:	00000065 	andeq	r0, r0, r5, rrx
    31d8:	18c80718 	stmiane	r8, {r3, r4, r8, r9, sl}^
    31dc:	32050000 	andcc	r0, r5, #0
    31e0:	000000d2 	ldrdeq	r0, [r0], -r2
    31e4:	18d1071c 	ldmne	r1, {r2, r3, r4, r8, r9, sl}^
    31e8:	33050000 	movwcc	r0, #20480	; 0x5000
    31ec:	00000065 	andeq	r0, r0, r5, rrx
    31f0:	18510720 	ldmdane	r1, {r5, r8, r9, sl}^
    31f4:	34050000 	strcc	r0, [r5], #-0
    31f8:	000000d2 	ldrdeq	r0, [r0], -r2
    31fc:	190e0724 	stmdbne	lr, {r2, r5, r8, r9, sl}
    3200:	35050000 	strcc	r0, [r5, #-0]
    3204:	00000065 	andeq	r0, r0, r5, rrx
    3208:	18700728 	ldmdane	r0!, {r3, r5, r8, r9, sl}^
    320c:	36050000 	strcc	r0, [r5], -r0
    3210:	00000065 	andeq	r0, r0, r5, rrx
    3214:	18e9072c 	stmiane	r9!, {r2, r3, r5, r8, r9, sl}^
    3218:	37050000 	strcc	r0, [r5, -r0]
    321c:	00000065 	andeq	r0, r0, r5, rrx
    3220:	19180730 	ldmdbne	r8, {r4, r5, r8, r9, sl}
    3224:	38050000 	stmdacc	r5, {}	; <UNPREDICTABLE>
    3228:	0000020e 	andeq	r0, r0, lr, lsl #4
    322c:	65080034 	strvs	r0, [r8, #-52]	; 0x34
    3230:	1e000000 	cdpne	0, 0, cr0, cr0, cr0, {0}
    3234:	09000002 	stmdbeq	r0, {r1}
    3238:	000000b8 	strheq	r0, [r0], -r8
    323c:	c4040001 	strgt	r0, [r4], #-1
    3240:	06000000 	streq	r0, [r0], -r0
    3244:	00004836 	andeq	r4, r0, r6, lsr r8
    3248:	02260400 	eoreq	r0, r6, #0, 8
    324c:	41060000 	mrsmi	r0, (UNDEF: 6)
    3250:	0000005a 	andeq	r0, r0, sl, asr r0
    3254:	0000b904 	andeq	fp, r0, r4, lsl #18
    3258:	6c420600 	mcrrvs	6, 0, r0, r2, cr0
    325c:	0a000000 	beq	3264 <g_pfnVectors-0x7ffcd9c>
    3260:	0000021e 	andeq	r0, r0, lr, lsl r2
    3264:	0002290a 	andeq	r2, r2, sl, lsl #18
    3268:	07010b00 	streq	r0, [r1, -r0, lsl #22]
    326c:	025f0207 	subseq	r0, pc, #1879048192	; 0x70000000
    3270:	5b0c0000 	blpl	303278 <g_pfnVectors-0x7cfcd88>
    3274:	00000004 	andeq	r0, r0, r4
    3278:	5445530d 	strbpl	r5, [r5], #-781	; 0x30d
    327c:	0e000100 	adfeqs	f0, f0, f0
    3280:	04d2071c 	ldrbeq	r0, [r2], #1820	; 0x71c
    3284:	0000031d 	andeq	r0, r0, sp, lsl r3
    3288:	0052530f 	subseq	r5, r2, pc, lsl #6
    328c:	3f04d407 	svccc	0x0004d407
    3290:	00000002 	andeq	r0, r0, r2
    3294:	0000dd10 	andeq	sp, r0, r0, lsl sp
    3298:	04d50700 	ldrbeq	r0, [r5], #1792	; 0x700
    329c:	0000021e 	andeq	r0, r0, lr, lsl r2
    32a0:	52440f02 	subpl	r0, r4, #2, 30
    32a4:	04d60700 	ldrbeq	r0, [r6], #1792	; 0x700
    32a8:	0000023f 	andeq	r0, r0, pc, lsr r2
    32ac:	09431004 	stmdbeq	r3, {r2, ip}^
    32b0:	d7070000 	strle	r0, [r7, -r0]
    32b4:	00021e04 	andeq	r1, r2, r4, lsl #28
    32b8:	420f0600 	andmi	r0, pc, #0, 12
    32bc:	07005252 	smlsdeq	r0, r2, r2, r5
    32c0:	023f04d8 	eorseq	r0, pc, #216, 8	; 0xd8000000
    32c4:	10080000 	andne	r0, r8, r0
    32c8:	000009c0 	andeq	r0, r0, r0, asr #19
    32cc:	1e04d907 	cdpne	9, 0, cr13, cr4, cr7, {0}
    32d0:	0a000002 	beq	32e0 <g_pfnVectors-0x7ffcd20>
    32d4:	3152430f 	cmpcc	r2, pc, lsl #6
    32d8:	04da0700 	ldrbeq	r0, [sl], #1792	; 0x700
    32dc:	0000023f 	andeq	r0, r0, pc, lsr r2
    32e0:	094d100c 	stmdbeq	sp, {r2, r3, ip}^
    32e4:	db070000 	blle	1c32ec <g_pfnVectors-0x7e3cd14>
    32e8:	00021e04 	andeq	r1, r2, r4, lsl #28
    32ec:	430f0e00 	movwmi	r0, #65024	; 0xfe00
    32f0:	07003252 	smlsdeq	r0, r2, r2, r3
    32f4:	023f04dc 	eorseq	r0, pc, #220, 8	; 0xdc000000
    32f8:	10100000 	andsne	r0, r0, r0
    32fc:	00000957 	andeq	r0, r0, r7, asr r9
    3300:	1e04dd07 	cdpne	13, 0, cr13, cr4, cr7, {0}
    3304:	12000002 	andne	r0, r0, #2
    3308:	3352430f 	cmpcc	r2, #1006632960	; 0x3c000000
    330c:	04de0700 	ldrbeq	r0, [lr], #1792	; 0x700
    3310:	0000023f 	andeq	r0, r0, pc, lsr r2
    3314:	09611014 	stmdbeq	r1!, {r2, r4, ip}^
    3318:	df070000 	svcle	0x00070000
    331c:	00021e04 	andeq	r1, r2, r4, lsl #28
    3320:	93101600 	tstls	r0, #0, 12
    3324:	07000007 	streq	r0, [r0, -r7]
    3328:	023f04e0 	eorseq	r0, pc, #224, 8	; 0xe0000000
    332c:	10180000 	andsne	r0, r8, r0
    3330:	0000096b 	andeq	r0, r0, fp, ror #18
    3334:	1e04e107 	mvfnes	f6, f7
    3338:	1a000002 	bne	3348 <g_pfnVectors-0x7ffccb8>
    333c:	0a131100 	beq	4c7744 <g_pfnVectors-0x7b388bc>
    3340:	e2070000 	and	r0, r7, #0
    3344:	00025f04 	andeq	r5, r2, r4, lsl #30
    3348:	18db1200 	ldmne	fp, {r9, ip}^
    334c:	16010000 	strne	r0, [r1], -r0
    3350:	000000dd 	ldrdeq	r0, [r0], -sp
    3354:	08000c64 	stmdaeq	r0, {r2, r5, r6, sl, fp}
    3358:	00000040 	andeq	r0, r0, r0, asr #32
    335c:	03709c01 	cmneq	r0, #256	; 0x100
    3360:	a6130000 	ldrge	r0, [r3], -r0
    3364:	01000018 	tsteq	r0, r8, lsl r0
    3368:	00002c16 	andeq	r2, r0, r6, lsl ip
    336c:	6c910200 	lfmvs	f0, 4, [r1], {0}
    3370:	0018ff14 	andseq	pc, r8, r4, lsl pc	; <UNPREDICTABLE>
    3374:	bf180100 	svclt	0x00180100
    3378:	05000000 	streq	r0, [r0, #-0]
    337c:	00009403 	andeq	r9, r0, r3, lsl #8
    3380:	18fa1420 	ldmne	sl!, {r5, sl, ip}^
    3384:	19010000 	stmdbne	r1, {}	; <UNPREDICTABLE>
    3388:	000000bf 	strheq	r0, [r0], -pc	; <UNPREDICTABLE>
    338c:	00749102 	rsbseq	r9, r4, r2, lsl #2
    3390:	0018c312 	andseq	ip, r8, r2, lsl r3
    3394:	2c260100 	stfcss	f0, [r6], #-0
    3398:	00000000 	andeq	r0, r0, r0
    339c:	1a000000 	bne	33a4 <g_pfnVectors-0x7ffcc5c>
    33a0:	01000000 	mrseq	r0, (UNDEF: 0)
    33a4:	0003a69c 	muleq	r3, ip, r6
    33a8:	6c6f1500 	cfstr64vs	mvdx1, [pc], #-0	; 33b0 <g_pfnVectors-0x7ffcc50>
    33ac:	26010064 	strcs	r0, [r1], -r4, rrx
    33b0:	000000c5 	andeq	r0, r0, r5, asr #1
    33b4:	15749102 	ldrbne	r9, [r4, #-258]!	; 0x102
    33b8:	0077656e 	rsbseq	r6, r7, lr, ror #10
    33bc:	00c52601 	sbceq	r2, r5, r1, lsl #12
    33c0:	91020000 	mrsls	r0, (UNDEF: 2)
    33c4:	05120070 	ldreq	r0, [r2, #-112]	; 0x70
    33c8:	0100000a 	tsteq	r0, sl
    33cc:	00002c2c 	andeq	r2, r0, ip, lsr #24
    33d0:	000ca400 	andeq	sl, ip, r0, lsl #8
    33d4:	00001808 	andeq	r1, r0, r8, lsl #16
    33d8:	ce9c0100 	fmlgte	f0, f4, f0
    33dc:	13000003 	movwne	r0, #3
    33e0:	0000082e 	andeq	r0, r0, lr, lsr #16
    33e4:	002c2c01 	eoreq	r2, ip, r1, lsl #24
    33e8:	91020000 	mrsls	r0, (UNDEF: 2)
    33ec:	61120074 	tstvs	r2, r4, ror r0
    33f0:	01000018 	tsteq	r0, r8, lsl r0
    33f4:	00002c32 	andeq	r2, r0, r2, lsr ip
    33f8:	000cbc00 	andeq	fp, ip, r0, lsl #24
    33fc:	00002008 	andeq	r2, r0, r8
    3400:	039c0100 	orrseq	r0, ip, #0, 2
    3404:	13000004 	movwne	r0, #4
    3408:	0000082e 	andeq	r0, r0, lr, lsr #16
    340c:	002c3201 	eoreq	r3, ip, r1, lsl #4
    3410:	91020000 	mrsls	r0, (UNDEF: 2)
    3414:	74731574 	ldrbtvc	r1, [r3], #-1396	; 0x574
    3418:	03320100 	teqeq	r2, #0, 2
    341c:	02000004 	andeq	r0, r0, #4
    3420:	05007091 	streq	r7, [r0, #-145]	; 0x91
    3424:	00013504 	andeq	r3, r1, r4, lsl #10
    3428:	187b1200 	ldmdane	fp!, {r9, ip}^
    342c:	39010000 	stmdbcc	r1, {}	; <UNPREDICTABLE>
    3430:	0000002c 	andeq	r0, r0, ip, lsr #32
    3434:	08000cdc 	stmdaeq	r0, {r2, r3, r4, r6, r7, sl, fp}
    3438:	00000016 	andeq	r0, r0, r6, lsl r0
    343c:	04319c01 	ldrteq	r9, [r1], #-3073	; 0xc01
    3440:	2e130000 	cdpcs	0, 1, cr0, cr3, cr0, {0}
    3444:	01000008 	tsteq	r0, r8
    3448:	00002c39 	andeq	r2, r0, r9, lsr ip
    344c:	74910200 	ldrvc	r0, [r1], #512	; 0x200
    3450:	19221200 	stmdbne	r2!, {r9, ip}
    3454:	3f010000 	svccc	0x00010000
    3458:	0000002c 	andeq	r0, r0, ip, lsr #32
    345c:	08000cf4 	stmdaeq	r0, {r2, r4, r5, r6, r7, sl, fp}
    3460:	0000001a 	andeq	r0, r0, sl, lsl r0
    3464:	04759c01 	ldrbteq	r9, [r5], #-3073	; 0xc01
    3468:	2e130000 	cdpcs	0, 1, cr0, cr3, cr0, {0}
    346c:	01000008 	tsteq	r0, r8
    3470:	00002c3f 	andeq	r2, r0, pc, lsr ip
    3474:	74910200 	ldrvc	r0, [r1], #512	; 0x200
    3478:	72747015 	rsbsvc	r7, r4, #21
    347c:	2c3f0100 	ldfcss	f0, [pc], #-0	; 3484 <g_pfnVectors-0x7ffcb7c>
    3480:	02000000 	andeq	r0, r0, #0
    3484:	64157091 	ldrvs	r7, [r5], #-145	; 0x91
    3488:	01007269 	tsteq	r0, r9, ror #4
    348c:	00002c3f 	andeq	r2, r0, pc, lsr ip
    3490:	6c910200 	lfmvs	f0, 4, [r1], {0}
    3494:	07861600 	streq	r1, [r6, r0, lsl #12]
    3498:	46010000 	strmi	r0, [r1], -r0
    349c:	0000002c 	andeq	r0, r0, ip, lsr #32
    34a0:	08000d10 	stmdaeq	r0, {r4, r8, sl, fp}
    34a4:	00000050 	andeq	r0, r0, r0, asr r0
    34a8:	04c79c01 	strbeq	r9, [r7], #3073	; 0xc01
    34ac:	2e130000 	cdpcs	0, 1, cr0, cr3, cr0, {0}
    34b0:	01000008 	tsteq	r0, r8
    34b4:	00002c46 	andeq	r2, r0, r6, asr #24
    34b8:	64910200 	ldrvs	r0, [r1], #512	; 0x200
    34bc:	72747015 	rsbsvc	r7, r4, #21
    34c0:	c5460100 	strbgt	r0, [r6, #-256]	; 0x100
    34c4:	02000000 	andeq	r0, r0, #0
    34c8:	6c156091 	ldcvs	0, cr6, [r5], {145}	; 0x91
    34cc:	01006e65 	tsteq	r0, r5, ror #28
    34d0:	00002c46 	andeq	r2, r0, r6, asr #24
    34d4:	5c910200 	lfmpl	f0, 4, [r1], {0}
    34d8:	6d756e17 	ldclvs	14, cr6, [r5, #-92]!	; 0xffffffa4
    34dc:	2c720100 	ldfcse	f0, [r2], #-0
    34e0:	02000000 	andeq	r0, r0, #0
    34e4:	16006c91 			; <UNDEFINED> instruction: 0x16006c91
    34e8:	0000078c 	andeq	r0, r0, ip, lsl #15
    34ec:	002c7f01 	eoreq	r7, ip, r1, lsl #30
    34f0:	0d600000 	stcleq	0, cr0, [r0, #-0]
    34f4:	00380800 	eorseq	r0, r8, r0, lsl #16
    34f8:	9c010000 	stcls	0, cr0, [r1], {-0}
    34fc:	00000517 	andeq	r0, r0, r7, lsl r5
    3500:	00082e13 	andeq	r2, r8, r3, lsl lr
    3504:	2c7f0100 	ldfcse	f0, [pc], #-0	; 350c <g_pfnVectors-0x7ffcaf4>
    3508:	02000000 	andeq	r0, r0, #0
    350c:	70156c91 	mulsvc	r5, r1, ip
    3510:	01007274 	tsteq	r0, r4, ror r2
    3514:	0000c57f 	andeq	ip, r0, pc, ror r5
    3518:	68910200 	ldmvs	r1, {r9}
    351c:	6e656c15 	mcrvs	12, 3, r6, cr5, cr5, {0}
    3520:	2c7f0100 	ldfcse	f0, [pc], #-0	; 3528 <g_pfnVectors-0x7ffcad8>
    3524:	02000000 	andeq	r0, r0, #0
    3528:	69176491 	ldmdbvs	r7, {r0, r4, r7, sl, sp, lr}
    352c:	2c8f0100 	stfcss	f0, [pc], {0}
    3530:	02000000 	andeq	r0, r0, #0
    3534:	18007491 	stmdane	r0, {r0, r4, r7, sl, ip, sp, lr}
    3538:	000018b2 			; <UNDEFINED> instruction: 0x000018b2
    353c:	00009d01 	andeq	r9, r0, r1, lsl #26
    3540:	00060000 	andeq	r0, r6, r0
    3544:	9c010000 	stcls	0, cr0, [r1], {-0}
    3548:	00024a19 	andeq	r4, r2, r9, lsl sl
    354c:	06070800 	streq	r0, [r7], -r0, lsl #16
    3550:	00000244 	andeq	r0, r0, r4, asr #4
    3554:	0018901a 	andseq	r9, r8, sl, lsl r0
    3558:	2c0f0100 	stfcss	f0, [pc], {-0}
    355c:	00000000 	andeq	r0, r0, r0

Disassembly of section .debug_abbrev:

00000000 <.debug_abbrev>:
   0:	25011101 	strcs	r1, [r1, #-257]	; 0x101
   4:	030b130e 	movweq	r1, #45838	; 0xb30e
   8:	1117550e 	tstne	r7, lr, lsl #10
   c:	00171001 	andseq	r1, r7, r1
  10:	00240200 	eoreq	r0, r4, r0, lsl #4
  14:	0b3e0b0b 	bleq	f82c48 <g_pfnVectors-0x707d3b8>
  18:	00000e03 	andeq	r0, r0, r3, lsl #28
  1c:	03001603 	movweq	r1, #1539	; 0x603
  20:	3b0b3a0e 	blcc	2ce860 <g_pfnVectors-0x7d317a0>
  24:	0013490b 	andseq	r4, r3, fp, lsl #18
  28:	00240400 	eoreq	r0, r4, r0, lsl #8
  2c:	0b3e0b0b 	bleq	f82c60 <g_pfnVectors-0x707d3a0>
  30:	00000803 	andeq	r0, r0, r3, lsl #16
  34:	49003505 	stmdbmi	r0, {r0, r2, r8, sl, ip, sp}
  38:	06000013 			; <UNDEFINED> instruction: 0x06000013
  3c:	0b0b0113 	bleq	2c0490 <g_pfnVectors-0x7d3fb70>
  40:	053b0b3a 	ldreq	r0, [fp, #-2874]!	; 0xb3a
  44:	00001301 	andeq	r1, r0, r1, lsl #6
  48:	03000d07 	movweq	r0, #3335	; 0xd07
  4c:	3b0b3a0e 	blcc	2ce88c <g_pfnVectors-0x7d31774>
  50:	38134905 	ldmdacc	r3, {r0, r2, r8, fp, lr}
  54:	0800000b 	stmdaeq	r0, {r0, r1, r3}
  58:	0803000d 	stmdaeq	r3, {r0, r2, r3}
  5c:	053b0b3a 	ldreq	r0, [fp, #-2874]!	; 0xb3a
  60:	0b381349 	bleq	e04d8c <g_pfnVectors-0x71fb274>
  64:	26090000 	strcs	r0, [r9], -r0
  68:	00134900 	andseq	r4, r3, r0, lsl #18
  6c:	01010a00 	tsteq	r1, r0, lsl #20
  70:	13011349 	movwne	r1, #4937	; 0x1349
  74:	210b0000 	mrscs	r0, (UNDEF: 11)
  78:	2f134900 	svccs	0x00134900
  7c:	0c00000b 	stceq	0, cr0, [r0], {11}
  80:	0e030016 	mcreq	0, 0, r0, cr3, cr6, {0}
  84:	053b0b3a 	ldreq	r0, [fp, #-2874]!	; 0xb3a
  88:	00001349 	andeq	r1, r0, r9, asr #6
  8c:	0b01040d 	bleq	410c8 <g_pfnVectors-0x7fbef38>
  90:	3b0b3a0b 	blcc	2ce8c4 <g_pfnVectors-0x7d3173c>
  94:	00130105 	andseq	r0, r3, r5, lsl #2
  98:	00280e00 	eoreq	r0, r8, r0, lsl #28
  9c:	0d1c0e03 	ldceq	14, cr0, [ip, #-12]
  a0:	280f0000 	stmdacs	pc, {}	; <UNPREDICTABLE>
  a4:	1c080300 	stcne	3, cr0, [r8], {-0}
  a8:	1000000d 	andne	r0, r0, sp
  ac:	193f002e 	ldmdbne	pc!, {r1, r2, r3, r5}	; <UNPREDICTABLE>
  b0:	0b3a0e03 	bleq	e838c4 <g_pfnVectors-0x717c73c>
  b4:	19270b3b 	stmdbne	r7!, {r0, r1, r3, r4, r5, r8, r9, fp}
  b8:	06120111 			; <UNDEFINED> instruction: 0x06120111
  bc:	42961840 	addsmi	r1, r6, #64, 16	; 0x400000
  c0:	11000019 	tstne	r0, r9, lsl r0
  c4:	193f012e 	ldmdbne	pc!, {r1, r2, r3, r5, r8}	; <UNPREDICTABLE>
  c8:	0b3a0e03 	bleq	e838dc <g_pfnVectors-0x717c724>
  cc:	1927053b 	stmdbne	r7!, {r0, r1, r3, r4, r5, r8, sl}
  d0:	06120111 			; <UNDEFINED> instruction: 0x06120111
  d4:	42971840 	addsmi	r1, r7, #64, 16	; 0x400000
  d8:	00130119 	andseq	r0, r3, r9, lsl r1
  dc:	00341200 	eorseq	r1, r4, r0, lsl #4
  e0:	0b3a0803 	bleq	e820f4 <g_pfnVectors-0x717df0c>
  e4:	1349053b 	movtne	r0, #38203	; 0x953b
  e8:	00001802 	andeq	r1, r0, r2, lsl #16
  ec:	03003413 	movweq	r3, #1043	; 0x413
  f0:	3b0b3a0e 	blcc	2ce930 <g_pfnVectors-0x7d316d0>
  f4:	02134905 	andseq	r4, r3, #81920	; 0x14000
  f8:	14000018 	strne	r0, [r0], #-24
  fc:	0e03002e 	cdpeq	0, 0, cr0, cr3, cr14, {1}
 100:	053b0b3a 	ldreq	r0, [fp, #-2874]!	; 0xb3a
 104:	01111927 	tsteq	r1, r7, lsr #18
 108:	18400612 	stmdane	r0, {r1, r4, r9, sl}^
 10c:	00194296 	mulseq	r9, r6, r2
 110:	012e1500 	teqeq	lr, r0, lsl #10
 114:	0b3a0e03 	bleq	e83928 <g_pfnVectors-0x717c6d8>
 118:	1927053b 	stmdbne	r7!, {r0, r1, r3, r4, r5, r8, sl}
 11c:	06120111 			; <UNDEFINED> instruction: 0x06120111
 120:	42971840 	addsmi	r1, r7, #64, 16	; 0x400000
 124:	00130119 	andseq	r0, r3, r9, lsl r1
 128:	00341600 	eorseq	r1, r4, r0, lsl #12
 12c:	0b3a0e03 	bleq	e83940 <g_pfnVectors-0x717c6c0>
 130:	1349053b 	movtne	r0, #38203	; 0x953b
 134:	193c193f 	ldmdbne	ip!, {r0, r1, r2, r3, r4, r5, r8, fp, ip}
 138:	34170000 	ldrcc	r0, [r7], #-0
 13c:	3a0e0300 	bcc	380d44 <g_pfnVectors-0x7c7f2bc>
 140:	490b3b0b 	stmdbmi	fp, {r0, r1, r3, r8, r9, fp, ip, sp}
 144:	02193f13 	andseq	r3, r9, #19, 30	; 0x4c
 148:	00000018 	andeq	r0, r0, r8, lsl r0
 14c:	25011101 	strcs	r1, [r1, #-257]	; 0x101
 150:	030b130e 	movweq	r1, #45838	; 0xb30e
 154:	1117550e 	tstne	r7, lr, lsl #10
 158:	00171001 	andseq	r1, r7, r1
 15c:	012e0200 	teqeq	lr, r0, lsl #4
 160:	0e03193f 	mcreq	9, 0, r1, cr3, cr15, {1}
 164:	0b3b0b3a 	bleq	ec2e54 <g_pfnVectors-0x713d1ac>
 168:	01111927 	tsteq	r1, r7, lsr #18
 16c:	18400612 	stmdane	r0, {r1, r4, r9, sl}^
 170:	01194296 			; <UNDEFINED> instruction: 0x01194296
 174:	03000013 	movweq	r0, #19
 178:	0e030034 	mcreq	0, 0, r0, cr3, cr4, {1}
 17c:	0b3b0b3a 	bleq	ec2e6c <g_pfnVectors-0x713d194>
 180:	18021349 	stmdane	r2, {r0, r3, r6, r8, r9, ip}
 184:	0f040000 	svceq	0x00040000
 188:	490b0b00 	stmdbmi	fp, {r8, r9, fp}
 18c:	05000013 	streq	r0, [r0, #-19]
 190:	0b0b0024 	bleq	2c0228 <g_pfnVectors-0x7d3fdd8>
 194:	0e030b3e 	vmoveq.16	d3[0], r0
 198:	2e060000 	cdpcs	0, 0, cr0, cr6, cr0, {0}
 19c:	3a0e0300 	bcc	380da4 <g_pfnVectors-0x7c7f25c>
 1a0:	27053b0b 	strcs	r3, [r5, -fp, lsl #22]
 1a4:	12011119 	andne	r1, r1, #1073741830	; 0x40000006
 1a8:	97184006 	ldrls	r4, [r8, -r6]
 1ac:	00001942 	andeq	r1, r0, r2, asr #18
 1b0:	49010107 	stmdbmi	r1, {r0, r1, r2, r8}
 1b4:	00130113 	andseq	r0, r3, r3, lsl r1
 1b8:	00210800 	eoreq	r0, r1, r0, lsl #16
 1bc:	052f1349 	streq	r1, [pc, #-841]!	; fffffe7b <__StackTop+0xdfffae7b>
 1c0:	34090000 	strcc	r0, [r9], #-0
 1c4:	3a0e0300 	bcc	380dcc <g_pfnVectors-0x7c7f234>
 1c8:	490b3b0b 	stmdbmi	fp, {r0, r1, r3, r8, r9, fp, ip, sp}
 1cc:	02193f13 	andseq	r3, r9, #19, 30	; 0x4c
 1d0:	0a000018 	beq	238 <g_pfnVectors-0x7fffdc8>
 1d4:	0e030034 	mcreq	0, 0, r0, cr3, cr4, {1}
 1d8:	0b3b0b3a 	bleq	ec2ec8 <g_pfnVectors-0x713d138>
 1dc:	193f1349 	ldmdbne	pc!, {r0, r3, r6, r8, r9, ip}	; <UNPREDICTABLE>
 1e0:	0000193c 	andeq	r1, r0, ip, lsr r9
 1e4:	4900210b 	stmdbmi	r0, {r0, r1, r3, r8, sp}
 1e8:	000b2f13 	andeq	r2, fp, r3, lsl pc
 1ec:	00150c00 	andseq	r0, r5, r0, lsl #24
 1f0:	00001927 	andeq	r1, r0, r7, lsr #18
 1f4:	4900260d 	stmdbmi	r0, {r0, r2, r3, r9, sl, sp}
 1f8:	00000013 	andeq	r0, r0, r3, lsl r0
 1fc:	25011101 	strcs	r1, [r1, #-257]	; 0x101
 200:	030b130e 	movweq	r1, #45838	; 0xb30e
 204:	1117550e 	tstne	r7, lr, lsl #10
 208:	00171001 	andseq	r1, r7, r1
 20c:	00240200 	eoreq	r0, r4, r0, lsl #4
 210:	0b3e0b0b 	bleq	f82e44 <g_pfnVectors-0x707d1bc>
 214:	00000e03 	andeq	r0, r0, r3, lsl #28
 218:	03001603 	movweq	r1, #1539	; 0x603
 21c:	3b0b3a0e 	blcc	2cea5c <g_pfnVectors-0x7d315a4>
 220:	0013490b 	andseq	r4, r3, fp, lsl #18
 224:	00240400 	eoreq	r0, r4, r0, lsl #8
 228:	0b3e0b0b 	bleq	f82e5c <g_pfnVectors-0x707d1a4>
 22c:	00000803 	andeq	r0, r0, r3, lsl #16
 230:	49003505 	stmdbmi	r0, {r0, r2, r8, sl, ip, sp}
 234:	06000013 			; <UNDEFINED> instruction: 0x06000013
 238:	13490101 	movtne	r0, #37121	; 0x9101
 23c:	00001301 	andeq	r1, r0, r1, lsl #6
 240:	49002107 	stmdbmi	r0, {r0, r1, r2, r8, sp}
 244:	000b2f13 	andeq	r2, fp, r3, lsl pc
 248:	00160800 	andseq	r0, r6, r0, lsl #16
 24c:	0b3a0803 	bleq	e82260 <g_pfnVectors-0x717dda0>
 250:	1349053b 	movtne	r0, #38203	; 0x953b
 254:	04090000 	streq	r0, [r9], #-0
 258:	3a0b0b01 	bcc	2c2e64 <g_pfnVectors-0x7d3d19c>
 25c:	01053b0b 	tsteq	r5, fp, lsl #22
 260:	0a000013 	beq	2b4 <g_pfnVectors-0x7fffd4c>
 264:	0e030028 	cdpeq	0, 0, cr0, cr3, cr8, {1}
 268:	00000d1c 	andeq	r0, r0, ip, lsl sp
 26c:	0300160b 	movweq	r1, #1547	; 0x60b
 270:	3b0b3a0e 	blcc	2ceab0 <g_pfnVectors-0x7d31550>
 274:	00134905 	andseq	r4, r3, r5, lsl #18
 278:	01130c00 	tsteq	r3, r0, lsl #24
 27c:	0b3a0b0b 	bleq	e82eb0 <g_pfnVectors-0x717d150>
 280:	1301053b 	movwne	r0, #5435	; 0x153b
 284:	0d0d0000 	stceq	0, cr0, [sp, #-0]
 288:	3a080300 	bcc	200e90 <g_pfnVectors-0x7dff170>
 28c:	49053b0b 	stmdbmi	r5, {r0, r1, r3, r8, r9, fp, ip, sp}
 290:	000b3813 	andeq	r3, fp, r3, lsl r8
 294:	000d0e00 	andeq	r0, sp, r0, lsl #28
 298:	0b3a0e03 	bleq	e83aac <g_pfnVectors-0x717c554>
 29c:	1349053b 	movtne	r0, #38203	; 0x953b
 2a0:	00000b38 	andeq	r0, r0, r8, lsr fp
 2a4:	0b01040f 	bleq	412e8 <g_pfnVectors-0x7fbed18>
 2a8:	3b0b3a0b 	blcc	2ceadc <g_pfnVectors-0x7d31524>
 2ac:	0013010b 	andseq	r0, r3, fp, lsl #2
 2b0:	01131000 	tsteq	r3, r0
 2b4:	0b3a0b0b 	bleq	e82ee8 <g_pfnVectors-0x717d118>
 2b8:	13010b3b 	movwne	r0, #6971	; 0x1b3b
 2bc:	0d110000 	ldceq	0, cr0, [r1, #-0]
 2c0:	3a0e0300 	bcc	380ec8 <g_pfnVectors-0x7c7f138>
 2c4:	490b3b0b 	stmdbmi	fp, {r0, r1, r3, r8, r9, fp, ip, sp}
 2c8:	000b3813 	andeq	r3, fp, r3, lsl r8
 2cc:	012e1200 	teqeq	lr, r0, lsl #4
 2d0:	0e03193f 	mcreq	9, 0, r1, cr3, cr15, {1}
 2d4:	0b3b0b3a 	bleq	ec2fc4 <g_pfnVectors-0x713d03c>
 2d8:	01111927 	tsteq	r1, r7, lsr #18
 2dc:	18400612 	stmdane	r0, {r1, r4, r9, sl}^
 2e0:	01194296 			; <UNDEFINED> instruction: 0x01194296
 2e4:	13000013 	movwne	r0, #19
 2e8:	0e030005 	cdpeq	0, 0, cr0, cr3, cr5, {0}
 2ec:	0b3b0b3a 	bleq	ec2fdc <g_pfnVectors-0x713d024>
 2f0:	18021349 	stmdane	r2, {r0, r3, r6, r8, r9, ip}
 2f4:	0f140000 	svceq	0x00140000
 2f8:	490b0b00 	stmdbmi	fp, {r8, r9, fp}
 2fc:	15000013 	strne	r0, [r0, #-19]
 300:	193f002e 	ldmdbne	pc!, {r1, r2, r3, r5}	; <UNPREDICTABLE>
 304:	0b3a0e03 	bleq	e83b18 <g_pfnVectors-0x717c4e8>
 308:	19270b3b 	stmdbne	r7!, {r0, r1, r3, r4, r5, r8, r9, fp}
 30c:	06120111 			; <UNDEFINED> instruction: 0x06120111
 310:	42961840 	addsmi	r1, r6, #64, 16	; 0x400000
 314:	16000019 			; <UNDEFINED> instruction: 0x16000019
 318:	193f012e 	ldmdbne	pc!, {r1, r2, r3, r5, r8}	; <UNPREDICTABLE>
 31c:	0b3a0e03 	bleq	e83b30 <g_pfnVectors-0x717c4d0>
 320:	19270b3b 	stmdbne	r7!, {r0, r1, r3, r4, r5, r8, r9, fp}
 324:	06120111 			; <UNDEFINED> instruction: 0x06120111
 328:	42971840 	addsmi	r1, r7, #64, 16	; 0x400000
 32c:	00130119 	andseq	r0, r3, r9, lsl r1
 330:	00341700 	eorseq	r1, r4, r0, lsl #14
 334:	0b3a0e03 	bleq	e83b48 <g_pfnVectors-0x717c4b8>
 338:	13490b3b 	movtne	r0, #39739	; 0x9b3b
 33c:	00001802 	andeq	r1, r0, r2, lsl #16
 340:	03003418 	movweq	r3, #1048	; 0x418
 344:	3b0b3a08 	blcc	2ceb6c <g_pfnVectors-0x7d31494>
 348:	0213490b 	andseq	r4, r3, #180224	; 0x2c000
 34c:	19000018 	stmdbne	r0, {r3, r4}
 350:	193f012e 	ldmdbne	pc!, {r1, r2, r3, r5, r8}	; <UNPREDICTABLE>
 354:	0b3a0e03 	bleq	e83b68 <g_pfnVectors-0x717c498>
 358:	1927053b 	stmdbne	r7!, {r0, r1, r3, r4, r5, r8, sl}
 35c:	06120111 			; <UNDEFINED> instruction: 0x06120111
 360:	42971840 	addsmi	r1, r7, #64, 16	; 0x400000
 364:	00130119 	andseq	r0, r3, r9, lsl r1
 368:	00051a00 	andeq	r1, r5, r0, lsl #20
 36c:	0b3a0e03 	bleq	e83b80 <g_pfnVectors-0x717c480>
 370:	1349053b 	movtne	r0, #38203	; 0x953b
 374:	00001802 	andeq	r1, r0, r2, lsl #16
 378:	3f012e1b 	svccc	0x00012e1b
 37c:	3a0e0319 	bcc	380fe8 <g_pfnVectors-0x7c7f018>
 380:	27053b0b 	strcs	r3, [r5, -fp, lsl #22]
 384:	11134919 	tstne	r3, r9, lsl r9
 388:	40061201 	andmi	r1, r6, r1, lsl #4
 38c:	19429718 	stmdbne	r2, {r3, r4, r8, r9, sl, ip, pc}^
 390:	00001301 	andeq	r1, r0, r1, lsl #6
 394:	0300341c 	movweq	r3, #1052	; 0x41c
 398:	3b0b3a0e 	blcc	2cebd8 <g_pfnVectors-0x7d31428>
 39c:	02134905 	andseq	r4, r3, #81920	; 0x14000
 3a0:	1d000018 	stcne	0, cr0, [r0, #-96]	; 0xffffffa0
 3a4:	08030034 	stmdaeq	r3, {r2, r4, r5}
 3a8:	053b0b3a 	ldreq	r0, [fp, #-2874]!	; 0xb3a
 3ac:	18021349 	stmdane	r2, {r0, r3, r6, r8, r9, ip}
 3b0:	341e0000 	ldrcc	r0, [lr], #-0
 3b4:	3a0e0300 	bcc	380fbc <g_pfnVectors-0x7c7f044>
 3b8:	49053b0b 	stmdbmi	r5, {r0, r1, r3, r8, r9, fp, ip, sp}
 3bc:	3c193f13 	ldccc	15, cr3, [r9], {19}
 3c0:	00000019 	andeq	r0, r0, r9, lsl r0
 3c4:	25011101 	strcs	r1, [r1, #-257]	; 0x101
 3c8:	030b130e 	movweq	r1, #45838	; 0xb30e
 3cc:	550e1b0e 	strpl	r1, [lr, #-2830]	; 0xb0e
 3d0:	10011117 	andne	r1, r1, r7, lsl r1
 3d4:	02000017 	andeq	r0, r0, #23
 3d8:	0e030104 	adfeqs	f0, f3, f4
 3dc:	0b3a0b0b 	bleq	e83010 <g_pfnVectors-0x717cff0>
 3e0:	13010b3b 	movwne	r0, #6971	; 0x1b3b
 3e4:	28030000 	stmdacs	r3, {}	; <UNPREDICTABLE>
 3e8:	1c0e0300 	stcne	3, cr0, [lr], {-0}
 3ec:	0400000d 	streq	r0, [r0], #-13
 3f0:	0e030016 	mcreq	0, 0, r0, cr3, cr6, {0}
 3f4:	053b0b3a 	ldreq	r0, [fp, #-2874]!	; 0xb3a
 3f8:	00001349 	andeq	r1, r0, r9, asr #6
 3fc:	03001605 	movweq	r1, #1541	; 0x605
 400:	3b0b3a0e 	blcc	2cec40 <g_pfnVectors-0x7d313c0>
 404:	0013490b 	andseq	r4, r3, fp, lsl #18
 408:	00240600 	eoreq	r0, r4, r0, lsl #12
 40c:	0b3e0b0b 	bleq	f83040 <g_pfnVectors-0x707cfc0>
 410:	00000e03 	andeq	r0, r0, r3, lsl #28
 414:	0b002407 	bleq	9438 <g_pfnVectors-0x7ff6bc8>
 418:	030b3e0b 	movweq	r3, #48651	; 0xbe0b
 41c:	08000008 	stmdaeq	r0, {r3}
 420:	050b0113 	streq	r0, [fp, #-275]	; 0x113
 424:	053b0b3a 	ldreq	r0, [fp, #-2874]!	; 0xb3a
 428:	00001301 	andeq	r1, r0, r1, lsl #6
 42c:	03000d09 	movweq	r0, #3337	; 0xd09
 430:	3b0b3a0e 	blcc	2cec70 <g_pfnVectors-0x7d31390>
 434:	38134905 	ldmdacc	r3, {r0, r2, r8, fp, lr}
 438:	0a00000b 	beq	46c <g_pfnVectors-0x7fffb94>
 43c:	0e03000d 	cdpeq	0, 0, cr0, cr3, cr13, {0}
 440:	053b0b3a 	ldreq	r0, [fp, #-2874]!	; 0xb3a
 444:	05381349 	ldreq	r1, [r8, #-841]!	; 0x349
 448:	0d0b0000 	stceq	0, cr0, [fp, #-0]
 44c:	3a080300 	bcc	201054 <g_pfnVectors-0x7dfefac>
 450:	49053b0b 	stmdbmi	r5, {r0, r1, r3, r8, r9, fp, ip, sp}
 454:	00053813 	andeq	r3, r5, r3, lsl r8
 458:	01010c00 	tsteq	r1, r0, lsl #24
 45c:	13011349 	movwne	r1, #4937	; 0x1349
 460:	210d0000 	mrscs	r0, (UNDEF: 13)
 464:	2f134900 	svccs	0x00134900
 468:	0e00000b 	cdpeq	0, 0, cr0, cr0, cr11, {0}
 46c:	13490035 	movtne	r0, #36917	; 0x9035
 470:	210f0000 	mrscs	r0, CPSR
 474:	2f134900 	svccs	0x00134900
 478:	10000005 	andne	r0, r0, r5
 47c:	0b0b0113 	bleq	2c08d0 <g_pfnVectors-0x7d3f730>
 480:	053b0b3a 	ldreq	r0, [fp, #-2874]!	; 0xb3a
 484:	00001301 	andeq	r1, r0, r1, lsl #6
 488:	03000d11 	movweq	r0, #3345	; 0xd11
 48c:	3b0b3a08 	blcc	2cecb4 <g_pfnVectors-0x7d3134c>
 490:	38134905 	ldmdacc	r3, {r0, r2, r8, fp, lr}
 494:	1200000b 	andne	r0, r0, #11
 498:	13490026 	movtne	r0, #36902	; 0x9026
 49c:	04130000 	ldreq	r0, [r3], #-0
 4a0:	3a0b0b01 	bcc	2c30ac <g_pfnVectors-0x7d3cf54>
 4a4:	01053b0b 	tsteq	r5, fp, lsl #22
 4a8:	14000013 	strne	r0, [r0], #-19
 4ac:	08030028 	stmdaeq	r3, {r3, r5}
 4b0:	00000d1c 	andeq	r0, r0, ip, lsl sp
 4b4:	0b010415 	bleq	41510 <g_pfnVectors-0x7fbeaf0>
 4b8:	3b0b3a0b 	blcc	2cecec <g_pfnVectors-0x7d31314>
 4bc:	0013010b 	andseq	r0, r3, fp, lsl #2
 4c0:	01131600 	tsteq	r3, r0, lsl #12
 4c4:	0b3a0b0b 	bleq	e830f8 <g_pfnVectors-0x717cf08>
 4c8:	13010b3b 	movwne	r0, #6971	; 0x1b3b
 4cc:	0d170000 	ldceq	0, cr0, [r7, #-0]
 4d0:	3a0e0300 	bcc	3810d8 <g_pfnVectors-0x7c7ef28>
 4d4:	490b3b0b 	stmdbmi	fp, {r0, r1, r3, r8, r9, fp, ip, sp}
 4d8:	000b3813 	andeq	r3, fp, r3, lsl r8
 4dc:	000f1800 	andeq	r1, pc, r0, lsl #16
 4e0:	00000b0b 	andeq	r0, r0, fp, lsl #22
 4e4:	0b011719 	bleq	46150 <g_pfnVectors-0x7fb9eb0>
 4e8:	3b0b3a0b 	blcc	2ced1c <g_pfnVectors-0x7d312e4>
 4ec:	0013010b 	andseq	r0, r3, fp, lsl #2
 4f0:	000d1a00 	andeq	r1, sp, r0, lsl #20
 4f4:	0b3a0e03 	bleq	e83d08 <g_pfnVectors-0x717c2f8>
 4f8:	13490b3b 	movtne	r0, #39739	; 0x9b3b
 4fc:	131b0000 	tstne	fp, #0
 500:	0b0e0301 	bleq	38110c <g_pfnVectors-0x7c7eef4>
 504:	3b0b3a0b 	blcc	2ced38 <g_pfnVectors-0x7d312c8>
 508:	0013010b 	andseq	r0, r3, fp, lsl #2
 50c:	000d1c00 	andeq	r1, sp, r0, lsl #24
 510:	0b3a0803 	bleq	e82524 <g_pfnVectors-0x717dadc>
 514:	13490b3b 	movtne	r0, #39739	; 0x9b3b
 518:	00000b38 	andeq	r0, r0, r8, lsr fp
 51c:	0b000f1d 	bleq	4198 <g_pfnVectors-0x7ffbe68>
 520:	0013490b 	andseq	r4, r3, fp, lsl #18
 524:	01131e00 	tsteq	r3, r0, lsl #28
 528:	050b0e03 	streq	r0, [fp, #-3587]	; 0xe03
 52c:	0b3b0b3a 	bleq	ec321c <g_pfnVectors-0x713cde4>
 530:	00001301 	andeq	r1, r0, r1, lsl #6
 534:	03000d1f 	movweq	r0, #3359	; 0xd1f
 538:	3b0b3a0e 	blcc	2ced78 <g_pfnVectors-0x7d31288>
 53c:	3813490b 	ldmdacc	r3, {r0, r1, r3, r8, fp, lr}
 540:	20000005 	andcs	r0, r0, r5
 544:	19270015 	stmdbne	r7!, {r0, r2, r4}
 548:	15210000 	strne	r0, [r1, #-0]!
 54c:	49192701 	ldmdbmi	r9, {r0, r8, r9, sl, sp}
 550:	00130113 	andseq	r0, r3, r3, lsl r1
 554:	00052200 	andeq	r2, r5, r0, lsl #4
 558:	00001349 	andeq	r1, r0, r9, asr #6
 55c:	03011323 	movweq	r1, #4899	; 0x1323
 560:	3a050b0e 	bcc	1431a0 <g_pfnVectors-0x7ebce60>
 564:	01053b0b 	tsteq	r5, fp, lsl #22
 568:	24000013 	strcs	r0, [r0], #-19
 56c:	0e030113 	mcreq	1, 0, r0, cr3, cr3, {0}
 570:	0b3a0b0b 	bleq	e831a4 <g_pfnVectors-0x717ce5c>
 574:	1301053b 	movwne	r0, #5435	; 0x153b
 578:	17250000 	strne	r0, [r5, -r0]!
 57c:	3a0b0b01 	bcc	2c3188 <g_pfnVectors-0x7d3ce78>
 580:	01053b0b 	tsteq	r5, fp, lsl #22
 584:	26000013 			; <UNDEFINED> instruction: 0x26000013
 588:	0e03000d 	cdpeq	0, 0, cr0, cr3, cr13, {0}
 58c:	053b0b3a 	ldreq	r0, [fp, #-2874]!	; 0xb3a
 590:	00001349 	andeq	r1, r0, r9, asr #6
 594:	27011527 	strcs	r1, [r1, -r7, lsr #10]
 598:	00130119 	andseq	r0, r3, r9, lsl r1
 59c:	012e2800 	teqeq	lr, r0, lsl #16
 5a0:	0b3a0e03 	bleq	e83db4 <g_pfnVectors-0x717c24c>
 5a4:	1927053b 	stmdbne	r7!, {r0, r1, r3, r4, r5, r8, sl}
 5a8:	06120111 			; <UNDEFINED> instruction: 0x06120111
 5ac:	42971840 	addsmi	r1, r7, #64, 16	; 0x400000
 5b0:	00130119 	andseq	r0, r3, r9, lsl r1
 5b4:	00052900 	andeq	r2, r5, r0, lsl #18
 5b8:	0b3a0e03 	bleq	e83dcc <g_pfnVectors-0x717c234>
 5bc:	1349053b 	movtne	r0, #38203	; 0x953b
 5c0:	00001802 	andeq	r1, r0, r2, lsl #16
 5c4:	03012e2a 	movweq	r2, #7722	; 0x1e2a
 5c8:	3b0b3a0e 	blcc	2cee08 <g_pfnVectors-0x7d311f8>
 5cc:	49192705 	ldmdbmi	r9, {r0, r2, r8, r9, sl, sp}
 5d0:	12011113 	andne	r1, r1, #-1073741820	; 0xc0000004
 5d4:	96184006 	ldrls	r4, [r8], -r6
 5d8:	13011942 	movwne	r1, #6466	; 0x1942
 5dc:	2e2b0000 	cdpcs	0, 2, cr0, cr11, cr0, {0}
 5e0:	03193f00 	tsteq	r9, #0, 30
 5e4:	3b0b3a0e 	blcc	2cee24 <g_pfnVectors-0x7d311dc>
 5e8:	1119270b 	tstne	r9, fp, lsl #14
 5ec:	40061201 	andmi	r1, r6, r1, lsl #4
 5f0:	19429718 	stmdbne	r2, {r3, r4, r8, r9, sl, ip, pc}^
 5f4:	2e2c0000 	cdpcs	0, 2, cr0, cr12, cr0, {0}
 5f8:	03193f00 	tsteq	r9, #0, 30
 5fc:	3b0b3a0e 	blcc	2cee3c <g_pfnVectors-0x7d311c4>
 600:	4919270b 	ldmdbmi	r9, {r0, r1, r3, r8, r9, sl, sp}
 604:	12011113 	andne	r1, r1, #-1073741820	; 0xc0000004
 608:	96184006 	ldrls	r4, [r8], -r6
 60c:	00001942 	andeq	r1, r0, r2, asr #18
 610:	3f012e2d 	svccc	0x00012e2d
 614:	3a0e0319 	bcc	381280 <g_pfnVectors-0x7c7ed80>
 618:	270b3b0b 	strcs	r3, [fp, -fp, lsl #22]
 61c:	12011119 	andne	r1, r1, #1073741830	; 0x40000006
 620:	96184006 	ldrls	r4, [r8], -r6
 624:	13011942 	movwne	r1, #6466	; 0x1942
 628:	342e0000 	strtcc	r0, [lr], #-0
 62c:	3a0e0300 	bcc	381234 <g_pfnVectors-0x7c7edcc>
 630:	490b3b0b 	stmdbmi	fp, {r0, r1, r3, r8, r9, fp, ip, sp}
 634:	00180213 	andseq	r0, r8, r3, lsl r2
 638:	012e2f00 	teqeq	lr, r0, lsl #30
 63c:	0e03193f 	mcreq	9, 0, r1, cr3, cr15, {1}
 640:	0b3b0b3a 	bleq	ec3330 <g_pfnVectors-0x713ccd0>
 644:	13491927 	movtne	r1, #39207	; 0x9927
 648:	06120111 			; <UNDEFINED> instruction: 0x06120111
 64c:	42961840 	addsmi	r1, r6, #64, 16	; 0x400000
 650:	00130119 	andseq	r0, r3, r9, lsl r1
 654:	00053000 	andeq	r3, r5, r0
 658:	0b3a0803 	bleq	e8266c <g_pfnVectors-0x717d994>
 65c:	13490b3b 	movtne	r0, #39739	; 0x9b3b
 660:	00001802 	andeq	r1, r0, r2, lsl #16
 664:	03003431 	movweq	r3, #1073	; 0x431
 668:	3b0b3a0e 	blcc	2ceea8 <g_pfnVectors-0x7d31158>
 66c:	3f134905 	svccc	0x00134905
 670:	00193c19 	andseq	r3, r9, r9, lsl ip
 674:	00343200 	eorseq	r3, r4, r0, lsl #4
 678:	0b3a0e03 	bleq	e83e8c <g_pfnVectors-0x717c174>
 67c:	13490b3b 	movtne	r0, #39739	; 0x9b3b
 680:	193c193f 	ldmdbne	ip!, {r0, r1, r2, r3, r4, r5, r8, fp, ip}
 684:	34330000 	ldrtcc	r0, [r3], #-0
 688:	3a0e0300 	bcc	381290 <g_pfnVectors-0x7c7ed70>
 68c:	490b3b0b 	stmdbmi	fp, {r0, r1, r3, r8, r9, fp, ip, sp}
 690:	02193f13 	andseq	r3, r9, #19, 30	; 0x4c
 694:	34000018 	strcc	r0, [r0], #-24
 698:	08030034 	stmdaeq	r3, {r2, r4, r5}
 69c:	0b3b0b3a 	bleq	ec338c <g_pfnVectors-0x713cc74>
 6a0:	193f1349 	ldmdbne	pc!, {r0, r3, r6, r8, r9, ip}	; <UNPREDICTABLE>
 6a4:	00001802 	andeq	r1, r0, r2, lsl #16
 6a8:	01110100 	tsteq	r1, r0, lsl #2
 6ac:	0b130e25 	bleq	4c3f48 <g_pfnVectors-0x7b3c0b8>
 6b0:	17550e03 	ldrbne	r0, [r5, -r3, lsl #28]
 6b4:	17100111 			; <UNDEFINED> instruction: 0x17100111
 6b8:	24020000 	strcs	r0, [r2], #-0
 6bc:	3e0b0b00 	vmlacc.f64	d0, d11, d0
 6c0:	000e030b 	andeq	r0, lr, fp, lsl #6
 6c4:	00160300 	andseq	r0, r6, r0, lsl #6
 6c8:	0b3a0e03 	bleq	e83edc <g_pfnVectors-0x717c124>
 6cc:	13490b3b 	movtne	r0, #39739	; 0x9b3b
 6d0:	24040000 	strcs	r0, [r4], #-0
 6d4:	3e0b0b00 	vmlacc.f64	d0, d11, d0
 6d8:	0008030b 	andeq	r0, r8, fp, lsl #6
 6dc:	00350500 	eorseq	r0, r5, r0, lsl #10
 6e0:	00001349 	andeq	r1, r0, r9, asr #6
 6e4:	0b010406 	bleq	41704 <g_pfnVectors-0x7fbe8fc>
 6e8:	3b0b3a0b 	blcc	2cef1c <g_pfnVectors-0x7d310e4>
 6ec:	00130105 	andseq	r0, r3, r5, lsl #2
 6f0:	00280700 	eoreq	r0, r8, r0, lsl #14
 6f4:	0d1c0e03 	ldceq	14, cr0, [ip, #-12]
 6f8:	28080000 	stmdacs	r8, {}	; <UNPREDICTABLE>
 6fc:	1c080300 	stcne	3, cr0, [r8], {-0}
 700:	0900000d 	stmdbeq	r0, {r0, r2, r3}
 704:	0e030016 	mcreq	0, 0, r0, cr3, cr6, {0}
 708:	053b0b3a 	ldreq	r0, [fp, #-2874]!	; 0xb3a
 70c:	00001349 	andeq	r1, r0, r9, asr #6
 710:	0b01130a 	bleq	45340 <g_pfnVectors-0x7fbacc0>
 714:	3b0b3a0b 	blcc	2cef48 <g_pfnVectors-0x7d310b8>
 718:	00130105 	andseq	r0, r3, r5, lsl #2
 71c:	000d0b00 	andeq	r0, sp, r0, lsl #22
 720:	0b3a0803 	bleq	e82734 <g_pfnVectors-0x717d8cc>
 724:	1349053b 	movtne	r0, #38203	; 0x953b
 728:	00000b38 	andeq	r0, r0, r8, lsr fp
 72c:	03000d0c 	movweq	r0, #3340	; 0xd0c
 730:	3b0b3a0e 	blcc	2cef70 <g_pfnVectors-0x7d31090>
 734:	38134905 	ldmdacc	r3, {r0, r2, r8, fp, lr}
 738:	0d00000b 	stceq	0, cr0, [r0, #-44]	; 0xffffffd4
 73c:	0b0b0113 	bleq	2c0b90 <g_pfnVectors-0x7d3f470>
 740:	0b3b0b3a 	bleq	ec3430 <g_pfnVectors-0x713cbd0>
 744:	00001301 	andeq	r1, r0, r1, lsl #6
 748:	03000d0e 	movweq	r0, #3342	; 0xd0e
 74c:	3b0b3a0e 	blcc	2cef8c <g_pfnVectors-0x7d31074>
 750:	3813490b 	ldmdacc	r3, {r0, r1, r3, r8, fp, lr}
 754:	0f00000b 	svceq	0x0000000b
 758:	193f002e 	ldmdbne	pc!, {r1, r2, r3, r5}	; <UNPREDICTABLE>
 75c:	0b3a0e03 	bleq	e83f70 <g_pfnVectors-0x717c090>
 760:	19270b3b 	stmdbne	r7!, {r0, r1, r3, r4, r5, r8, r9, fp}
 764:	06120111 			; <UNDEFINED> instruction: 0x06120111
 768:	42971840 	addsmi	r1, r7, #64, 16	; 0x400000
 76c:	10000019 	andne	r0, r0, r9, lsl r0
 770:	193f012e 	ldmdbne	pc!, {r1, r2, r3, r5, r8}	; <UNPREDICTABLE>
 774:	0b3a0e03 	bleq	e83f88 <g_pfnVectors-0x717c078>
 778:	1927053b 	stmdbne	r7!, {r0, r1, r3, r4, r5, r8, sl}
 77c:	06120111 			; <UNDEFINED> instruction: 0x06120111
 780:	42971840 	addsmi	r1, r7, #64, 16	; 0x400000
 784:	00130119 	andseq	r0, r3, r9, lsl r1
 788:	00051100 	andeq	r1, r5, r0, lsl #2
 78c:	0b3a0e03 	bleq	e83fa0 <g_pfnVectors-0x717c060>
 790:	1349053b 	movtne	r0, #38203	; 0x953b
 794:	00001802 	andeq	r1, r0, r2, lsl #16
 798:	3f012e12 	svccc	0x00012e12
 79c:	3a0e0319 	bcc	381408 <g_pfnVectors-0x7c7ebf8>
 7a0:	27053b0b 	strcs	r3, [r5, -fp, lsl #22]
 7a4:	11134919 	tstne	r3, r9, lsl r9
 7a8:	40061201 	andmi	r1, r6, r1, lsl #4
 7ac:	19429618 	stmdbne	r2, {r3, r4, r9, sl, ip, pc}^
 7b0:	00001301 	andeq	r1, r0, r1, lsl #6
 7b4:	03003413 	movweq	r3, #1043	; 0x413
 7b8:	3b0b3a0e 	blcc	2ceff8 <g_pfnVectors-0x7d31008>
 7bc:	02134905 	andseq	r4, r3, #81920	; 0x14000
 7c0:	14000018 	strne	r0, [r0], #-24
 7c4:	193f002e 	ldmdbne	pc!, {r1, r2, r3, r5}	; <UNPREDICTABLE>
 7c8:	0b3a0e03 	bleq	e83fdc <g_pfnVectors-0x717c024>
 7cc:	1927053b 	stmdbne	r7!, {r0, r1, r3, r4, r5, r8, sl}
 7d0:	01111349 	tsteq	r1, r9, asr #6
 7d4:	18400612 	stmdane	r0, {r1, r4, r9, sl}^
 7d8:	00194297 	mulseq	r9, r7, r2
 7dc:	00341500 	eorseq	r1, r4, r0, lsl #10
 7e0:	0b3a0803 	bleq	e827f4 <g_pfnVectors-0x717d80c>
 7e4:	1349053b 	movtne	r0, #38203	; 0x953b
 7e8:	00001802 	andeq	r1, r0, r2, lsl #16
 7ec:	0b000f16 	bleq	444c <g_pfnVectors-0x7ffbbb4>
 7f0:	0013490b 	andseq	r4, r3, fp, lsl #18
 7f4:	012e1700 	teqeq	lr, r0, lsl #14
 7f8:	0e03193f 	mcreq	9, 0, r1, cr3, cr15, {1}
 7fc:	053b0b3a 	ldreq	r0, [fp, #-2874]!	; 0xb3a
 800:	13491927 	movtne	r1, #39207	; 0x9927
 804:	06120111 			; <UNDEFINED> instruction: 0x06120111
 808:	42971840 	addsmi	r1, r7, #64, 16	; 0x400000
 80c:	00130119 	andseq	r0, r3, r9, lsl r1
 810:	002e1800 	eoreq	r1, lr, r0, lsl #16
 814:	0e03193f 	mcreq	9, 0, r1, cr3, cr15, {1}
 818:	053b0b3a 	ldreq	r0, [fp, #-2874]!	; 0xb3a
 81c:	01111927 	tsteq	r1, r7, lsr #18
 820:	18400612 	stmdane	r0, {r1, r4, r9, sl}^
 824:	00194297 	mulseq	r9, r7, r2
 828:	01011900 	tsteq	r1, r0, lsl #18
 82c:	13011349 	movwne	r1, #4937	; 0x1349
 830:	211a0000 	tstcs	sl, r0
 834:	2f134900 	svccs	0x00134900
 838:	1b00000b 	blne	86c <g_pfnVectors-0x7fff794>
 83c:	0e030034 	mcreq	0, 0, r0, cr3, cr4, {1}
 840:	0b3b0b3a 	bleq	ec3530 <g_pfnVectors-0x713cad0>
 844:	18021349 	stmdane	r2, {r0, r3, r6, r8, r9, ip}
 848:	261c0000 	ldrcs	r0, [ip], -r0
 84c:	00134900 	andseq	r4, r3, r0, lsl #18
 850:	00341d00 	eorseq	r1, r4, r0, lsl #26
 854:	0b3a0e03 	bleq	e84068 <g_pfnVectors-0x717bf98>
 858:	1349053b 	movtne	r0, #38203	; 0x953b
 85c:	193c193f 	ldmdbne	ip!, {r0, r1, r2, r3, r4, r5, r8, fp, ip}
 860:	01000000 	mrseq	r0, (UNDEF: 0)
 864:	0e250111 	mcreq	1, 1, r0, cr5, cr1, {0}
 868:	0e030b13 	vmoveq.32	d3[0], r0
 86c:	01111755 	tsteq	r1, r5, asr r7
 870:	00001710 	andeq	r1, r0, r0, lsl r7
 874:	0b002402 	bleq	9884 <g_pfnVectors-0x7ff677c>
 878:	030b3e0b 	movweq	r3, #48651	; 0xbe0b
 87c:	0300000e 	movweq	r0, #14
 880:	0e030016 	mcreq	0, 0, r0, cr3, cr6, {0}
 884:	0b3b0b3a 	bleq	ec3574 <g_pfnVectors-0x713ca8c>
 888:	00001349 	andeq	r1, r0, r9, asr #6
 88c:	0b002404 	bleq	98a4 <g_pfnVectors-0x7ff675c>
 890:	030b3e0b 	movweq	r3, #48651	; 0xbe0b
 894:	05000008 	streq	r0, [r0, #-8]
 898:	13490035 	movtne	r0, #36917	; 0x9035
 89c:	16060000 	strne	r0, [r6], -r0
 8a0:	3a080300 	bcc	2014a8 <g_pfnVectors-0x7dfeb58>
 8a4:	49053b0b 	stmdbmi	r5, {r0, r1, r3, r8, r9, fp, ip, sp}
 8a8:	07000013 	smladeq	r0, r3, r0, r0
 8ac:	0b0b0104 	bleq	2c0cc4 <g_pfnVectors-0x7d3f33c>
 8b0:	053b0b3a 	ldreq	r0, [fp, #-2874]!	; 0xb3a
 8b4:	00001301 	andeq	r1, r0, r1, lsl #6
 8b8:	03002808 	movweq	r2, #2056	; 0x808
 8bc:	000d1c0e 	andeq	r1, sp, lr, lsl #24
 8c0:	00280900 	eoreq	r0, r8, r0, lsl #18
 8c4:	0d1c0803 	ldceq	8, cr0, [ip, #-12]
 8c8:	160a0000 	strne	r0, [sl], -r0
 8cc:	3a0e0300 	bcc	3814d4 <g_pfnVectors-0x7c7eb2c>
 8d0:	49053b0b 	stmdbmi	r5, {r0, r1, r3, r8, r9, fp, ip, sp}
 8d4:	0b000013 	bleq	928 <g_pfnVectors-0x7fff6d8>
 8d8:	0b0b0113 	bleq	2c0d2c <g_pfnVectors-0x7d3f2d4>
 8dc:	053b0b3a 	ldreq	r0, [fp, #-2874]!	; 0xb3a
 8e0:	00001301 	andeq	r1, r0, r1, lsl #6
 8e4:	03000d0c 	movweq	r0, #3340	; 0xd0c
 8e8:	3b0b3a08 	blcc	2cf110 <g_pfnVectors-0x7d30ef0>
 8ec:	38134905 	ldmdacc	r3, {r0, r2, r8, fp, lr}
 8f0:	0d00000b 	stceq	0, cr0, [r0, #-44]	; 0xffffffd4
 8f4:	0e03000d 	cdpeq	0, 0, cr0, cr3, cr13, {0}
 8f8:	053b0b3a 	ldreq	r0, [fp, #-2874]!	; 0xb3a
 8fc:	0b381349 	bleq	e05628 <g_pfnVectors-0x71fa9d8>
 900:	130e0000 	movwne	r0, #57344	; 0xe000
 904:	3a0b0b01 	bcc	2c3510 <g_pfnVectors-0x7d3caf0>
 908:	010b3b0b 	tsteq	fp, fp, lsl #22
 90c:	0f000013 	svceq	0x00000013
 910:	0e03000d 	cdpeq	0, 0, cr0, cr3, cr13, {0}
 914:	0b3b0b3a 	bleq	ec3604 <g_pfnVectors-0x713c9fc>
 918:	0b381349 	bleq	e05644 <g_pfnVectors-0x71fa9bc>
 91c:	2e100000 	cdpcs	0, 1, cr0, cr0, cr0, {0}
 920:	03193f01 	tsteq	r9, #1, 30
 924:	3b0b3a0e 	blcc	2cf164 <g_pfnVectors-0x7d30e9c>
 928:	1119270b 	tstne	r9, fp, lsl #14
 92c:	40061201 	andmi	r1, r6, r1, lsl #4
 930:	19429618 	stmdbne	r2, {r3, r4, r9, sl, ip, pc}^
 934:	00001301 	andeq	r1, r0, r1, lsl #6
 938:	03000511 	movweq	r0, #1297	; 0x511
 93c:	3b0b3a0e 	blcc	2cf17c <g_pfnVectors-0x7d30e84>
 940:	0213490b 	andseq	r4, r3, #180224	; 0x2c000
 944:	12000018 	andne	r0, r0, #24
 948:	0b0b000f 	bleq	2c098c <g_pfnVectors-0x7d3f674>
 94c:	00001349 	andeq	r1, r0, r9, asr #6
 950:	03003413 	movweq	r3, #1043	; 0x413
 954:	3b0b3a0e 	blcc	2cf194 <g_pfnVectors-0x7d30e6c>
 958:	0213490b 	andseq	r4, r3, #180224	; 0x2c000
 95c:	14000018 	strne	r0, [r0], #-24
 960:	193f012e 	ldmdbne	pc!, {r1, r2, r3, r5, r8}	; <UNPREDICTABLE>
 964:	0b3a0e03 	bleq	e84178 <g_pfnVectors-0x717be88>
 968:	1927053b 	stmdbne	r7!, {r0, r1, r3, r4, r5, r8, sl}
 96c:	06120111 			; <UNDEFINED> instruction: 0x06120111
 970:	42971840 	addsmi	r1, r7, #64, 16	; 0x400000
 974:	00130119 	andseq	r0, r3, r9, lsl r1
 978:	00051500 	andeq	r1, r5, r0, lsl #10
 97c:	0b3a0e03 	bleq	e84190 <g_pfnVectors-0x717be70>
 980:	1349053b 	movtne	r0, #38203	; 0x953b
 984:	00001802 	andeq	r1, r0, r2, lsl #16
 988:	03003416 	movweq	r3, #1046	; 0x416
 98c:	3b0b3a0e 	blcc	2cf1cc <g_pfnVectors-0x7d30e34>
 990:	02134905 	andseq	r4, r3, #81920	; 0x14000
 994:	17000018 	smladne	r0, r8, r0, r0
 998:	193f012e 	ldmdbne	pc!, {r1, r2, r3, r5, r8}	; <UNPREDICTABLE>
 99c:	0b3a0e03 	bleq	e841b0 <g_pfnVectors-0x717be50>
 9a0:	1927053b 	stmdbne	r7!, {r0, r1, r3, r4, r5, r8, sl}
 9a4:	01111349 	tsteq	r1, r9, asr #6
 9a8:	18400612 	stmdane	r0, {r1, r4, r9, sl}^
 9ac:	01194297 			; <UNDEFINED> instruction: 0x01194297
 9b0:	18000013 	stmdane	r0, {r0, r1, r4}
 9b4:	0e030034 	mcreq	0, 0, r0, cr3, cr4, {1}
 9b8:	053b0b3a 	ldreq	r0, [fp, #-2874]!	; 0xb3a
 9bc:	193f1349 	ldmdbne	pc!, {r0, r3, r6, r8, r9, ip}	; <UNPREDICTABLE>
 9c0:	0000193c 	andeq	r1, r0, ip, lsr r9
 9c4:	01110100 	tsteq	r1, r0, lsl #2
 9c8:	0b130e25 	bleq	4c4264 <g_pfnVectors-0x7b3bd9c>
 9cc:	0e1b0e03 	cdpeq	14, 1, cr0, cr11, cr3, {0}
 9d0:	01111755 	tsteq	r1, r5, asr r7
 9d4:	00001710 	andeq	r1, r0, r0, lsl r7
 9d8:	0b002402 	bleq	99e8 <g_pfnVectors-0x7ff6618>
 9dc:	030b3e0b 	movweq	r3, #48651	; 0xbe0b
 9e0:	0300000e 	movweq	r0, #14
 9e4:	0b0b0024 	bleq	2c0a7c <g_pfnVectors-0x7d3f584>
 9e8:	08030b3e 	stmdaeq	r3, {r1, r2, r3, r4, r5, r8, r9, fp}
 9ec:	16040000 	strne	r0, [r4], -r0
 9f0:	3a0e0300 	bcc	3815f8 <g_pfnVectors-0x7c7ea08>
 9f4:	490b3b0b 	stmdbmi	fp, {r0, r1, r3, r8, r9, fp, ip, sp}
 9f8:	05000013 	streq	r0, [r0, #-19]
 9fc:	0b0b000f 	bleq	2c0a40 <g_pfnVectors-0x7d3f5c0>
 a00:	00001349 	andeq	r1, r0, r9, asr #6
 a04:	03011306 	movweq	r1, #4870	; 0x1306
 a08:	3a0b0b0e 	bcc	2c3648 <g_pfnVectors-0x7d3c9b8>
 a0c:	010b3b0b 	tsteq	fp, fp, lsl #22
 a10:	07000013 	smladeq	r0, r3, r0, r0
 a14:	0e03000d 	cdpeq	0, 0, cr0, cr3, cr13, {0}
 a18:	0b3b0b3a 	bleq	ec3708 <g_pfnVectors-0x713c8f8>
 a1c:	0b381349 	bleq	e05748 <g_pfnVectors-0x71fa8b8>
 a20:	01080000 	mrseq	r0, (UNDEF: 8)
 a24:	01134901 	tsteq	r3, r1, lsl #18
 a28:	09000013 	stmdbeq	r0, {r0, r1, r4}
 a2c:	13490021 	movtne	r0, #36897	; 0x9021
 a30:	00000b2f 	andeq	r0, r0, pc, lsr #22
 a34:	4900350a 	stmdbmi	r0, {r1, r3, r8, sl, ip, sp}
 a38:	0b000013 	bleq	a8c <g_pfnVectors-0x7fff574>
 a3c:	0b0b0104 	bleq	2c0e54 <g_pfnVectors-0x7d3f1ac>
 a40:	053b0b3a 	ldreq	r0, [fp, #-2874]!	; 0xb3a
 a44:	00001301 	andeq	r1, r0, r1, lsl #6
 a48:	0300280c 	movweq	r2, #2060	; 0x80c
 a4c:	000d1c0e 	andeq	r1, sp, lr, lsl #24
 a50:	00280d00 	eoreq	r0, r8, r0, lsl #26
 a54:	0d1c0803 	ldceq	8, cr0, [ip, #-12]
 a58:	130e0000 	movwne	r0, #57344	; 0xe000
 a5c:	3a0b0b01 	bcc	2c3668 <g_pfnVectors-0x7d3c998>
 a60:	01053b0b 	tsteq	r5, fp, lsl #22
 a64:	0f000013 	svceq	0x00000013
 a68:	0803000d 	stmdaeq	r3, {r0, r2, r3}
 a6c:	053b0b3a 	ldreq	r0, [fp, #-2874]!	; 0xb3a
 a70:	0b381349 	bleq	e0579c <g_pfnVectors-0x71fa864>
 a74:	0d100000 	ldceq	0, cr0, [r0, #-0]
 a78:	3a0e0300 	bcc	381680 <g_pfnVectors-0x7c7e980>
 a7c:	49053b0b 	stmdbmi	r5, {r0, r1, r3, r8, r9, fp, ip, sp}
 a80:	000b3813 	andeq	r3, fp, r3, lsl r8
 a84:	00161100 	andseq	r1, r6, r0, lsl #2
 a88:	0b3a0e03 	bleq	e8429c <g_pfnVectors-0x717bd64>
 a8c:	1349053b 	movtne	r0, #38203	; 0x953b
 a90:	2e120000 	cdpcs	0, 1, cr0, cr2, cr0, {0}
 a94:	03193f01 	tsteq	r9, #1, 30
 a98:	3b0b3a0e 	blcc	2cf2d8 <g_pfnVectors-0x7d30d28>
 a9c:	4919270b 	ldmdbmi	r9, {r0, r1, r3, r8, r9, sl, sp}
 aa0:	12011113 	andne	r1, r1, #-1073741820	; 0xc0000004
 aa4:	97184006 	ldrls	r4, [r8, -r6]
 aa8:	13011942 	movwne	r1, #6466	; 0x1942
 aac:	05130000 	ldreq	r0, [r3, #-0]
 ab0:	3a0e0300 	bcc	3816b8 <g_pfnVectors-0x7c7e948>
 ab4:	490b3b0b 	stmdbmi	fp, {r0, r1, r3, r8, r9, fp, ip, sp}
 ab8:	00180213 	andseq	r0, r8, r3, lsl r2
 abc:	00341400 	eorseq	r1, r4, r0, lsl #8
 ac0:	0b3a0e03 	bleq	e842d4 <g_pfnVectors-0x717bd2c>
 ac4:	13490b3b 	movtne	r0, #39739	; 0x9b3b
 ac8:	00001802 	andeq	r1, r0, r2, lsl #16
 acc:	03000515 	movweq	r0, #1301	; 0x515
 ad0:	3b0b3a08 	blcc	2cf2f8 <g_pfnVectors-0x7d30d08>
 ad4:	0213490b 	andseq	r4, r3, #180224	; 0x2c000
 ad8:	16000018 			; <UNDEFINED> instruction: 0x16000018
 adc:	193f012e 	ldmdbne	pc!, {r1, r2, r3, r5, r8}	; <UNPREDICTABLE>
 ae0:	0b3a0e03 	bleq	e842f4 <g_pfnVectors-0x717bd0c>
 ae4:	19270b3b 	stmdbne	r7!, {r0, r1, r3, r4, r5, r8, r9, fp}
 ae8:	01111349 	tsteq	r1, r9, asr #6
 aec:	18400612 	stmdane	r0, {r1, r4, r9, sl}^
 af0:	01194296 			; <UNDEFINED> instruction: 0x01194296
 af4:	17000013 	smladne	r0, r3, r0, r0
 af8:	08030034 	stmdaeq	r3, {r2, r4, r5}
 afc:	0b3b0b3a 	bleq	ec37ec <g_pfnVectors-0x713c814>
 b00:	18021349 	stmdane	r2, {r0, r3, r6, r8, r9, ip}
 b04:	2e180000 	cdpcs	0, 1, cr0, cr8, cr0, {0}
 b08:	03193f00 	tsteq	r9, #0, 30
 b0c:	3b0b3a0e 	blcc	2cf34c <g_pfnVectors-0x7d30cb4>
 b10:	1119270b 	tstne	r9, fp, lsl #14
 b14:	40061201 	andmi	r1, r6, r1, lsl #4
 b18:	19429718 	stmdbne	r2, {r3, r4, r8, r9, sl, ip, pc}^
 b1c:	34190000 	ldrcc	r0, [r9], #-0
 b20:	3a0e0300 	bcc	381728 <g_pfnVectors-0x7c7e8d8>
 b24:	49053b0b 	stmdbmi	r5, {r0, r1, r3, r8, r9, fp, ip, sp}
 b28:	3c193f13 	ldccc	15, cr3, [r9], {19}
 b2c:	1a000019 	bne	b98 <g_pfnVectors-0x7fff468>
 b30:	0e030034 	mcreq	0, 0, r0, cr3, cr4, {1}
 b34:	0b3b0b3a 	bleq	ec3824 <g_pfnVectors-0x713c7dc>
 b38:	193f1349 	ldmdbne	pc!, {r0, r3, r6, r8, r9, ip}	; <UNPREDICTABLE>
 b3c:	0000193c 	andeq	r1, r0, ip, lsr r9
	...

Disassembly of section .debug_aranges:

00000000 <.debug_aranges>:
   0:	00000034 	andeq	r0, r0, r4, lsr r0
   4:	00000002 	andeq	r0, r0, r2
   8:	00040000 	andeq	r0, r4, r0
   c:	00000000 	andeq	r0, r0, r0
  10:	0800010c 	stmdaeq	r0, {r2, r3, r8}
  14:	00000068 	andeq	r0, r0, r8, rrx
  18:	00000000 	andeq	r0, r0, r0
  1c:	000000d8 	ldrdeq	r0, [r0], -r8
  20:	08000174 	stmdaeq	r0, {r2, r4, r5, r6, r8}
  24:	0000000a 	andeq	r0, r0, sl
  28:	08000180 	stmdaeq	r0, {r7, r8}
  2c:	00000100 	andeq	r0, r0, r0, lsl #2
	...
  38:	00000024 	andeq	r0, r0, r4, lsr #32
  3c:	04790002 	ldrbteq	r0, [r9], #-2
  40:	00040000 	andeq	r0, r4, r0
  44:	00000000 	andeq	r0, r0, r0
  48:	08000280 	stmdaeq	r0, {r7, r9}
  4c:	00000058 	andeq	r0, r0, r8, asr r0
  50:	080002e0 	stmdaeq	r0, {r5, r6, r7, r9}
  54:	00000006 	andeq	r0, r0, r6
	...
  60:	000000ac 	andeq	r0, r0, ip, lsr #1
  64:	05630002 	strbeq	r0, [r3, #-2]!
  68:	00040000 	andeq	r0, r4, r0
	...
  74:	000000e4 	andeq	r0, r0, r4, ror #1
  78:	00000000 	andeq	r0, r0, r0
  7c:	00000016 	andeq	r0, r0, r6, lsl r0
  80:	080002e8 	stmdaeq	r0, {r3, r5, r6, r7, r9}
  84:	00000176 	andeq	r0, r0, r6, ror r1
  88:	00000000 	andeq	r0, r0, r0
  8c:	00000026 	andeq	r0, r0, r6, lsr #32
  90:	00000000 	andeq	r0, r0, r0
  94:	00000034 	andeq	r0, r0, r4, lsr r0
  98:	00000000 	andeq	r0, r0, r0
  9c:	0000001a 	andeq	r0, r0, sl, lsl r0
  a0:	00000000 	andeq	r0, r0, r0
  a4:	00000034 	andeq	r0, r0, r4, lsr r0
  a8:	00000000 	andeq	r0, r0, r0
  ac:	0000001a 	andeq	r0, r0, sl, lsl r0
  b0:	00000000 	andeq	r0, r0, r0
  b4:	0000001c 	andeq	r0, r0, ip, lsl r0
  b8:	00000000 	andeq	r0, r0, r0
  bc:	0000001c 	andeq	r0, r0, ip, lsl r0
  c0:	00000000 	andeq	r0, r0, r0
  c4:	0000002e 	andeq	r0, r0, lr, lsr #32
  c8:	08000460 	stmdaeq	r0, {r5, r6, sl}
  cc:	00000028 	andeq	r0, r0, r8, lsr #32
  d0:	00000000 	andeq	r0, r0, r0
  d4:	0000001c 	andeq	r0, r0, ip, lsl r0
  d8:	00000000 	andeq	r0, r0, r0
  dc:	00000042 	andeq	r0, r0, r2, asr #32
  e0:	00000000 	andeq	r0, r0, r0
  e4:	00000048 	andeq	r0, r0, r8, asr #32
  e8:	00000000 	andeq	r0, r0, r0
  ec:	00000020 	andeq	r0, r0, r0, lsr #32
  f0:	00000000 	andeq	r0, r0, r0
  f4:	000000e0 	andeq	r0, r0, r0, ror #1
  f8:	00000000 	andeq	r0, r0, r0
  fc:	0000007c 	andeq	r0, r0, ip, ror r0
 100:	00000000 	andeq	r0, r0, r0
 104:	0000001c 	andeq	r0, r0, ip, lsl r0
	...
 110:	0000004c 	andeq	r0, r0, ip, asr #32
 114:	0c7f0002 	ldcleq	0, cr0, [pc], #-8	; 114 <g_pfnVectors-0x7fffeec>
 118:	00040000 	andeq	r0, r4, r0
 11c:	00000000 	andeq	r0, r0, r0
 120:	08000488 	stmdaeq	r0, {r3, r7, sl}
 124:	00000054 	andeq	r0, r0, r4, asr r0
 128:	080004dc 	stmdaeq	r0, {r2, r3, r4, r6, r7, sl}
 12c:	00000044 	andeq	r0, r0, r4, asr #32
 130:	08000520 	stmdaeq	r0, {r5, r8, sl}
 134:	0000001c 	andeq	r0, r0, ip, lsl r0
 138:	0800053c 	stmdaeq	r0, {r2, r3, r4, r5, r8, sl}
 13c:	00000250 	andeq	r0, r0, r0, asr r2
 140:	0800078c 	stmdaeq	r0, {r2, r3, r7, r8, r9, sl}
 144:	000000a8 	andeq	r0, r0, r8, lsr #1
 148:	08000834 	stmdaeq	r0, {r2, r4, r5, fp}
 14c:	00000034 	andeq	r0, r0, r4, lsr r0
 150:	08000868 	stmdaeq	r0, {r3, r5, r6, fp}
 154:	0000002c 	andeq	r0, r0, ip, lsr #32
	...
 160:	00000114 	andeq	r0, r0, r4, lsl r1
 164:	1dab0002 	stcne	0, cr0, [fp, #8]!
 168:	00040000 	andeq	r0, r4, r0
	...
 174:	0000005c 	andeq	r0, r0, ip, asr r0
 178:	00000000 	andeq	r0, r0, r0
 17c:	0000005c 	andeq	r0, r0, ip, asr r0
 180:	00000000 	andeq	r0, r0, r0
 184:	00000050 	andeq	r0, r0, r0, asr r0
 188:	00000000 	andeq	r0, r0, r0
 18c:	0000003c 	andeq	r0, r0, ip, lsr r0
 190:	00000000 	andeq	r0, r0, r0
 194:	00000020 	andeq	r0, r0, r0, lsr #32
 198:	00000000 	andeq	r0, r0, r0
 19c:	0000003c 	andeq	r0, r0, ip, lsr r0
 1a0:	00000000 	andeq	r0, r0, r0
 1a4:	00000020 	andeq	r0, r0, r0, lsr #32
 1a8:	00000000 	andeq	r0, r0, r0
 1ac:	00000038 	andeq	r0, r0, r8, lsr r0
 1b0:	00000000 	andeq	r0, r0, r0
 1b4:	00000020 	andeq	r0, r0, r0, lsr #32
 1b8:	00000000 	andeq	r0, r0, r0
 1bc:	00000038 	andeq	r0, r0, r8, lsr r0
 1c0:	00000000 	andeq	r0, r0, r0
 1c4:	00000038 	andeq	r0, r0, r8, lsr r0
 1c8:	00000000 	andeq	r0, r0, r0
 1cc:	00000038 	andeq	r0, r0, r8, lsr r0
 1d0:	00000000 	andeq	r0, r0, r0
 1d4:	00000048 	andeq	r0, r0, r8, asr #32
 1d8:	00000000 	andeq	r0, r0, r0
 1dc:	0000001c 	andeq	r0, r0, ip, lsl r0
 1e0:	00000000 	andeq	r0, r0, r0
 1e4:	00000038 	andeq	r0, r0, r8, lsr r0
 1e8:	00000000 	andeq	r0, r0, r0
 1ec:	00000040 	andeq	r0, r0, r0, asr #32
 1f0:	00000000 	andeq	r0, r0, r0
 1f4:	00000020 	andeq	r0, r0, r0, lsr #32
 1f8:	00000000 	andeq	r0, r0, r0
 1fc:	00000024 	andeq	r0, r0, r4, lsr #32
 200:	00000000 	andeq	r0, r0, r0
 204:	00000020 	andeq	r0, r0, r0, lsr #32
 208:	08000894 	stmdaeq	r0, {r2, r4, r7, fp}
 20c:	00000164 	andeq	r0, r0, r4, ror #2
 210:	00000000 	andeq	r0, r0, r0
 214:	0000003c 	andeq	r0, r0, ip, lsr r0
 218:	080009f8 	stmdaeq	r0, {r3, r4, r5, r6, r7, r8, fp}
 21c:	0000003c 	andeq	r0, r0, ip, lsr r0
 220:	00000000 	andeq	r0, r0, r0
 224:	0000003c 	andeq	r0, r0, ip, lsr r0
 228:	00000000 	andeq	r0, r0, r0
 22c:	0000003c 	andeq	r0, r0, ip, lsr r0
 230:	00000000 	andeq	r0, r0, r0
 234:	0000003c 	andeq	r0, r0, ip, lsr r0
 238:	00000000 	andeq	r0, r0, r0
 23c:	00000020 	andeq	r0, r0, r0, lsr #32
 240:	00000000 	andeq	r0, r0, r0
 244:	00000020 	andeq	r0, r0, r0, lsr #32
 248:	00000000 	andeq	r0, r0, r0
 24c:	00000020 	andeq	r0, r0, r0, lsr #32
 250:	00000000 	andeq	r0, r0, r0
 254:	00000074 	andeq	r0, r0, r4, ror r0
 258:	00000000 	andeq	r0, r0, r0
 25c:	0000001c 	andeq	r0, r0, ip, lsl r0
 260:	00000000 	andeq	r0, r0, r0
 264:	00000038 	andeq	r0, r0, r8, lsr r0
 268:	00000000 	andeq	r0, r0, r0
 26c:	00000020 	andeq	r0, r0, r0, lsr #32
	...
 278:	000000fc 	strdeq	r0, [r0], -ip
 27c:	26380002 	ldrtcs	r0, [r8], -r2
 280:	00040000 	andeq	r0, r4, r0
	...
 28c:	000000b8 	strheq	r0, [r0], -r8
 290:	08000a34 	stmdaeq	r0, {r2, r4, r5, r9, fp}
 294:	00000174 	andeq	r0, r0, r4, ror r1
 298:	00000000 	andeq	r0, r0, r0
 29c:	00000038 	andeq	r0, r0, r8, lsr r0
 2a0:	00000000 	andeq	r0, r0, r0
 2a4:	00000054 	andeq	r0, r0, r4, asr r0
 2a8:	00000000 	andeq	r0, r0, r0
 2ac:	0000002a 	andeq	r0, r0, sl, lsr #32
 2b0:	08000ba8 	stmdaeq	r0, {r3, r5, r7, r8, r9, fp}
 2b4:	0000003e 	andeq	r0, r0, lr, lsr r0
 2b8:	00000000 	andeq	r0, r0, r0
 2bc:	0000008e 	andeq	r0, r0, lr, lsl #1
 2c0:	00000000 	andeq	r0, r0, r0
 2c4:	00000046 	andeq	r0, r0, r6, asr #32
 2c8:	00000000 	andeq	r0, r0, r0
 2cc:	00000038 	andeq	r0, r0, r8, lsr r0
 2d0:	00000000 	andeq	r0, r0, r0
 2d4:	00000036 	andeq	r0, r0, r6, lsr r0
 2d8:	00000000 	andeq	r0, r0, r0
 2dc:	0000003e 	andeq	r0, r0, lr, lsr r0
 2e0:	00000000 	andeq	r0, r0, r0
 2e4:	00000036 	andeq	r0, r0, r6, lsr r0
 2e8:	00000000 	andeq	r0, r0, r0
 2ec:	0000003e 	andeq	r0, r0, lr, lsr r0
 2f0:	08000be8 	stmdaeq	r0, {r3, r5, r6, r7, r8, r9, fp}
 2f4:	00000022 	andeq	r0, r0, r2, lsr #32
 2f8:	08000c0c 	stmdaeq	r0, {r2, r3, sl, fp}
 2fc:	00000020 	andeq	r0, r0, r0, lsr #32
 300:	00000000 	andeq	r0, r0, r0
 304:	00000022 	andeq	r0, r0, r2, lsr #32
 308:	00000000 	andeq	r0, r0, r0
 30c:	0000003a 	andeq	r0, r0, sl, lsr r0
 310:	00000000 	andeq	r0, r0, r0
 314:	00000038 	andeq	r0, r0, r8, lsr r0
 318:	00000000 	andeq	r0, r0, r0
 31c:	0000003e 	andeq	r0, r0, lr, lsr r0
 320:	00000000 	andeq	r0, r0, r0
 324:	0000003e 	andeq	r0, r0, lr, lsr r0
 328:	00000000 	andeq	r0, r0, r0
 32c:	0000003e 	andeq	r0, r0, lr, lsr r0
 330:	00000000 	andeq	r0, r0, r0
 334:	00000042 	andeq	r0, r0, r2, asr #32
 338:	00000000 	andeq	r0, r0, r0
 33c:	0000003e 	andeq	r0, r0, lr, lsr r0
 340:	00000000 	andeq	r0, r0, r0
 344:	00000036 	andeq	r0, r0, r6, lsr r0
 348:	00000000 	andeq	r0, r0, r0
 34c:	0000003e 	andeq	r0, r0, lr, lsr r0
 350:	08000c2c 	stmdaeq	r0, {r2, r3, r5, sl, fp}
 354:	00000038 	andeq	r0, r0, r8, lsr r0
 358:	00000000 	andeq	r0, r0, r0
 35c:	00000020 	andeq	r0, r0, r0, lsr #32
 360:	00000000 	andeq	r0, r0, r0
 364:	000000ae 	andeq	r0, r0, lr, lsr #1
 368:	00000000 	andeq	r0, r0, r0
 36c:	00000038 	andeq	r0, r0, r8, lsr r0
	...
 378:	0000005c 	andeq	r0, r0, ip, asr r0
 37c:	30200002 	eorcc	r0, r0, r2
 380:	00040000 	andeq	r0, r4, r0
 384:	00000000 	andeq	r0, r0, r0
 388:	08000c64 	stmdaeq	r0, {r2, r5, r6, sl, fp}
 38c:	00000040 	andeq	r0, r0, r0, asr #32
 390:	00000000 	andeq	r0, r0, r0
 394:	0000001a 	andeq	r0, r0, sl, lsl r0
 398:	08000ca4 	stmdaeq	r0, {r2, r5, r7, sl, fp}
 39c:	00000018 	andeq	r0, r0, r8, lsl r0
 3a0:	08000cbc 	stmdaeq	r0, {r2, r3, r4, r5, r7, sl, fp}
 3a4:	00000020 	andeq	r0, r0, r0, lsr #32
 3a8:	08000cdc 	stmdaeq	r0, {r2, r3, r4, r6, r7, sl, fp}
 3ac:	00000016 	andeq	r0, r0, r6, lsl r0
 3b0:	08000cf4 	stmdaeq	r0, {r2, r4, r5, r6, r7, sl, fp}
 3b4:	0000001a 	andeq	r0, r0, sl, lsl r0
 3b8:	08000d10 	stmdaeq	r0, {r4, r8, sl, fp}
 3bc:	00000050 	andeq	r0, r0, r0, asr r0
 3c0:	08000d60 	stmdaeq	r0, {r5, r6, r8, sl, fp}
 3c4:	00000038 	andeq	r0, r0, r8, lsr r0
 3c8:	00000000 	andeq	r0, r0, r0
 3cc:	00000006 	andeq	r0, r0, r6
	...

Disassembly of section .debug_ranges:

00000000 <.debug_ranges>:
   0:	0800010c 	stmdaeq	r0, {r2, r3, r8}
   4:	08000174 	stmdaeq	r0, {r2, r4, r5, r6, r8}
   8:	00000001 	andeq	r0, r0, r1
   c:	00000001 	andeq	r0, r0, r1
  10:	08000174 	stmdaeq	r0, {r2, r4, r5, r6, r8}
  14:	0800017e 	stmdaeq	r0, {r1, r2, r3, r4, r5, r6, r8}
  18:	08000180 	stmdaeq	r0, {r7, r8}
  1c:	08000280 	stmdaeq	r0, {r7, r9}
	...
  28:	08000280 	stmdaeq	r0, {r7, r9}
  2c:	080002d8 	stmdaeq	r0, {r3, r4, r6, r7, r9}
  30:	080002e0 	stmdaeq	r0, {r5, r6, r7, r9}
  34:	080002e6 	stmdaeq	r0, {r1, r2, r5, r6, r7, r9}
	...
  40:	00000001 	andeq	r0, r0, r1
  44:	00000001 	andeq	r0, r0, r1
  48:	00000001 	andeq	r0, r0, r1
  4c:	00000001 	andeq	r0, r0, r1
  50:	080002e8 	stmdaeq	r0, {r3, r5, r6, r7, r9}
  54:	0800045e 	stmdaeq	r0, {r1, r2, r3, r4, r6, sl}
  58:	00000001 	andeq	r0, r0, r1
  5c:	00000001 	andeq	r0, r0, r1
  60:	00000001 	andeq	r0, r0, r1
  64:	00000001 	andeq	r0, r0, r1
  68:	00000001 	andeq	r0, r0, r1
  6c:	00000001 	andeq	r0, r0, r1
  70:	00000001 	andeq	r0, r0, r1
  74:	00000001 	andeq	r0, r0, r1
  78:	00000001 	andeq	r0, r0, r1
  7c:	00000001 	andeq	r0, r0, r1
  80:	00000001 	andeq	r0, r0, r1
  84:	00000001 	andeq	r0, r0, r1
  88:	00000001 	andeq	r0, r0, r1
  8c:	00000001 	andeq	r0, r0, r1
  90:	00000001 	andeq	r0, r0, r1
  94:	00000001 	andeq	r0, r0, r1
  98:	08000460 	stmdaeq	r0, {r5, r6, sl}
  9c:	08000488 	stmdaeq	r0, {r3, r7, sl}
  a0:	00000001 	andeq	r0, r0, r1
  a4:	00000001 	andeq	r0, r0, r1
  a8:	00000001 	andeq	r0, r0, r1
  ac:	00000001 	andeq	r0, r0, r1
  b0:	00000001 	andeq	r0, r0, r1
  b4:	00000001 	andeq	r0, r0, r1
  b8:	00000001 	andeq	r0, r0, r1
  bc:	00000001 	andeq	r0, r0, r1
  c0:	00000001 	andeq	r0, r0, r1
  c4:	00000001 	andeq	r0, r0, r1
  c8:	00000001 	andeq	r0, r0, r1
  cc:	00000001 	andeq	r0, r0, r1
  d0:	00000001 	andeq	r0, r0, r1
  d4:	00000001 	andeq	r0, r0, r1
	...
  e0:	08000488 	stmdaeq	r0, {r3, r7, sl}
  e4:	080004dc 	stmdaeq	r0, {r2, r3, r4, r6, r7, sl}
  e8:	080004dc 	stmdaeq	r0, {r2, r3, r4, r6, r7, sl}
  ec:	08000520 	stmdaeq	r0, {r5, r8, sl}
  f0:	08000520 	stmdaeq	r0, {r5, r8, sl}
  f4:	0800053c 	stmdaeq	r0, {r2, r3, r4, r5, r8, sl}
  f8:	0800053c 	stmdaeq	r0, {r2, r3, r4, r5, r8, sl}
  fc:	0800078c 	stmdaeq	r0, {r2, r3, r7, r8, r9, sl}
 100:	0800078c 	stmdaeq	r0, {r2, r3, r7, r8, r9, sl}
 104:	08000834 	stmdaeq	r0, {r2, r4, r5, fp}
 108:	08000834 	stmdaeq	r0, {r2, r4, r5, fp}
 10c:	08000868 	stmdaeq	r0, {r3, r5, r6, fp}
 110:	08000868 	stmdaeq	r0, {r3, r5, r6, fp}
 114:	08000894 	stmdaeq	r0, {r2, r4, r7, fp}
	...
 120:	00000001 	andeq	r0, r0, r1
 124:	00000001 	andeq	r0, r0, r1
 128:	00000001 	andeq	r0, r0, r1
 12c:	00000001 	andeq	r0, r0, r1
 130:	00000001 	andeq	r0, r0, r1
 134:	00000001 	andeq	r0, r0, r1
 138:	00000001 	andeq	r0, r0, r1
 13c:	00000001 	andeq	r0, r0, r1
 140:	00000001 	andeq	r0, r0, r1
 144:	00000001 	andeq	r0, r0, r1
 148:	00000001 	andeq	r0, r0, r1
 14c:	00000001 	andeq	r0, r0, r1
 150:	00000001 	andeq	r0, r0, r1
 154:	00000001 	andeq	r0, r0, r1
 158:	00000001 	andeq	r0, r0, r1
 15c:	00000001 	andeq	r0, r0, r1
 160:	00000001 	andeq	r0, r0, r1
 164:	00000001 	andeq	r0, r0, r1
 168:	00000001 	andeq	r0, r0, r1
 16c:	00000001 	andeq	r0, r0, r1
 170:	00000001 	andeq	r0, r0, r1
 174:	00000001 	andeq	r0, r0, r1
 178:	00000001 	andeq	r0, r0, r1
 17c:	00000001 	andeq	r0, r0, r1
 180:	00000001 	andeq	r0, r0, r1
 184:	00000001 	andeq	r0, r0, r1
 188:	00000001 	andeq	r0, r0, r1
 18c:	00000001 	andeq	r0, r0, r1
 190:	00000001 	andeq	r0, r0, r1
 194:	00000001 	andeq	r0, r0, r1
 198:	00000001 	andeq	r0, r0, r1
 19c:	00000001 	andeq	r0, r0, r1
 1a0:	00000001 	andeq	r0, r0, r1
 1a4:	00000001 	andeq	r0, r0, r1
 1a8:	00000001 	andeq	r0, r0, r1
 1ac:	00000001 	andeq	r0, r0, r1
 1b0:	00000001 	andeq	r0, r0, r1
 1b4:	00000001 	andeq	r0, r0, r1
 1b8:	08000894 	stmdaeq	r0, {r2, r4, r7, fp}
 1bc:	080009f8 	stmdaeq	r0, {r3, r4, r5, r6, r7, r8, fp}
 1c0:	00000001 	andeq	r0, r0, r1
 1c4:	00000001 	andeq	r0, r0, r1
 1c8:	080009f8 	stmdaeq	r0, {r3, r4, r5, r6, r7, r8, fp}
 1cc:	08000a34 	stmdaeq	r0, {r2, r4, r5, r9, fp}
 1d0:	00000001 	andeq	r0, r0, r1
 1d4:	00000001 	andeq	r0, r0, r1
 1d8:	00000001 	andeq	r0, r0, r1
 1dc:	00000001 	andeq	r0, r0, r1
 1e0:	00000001 	andeq	r0, r0, r1
 1e4:	00000001 	andeq	r0, r0, r1
 1e8:	00000001 	andeq	r0, r0, r1
 1ec:	00000001 	andeq	r0, r0, r1
 1f0:	00000001 	andeq	r0, r0, r1
 1f4:	00000001 	andeq	r0, r0, r1
 1f8:	00000001 	andeq	r0, r0, r1
 1fc:	00000001 	andeq	r0, r0, r1
 200:	00000001 	andeq	r0, r0, r1
 204:	00000001 	andeq	r0, r0, r1
 208:	00000001 	andeq	r0, r0, r1
 20c:	00000001 	andeq	r0, r0, r1
 210:	00000001 	andeq	r0, r0, r1
 214:	00000001 	andeq	r0, r0, r1
 218:	00000001 	andeq	r0, r0, r1
 21c:	00000001 	andeq	r0, r0, r1
	...
 228:	00000001 	andeq	r0, r0, r1
 22c:	00000001 	andeq	r0, r0, r1
 230:	08000a34 	stmdaeq	r0, {r2, r4, r5, r9, fp}
 234:	08000ba8 	stmdaeq	r0, {r3, r5, r7, r8, r9, fp}
 238:	00000001 	andeq	r0, r0, r1
 23c:	00000001 	andeq	r0, r0, r1
 240:	00000001 	andeq	r0, r0, r1
 244:	00000001 	andeq	r0, r0, r1
 248:	00000001 	andeq	r0, r0, r1
 24c:	00000001 	andeq	r0, r0, r1
 250:	08000ba8 	stmdaeq	r0, {r3, r5, r7, r8, r9, fp}
 254:	08000be6 	stmdaeq	r0, {r1, r2, r5, r6, r7, r8, r9, fp}
 258:	00000001 	andeq	r0, r0, r1
 25c:	00000001 	andeq	r0, r0, r1
 260:	00000001 	andeq	r0, r0, r1
 264:	00000001 	andeq	r0, r0, r1
 268:	00000001 	andeq	r0, r0, r1
 26c:	00000001 	andeq	r0, r0, r1
 270:	00000001 	andeq	r0, r0, r1
 274:	00000001 	andeq	r0, r0, r1
 278:	00000001 	andeq	r0, r0, r1
 27c:	00000001 	andeq	r0, r0, r1
 280:	00000001 	andeq	r0, r0, r1
 284:	00000001 	andeq	r0, r0, r1
 288:	00000001 	andeq	r0, r0, r1
 28c:	00000001 	andeq	r0, r0, r1
 290:	08000be8 	stmdaeq	r0, {r3, r5, r6, r7, r8, r9, fp}
 294:	08000c0a 	stmdaeq	r0, {r1, r3, sl, fp}
 298:	08000c0c 	stmdaeq	r0, {r2, r3, sl, fp}
 29c:	08000c2c 	stmdaeq	r0, {r2, r3, r5, sl, fp}
 2a0:	00000001 	andeq	r0, r0, r1
 2a4:	00000001 	andeq	r0, r0, r1
 2a8:	00000001 	andeq	r0, r0, r1
 2ac:	00000001 	andeq	r0, r0, r1
 2b0:	00000001 	andeq	r0, r0, r1
 2b4:	00000001 	andeq	r0, r0, r1
 2b8:	00000001 	andeq	r0, r0, r1
 2bc:	00000001 	andeq	r0, r0, r1
 2c0:	00000001 	andeq	r0, r0, r1
 2c4:	00000001 	andeq	r0, r0, r1
 2c8:	00000001 	andeq	r0, r0, r1
 2cc:	00000001 	andeq	r0, r0, r1
 2d0:	00000001 	andeq	r0, r0, r1
 2d4:	00000001 	andeq	r0, r0, r1
 2d8:	00000001 	andeq	r0, r0, r1
 2dc:	00000001 	andeq	r0, r0, r1
 2e0:	00000001 	andeq	r0, r0, r1
 2e4:	00000001 	andeq	r0, r0, r1
 2e8:	00000001 	andeq	r0, r0, r1
 2ec:	00000001 	andeq	r0, r0, r1
 2f0:	08000c2c 	stmdaeq	r0, {r2, r3, r5, sl, fp}
 2f4:	08000c64 	stmdaeq	r0, {r2, r5, r6, sl, fp}
 2f8:	00000001 	andeq	r0, r0, r1
 2fc:	00000001 	andeq	r0, r0, r1
 300:	00000001 	andeq	r0, r0, r1
 304:	00000001 	andeq	r0, r0, r1
 308:	00000001 	andeq	r0, r0, r1
 30c:	00000001 	andeq	r0, r0, r1
	...
 318:	08000c64 	stmdaeq	r0, {r2, r5, r6, sl, fp}
 31c:	08000ca4 	stmdaeq	r0, {r2, r5, r7, sl, fp}
 320:	00000001 	andeq	r0, r0, r1
 324:	00000001 	andeq	r0, r0, r1
 328:	08000ca4 	stmdaeq	r0, {r2, r5, r7, sl, fp}
 32c:	08000cbc 	stmdaeq	r0, {r2, r3, r4, r5, r7, sl, fp}
 330:	08000cbc 	stmdaeq	r0, {r2, r3, r4, r5, r7, sl, fp}
 334:	08000cdc 	stmdaeq	r0, {r2, r3, r4, r6, r7, sl, fp}
 338:	08000cdc 	stmdaeq	r0, {r2, r3, r4, r6, r7, sl, fp}
 33c:	08000cf2 	stmdaeq	r0, {r1, r4, r5, r6, r7, sl, fp}
 340:	08000cf4 	stmdaeq	r0, {r2, r4, r5, r6, r7, sl, fp}
 344:	08000d0e 	stmdaeq	r0, {r1, r2, r3, r8, sl, fp}
 348:	08000d10 	stmdaeq	r0, {r4, r8, sl, fp}
 34c:	08000d60 	stmdaeq	r0, {r5, r6, r8, sl, fp}
 350:	08000d60 	stmdaeq	r0, {r5, r6, r8, sl, fp}
 354:	08000d98 	stmdaeq	r0, {r3, r4, r7, r8, sl, fp}
 358:	00000001 	andeq	r0, r0, r1
 35c:	00000001 	andeq	r0, r0, r1
	...

Disassembly of section .debug_line:

00000000 <.debug_line>:
       0:	00000242 	andeq	r0, r0, r2, asr #4
       4:	019d0002 	orrseq	r0, sp, r2
       8:	01020000 	mrseq	r0, (UNDEF: 2)
       c:	000d0efb 	strdeq	r0, [sp], -fp
      10:	01010101 	tsteq	r1, r1, lsl #2
      14:	01000000 	mrseq	r0, (UNDEF: 0)
      18:	43010000 	movwmi	r0, #4096	; 0x1000
      1c:	73555c3a 	cmpvc	r5, #14848	; 0x3a00
      20:	5c737265 	lfmpl	f7, 2, [r3], #-404	; 0xfffffe6c
      24:	726f7055 	rsbvc	r7, pc, #85	; 0x55
      28:	696e6261 	stmdbvs	lr!, {r0, r5, r6, r9, sp, lr}^
      2c:	6f445c6b 	svcvs	0x00445c6b
      30:	656d7563 	strbvs	r7, [sp, #-1379]!	; 0x563
      34:	5c73746e 	cfldrdpl	mvd7, [r3], #-440	; 0xfffffe48
      38:	436f6f43 	cmnmi	pc, #268	; 0x10c
      3c:	535c786f 	cmppl	ip, #7274496	; 0x6f0000
      40:	32334d54 	eorscc	r4, r3, #84, 26	; 0x1500
      44:	33303146 	teqcc	r0, #-2147483631	; 0x80000011
      48:	696c425c 	stmdbvs	ip!, {r2, r3, r4, r6, r9, lr}^
      4c:	555f6b6e 	ldrbpl	r6, [pc, #-2926]	; fffff4e6 <__StackTop+0xdfffa4e6>
      50:	54524153 	ldrbpl	r4, [r2], #-339	; 0x153
      54:	65745f31 	ldrbvs	r5, [r4, #-3889]!	; 0xf31
      58:	635c7473 	cmpvs	ip, #1929379840	; 0x73000000
      5c:	7369736d 	cmnvc	r9, #-1275068415	; 0xb4000001
      60:	6f6f625f 	svcvs	0x006f625f
      64:	3a630074 	bcc	18c023c <g_pfnVectors-0x673fdc4>
      68:	6f72705c 	svcvs	0x0072705c
      6c:	6d617267 	sfmvs	f7, 2, [r1, #-412]!	; 0xfffffe64
      70:	6c696620 	stclvs	6, cr6, [r9], #-128	; 0xffffff80
      74:	28207365 	stmdacs	r0!, {r0, r2, r5, r6, r8, r9, ip, sp, lr}
      78:	29363878 	ldmdbcs	r6!, {r3, r4, r5, r6, fp, ip, sp}
      7c:	756e675c 	strbvc	r6, [lr, #-1884]!	; 0x75c
      80:	6f6f7420 	svcvs	0x006f7420
      84:	6120736c 	teqvs	r0, ip, ror #6
      88:	65206d72 	strvs	r6, [r0, #-3442]!	; 0xd72
      8c:	6465626d 	strbtvs	r6, [r5], #-621	; 0x26d
      90:	5c646564 	cfstr64pl	mvdx6, [r4], #-400	; 0xfffffe70
      94:	20382e34 	eorscs	r2, r8, r4, lsr lr
      98:	34313032 	ldrtcc	r3, [r1], #-50	; 0x32
      9c:	615c3171 	cmpvs	ip, r1, ror r1
      a0:	6e2d6d72 	mcrvs	13, 1, r6, cr13, cr2, {3}
      a4:	2d656e6f 	stclcs	14, cr6, [r5, #-444]!	; 0xfffffe44
      a8:	69626165 	stmdbvs	r2!, {r0, r2, r5, r6, r8, sp, lr}^
      ac:	636e695c 	cmnvs	lr, #92, 18	; 0x170000
      b0:	6564756c 	strbvs	r7, [r4, #-1388]!	; 0x56c
      b4:	63616d5c 	cmnvs	r1, #92, 26	; 0x1700
      b8:	656e6968 	strbvs	r6, [lr, #-2408]!	; 0x968
      bc:	5c3a6300 	ldcpl	3, cr6, [sl], #-0
      c0:	676f7270 			; <UNDEFINED> instruction: 0x676f7270
      c4:	206d6172 	rsbcs	r6, sp, r2, ror r1
      c8:	656c6966 	strbvs	r6, [ip, #-2406]!	; 0x966
      cc:	78282073 	stmdavc	r8!, {r0, r1, r4, r5, r6, sp}
      d0:	5c293638 	stcpl	6, cr3, [r9], #-224	; 0xffffff20
      d4:	20756e67 	rsbscs	r6, r5, r7, ror #28
      d8:	6c6f6f74 	stclvs	15, cr6, [pc], #-464	; ffffff10 <__StackTop+0xdfffaf10>
      dc:	72612073 	rsbvc	r2, r1, #115	; 0x73
      e0:	6d65206d 	stclvs	0, cr2, [r5, #-436]!	; 0xfffffe4c
      e4:	64646562 	strbtvs	r6, [r4], #-1378	; 0x562
      e8:	345c6465 	ldrbcc	r6, [ip], #-1125	; 0x465
      ec:	3220382e 	eorcc	r3, r0, #3014656	; 0x2e0000
      f0:	71343130 	teqvc	r4, r0, lsr r1
      f4:	72615c31 	rsbvc	r5, r1, #12544	; 0x3100
      f8:	6f6e2d6d 	svcvs	0x006e2d6d
      fc:	652d656e 	strvs	r6, [sp, #-1390]!	; 0x56e
     100:	5c696261 	sfmpl	f6, 2, [r9], #-388	; 0xfffffe7c
     104:	6c636e69 	stclvs	14, cr6, [r3], #-420	; 0xfffffe5c
     108:	00656475 	rsbeq	r6, r5, r5, ror r4
     10c:	555c3a43 	ldrbpl	r3, [ip, #-2627]	; 0xa43
     110:	73726573 	cmnvc	r2, #482344960	; 0x1cc00000
     114:	6f70555c 	svcvs	0x0070555c
     118:	6e626172 	mcrvs	1, 3, r6, cr2, cr2, {3}
     11c:	445c6b69 	ldrbmi	r6, [ip], #-2921	; 0xb69
     120:	6d75636f 	ldclvs	3, cr6, [r5, #-444]!	; 0xfffffe44
     124:	73746e65 	cmnvc	r4, #1616	; 0x650
     128:	6f6f435c 	svcvs	0x006f435c
     12c:	5c786f43 	ldclpl	15, cr6, [r8], #-268	; 0xfffffef4
     130:	334d5453 	movtcc	r5, #54355	; 0xd453
     134:	30314632 	eorscc	r4, r1, r2, lsr r6
     138:	6c425c33 	mcrrvs	12, 3, r5, r2, cr3
     13c:	5f6b6e69 	svcpl	0x006b6e69
     140:	52415355 	subpl	r5, r1, #1409286145	; 0x54000001
     144:	745f3154 	ldrbvc	r3, [pc], #-340	; 14c <g_pfnVectors-0x7fffeb4>
     148:	5c747365 	ldclpl	3, cr7, [r4], #-404	; 0xfffffe6c
     14c:	69736d63 	ldmdbvs	r3!, {r0, r1, r5, r6, r8, sl, fp, sp, lr}^
     150:	73000073 	movwvc	r0, #115	; 0x73
     154:	65747379 	ldrbvs	r7, [r4, #-889]!	; 0x379
     158:	74735f6d 	ldrbtvc	r5, [r3], #-3949	; 0xf6d
     15c:	6632336d 	ldrtvs	r3, [r2], -sp, ror #6
     160:	2e783031 	mrccs	0, 3, r3, cr8, cr1, {1}
     164:	00010063 	andeq	r0, r1, r3, rrx
     168:	65645f00 	strbvs	r5, [r4, #-3840]!	; 0xf00
     16c:	6c756166 	ldfvse	f6, [r5], #-408	; 0xfffffe68
     170:	79745f74 	ldmdbvc	r4!, {r2, r4, r5, r6, r8, r9, sl, fp, ip, lr}^
     174:	2e736570 	mrccs	5, 3, r6, cr3, cr0, {3}
     178:	00020068 	andeq	r0, r2, r8, rrx
     17c:	64747300 	ldrbtvs	r7, [r4], #-768	; 0x300
     180:	2e746e69 	cdpcs	14, 7, cr6, cr4, cr9, {3}
     184:	00030068 	andeq	r0, r3, r8, rrx
     188:	726f6300 	rsbvc	r6, pc, #0, 6
     18c:	6d635f65 	stclvs	15, cr5, [r3, #-404]!	; 0xfffffe6c
     190:	00682e33 	rsbeq	r2, r8, r3, lsr lr
     194:	73000004 	movwvc	r0, #4
     198:	32336d74 	eorscc	r6, r3, #116, 26	; 0x1d00
     19c:	78303166 	ldmdavc	r0!, {r1, r2, r5, r6, r8, ip, sp}
     1a0:	0100682e 	tsteq	r0, lr, lsr #16
     1a4:	00000000 	andeq	r0, r0, r0
     1a8:	010c0205 	tsteq	ip, r5, lsl #4
     1ac:	d4030800 	strle	r0, [r3], #-2048	; 0x800
     1b0:	6a310101 	bvs	c405bc <g_pfnVectors-0x73bfa44>
     1b4:	0369856c 	cmneq	r9, #108, 10	; 0x1b000000
     1b8:	0b036613 	bleq	d9a0c <g_pfnVectors-0x7f265f4>
     1bc:	024c334a 	subeq	r3, ip, #671088641	; 0x28000001
     1c0:	01010008 	tsteq	r1, r8
     1c4:	00020500 	andeq	r0, r2, r0, lsl #10
     1c8:	03000000 	movweq	r0, #0
     1cc:	3d0102b2 	sfmcc	f0, 4, [r1, #-712]	; 0xfffffd38
     1d0:	5a660b03 	bpl	1982de4 <g_pfnVectors-0x667d21c>
     1d4:	3d223d77 	stccc	13, cr3, [r2, #-476]!	; 0xfffffe24
     1d8:	4c5b5924 	mrrcmi	9, 2, r5, fp, cr4
     1dc:	740a033f 	strvc	r0, [sl], #-831	; 0x33f
     1e0:	2b037868 	blcs	de388 <g_pfnVectors-0x7f21c78>
     1e4:	253d3166 	ldrcs	r3, [sp, #-358]!	; 0x166
     1e8:	0f026792 	svceq	0x00026792
     1ec:	00010100 	andeq	r0, r1, r0, lsl #2
     1f0:	01740205 	cmneq	r4, r5, lsl #4
     1f4:	a3030800 	movwge	r0, #14336	; 0x3800
     1f8:	0c030103 	stfeqs	f0, [r3], {3}
     1fc:	0102332e 	tsteq	r2, lr, lsr #6
     200:	00010100 	andeq	r0, r1, r0, lsl #2
     204:	01800205 	orreq	r0, r0, r5, lsl #4
     208:	db030800 	blle	c2210 <g_pfnVectors-0x7f3ddf0>
     20c:	4e3d0107 	rsfmie	f0, f5, f7
     210:	01040200 	mrseq	r0, R12_usr
     214:	0402006b 	streq	r0, [r2], #-107	; 0x6b
     218:	02005901 	andeq	r5, r0, #16384	; 0x4000
     21c:	763d0104 	ldrtvc	r0, [sp], -r4, lsl #2
     220:	3f314068 	svccc	0x00314068
     224:	4d6a6769 	stclmi	7, cr6, [sl, #-420]!	; 0xfffffe5c
     228:	661a034d 	ldrvs	r0, [sl], -sp, asr #6
     22c:	00696a68 	rsbeq	r6, r9, r8, ror #20
     230:	06010402 	streq	r0, [r1], -r2, lsl #8
     234:	676b0620 	strbvs	r0, [fp, -r0, lsr #12]!
     238:	04020069 	streq	r0, [r2], #-105	; 0x69
     23c:	06200601 	strteq	r0, [r0], -r1, lsl #12
     240:	000a026e 	andeq	r0, sl, lr, ror #4
     244:	00b90101 	adcseq	r0, r9, r1, lsl #2
     248:	00020000 	andeq	r0, r2, r0
     24c:	00000080 	andeq	r0, r0, r0, lsl #1
     250:	0efb0102 	cdpeq	1, 15, cr0, cr11, cr2, {0}
     254:	0101000d 	tsteq	r1, sp
     258:	00000101 	andeq	r0, r0, r1, lsl #2
     25c:	00000100 	andeq	r0, r0, r0, lsl #2
     260:	5c3a4301 	ldcpl	3, cr4, [sl], #-4
     264:	72657355 	rsbvc	r7, r5, #1409286145	; 0x54000001
     268:	70555c73 	subsvc	r5, r5, r3, ror ip
     26c:	6261726f 	rsbvs	r7, r1, #-268435450	; 0xf0000006
     270:	5c6b696e 	stclpl	9, cr6, [fp], #-440	; 0xfffffe48
     274:	75636f44 	strbvc	r6, [r3, #-3908]!	; 0xf44
     278:	746e656d 	strbtvc	r6, [lr], #-1389	; 0x56d
     27c:	6f435c73 	svcvs	0x00435c73
     280:	786f436f 	stmdavc	pc!, {r0, r1, r2, r3, r5, r6, r8, r9, lr}^	; <UNPREDICTABLE>
     284:	4d54535c 	ldclmi	3, cr5, [r4, #-368]	; 0xfffffe90
     288:	31463233 	cmpcc	r6, r3, lsr r2
     28c:	425c3330 	subsmi	r3, ip, #48, 6	; 0xc0000000
     290:	6b6e696c 	blvs	1b9a848 <g_pfnVectors-0x64657b8>
     294:	4153555f 	cmpmi	r3, pc, asr r5
     298:	5f315452 	svcpl	0x00315452
     29c:	74736574 	ldrbtvc	r6, [r3], #-1396	; 0x574
     2a0:	736d635c 	cmnvc	sp, #92, 6	; 0x70000001
     2a4:	625f7369 	subsvs	r7, pc, #-1543503871	; 0xa4000001
     2a8:	5c746f6f 	ldclpl	15, cr6, [r4], #-444	; 0xfffffe44
     2ac:	72617473 	rsbvc	r7, r1, #1929379840	; 0x73000000
     2b0:	00707574 	rsbseq	r7, r0, r4, ror r5
     2b4:	61747300 	cmnvs	r4, r0, lsl #6
     2b8:	70757472 	rsbsvc	r7, r5, r2, ror r4
     2bc:	6d74735f 	ldclvs	3, cr7, [r4, #-380]!	; 0xfffffe84
     2c0:	31663233 	cmncc	r6, r3, lsr r2
     2c4:	6d5f7830 	ldclvs	8, cr7, [pc, #-192]	; 20c <g_pfnVectors-0x7fffdf4>
     2c8:	00632e64 	rsbeq	r2, r3, r4, ror #28
     2cc:	00000001 	andeq	r0, r0, r1
     2d0:	80020500 	andhi	r0, r2, r0, lsl #10
     2d4:	03080002 	movweq	r0, #32770	; 0x8002
     2d8:	410101bb 			; <UNDEFINED> instruction: 0x410101bb
     2dc:	02003e30 	andeq	r3, r0, #48, 28	; 0x300
     2e0:	51800104 	orrpl	r0, r0, r4, lsl #2
     2e4:	319e0b03 	orrscc	r0, lr, r3, lsl #22
     2e8:	000e022f 	andeq	r0, lr, pc, lsr #4
     2ec:	05000101 	streq	r0, [r0, #-257]	; 0x101
     2f0:	0002e002 	andeq	lr, r2, r2
     2f4:	029e0308 	addseq	r0, lr, #8, 6	; 0x20000000
     2f8:	04020001 	streq	r0, [r2], #-1
     2fc:	01023201 	tsteq	r2, r1, lsl #4
     300:	21010100 	mrscs	r0, (UNDEF: 17)
     304:	02000004 	andeq	r0, r0, #4
     308:	00024700 	andeq	r4, r2, r0, lsl #14
     30c:	fb010200 	blx	40b16 <g_pfnVectors-0x7fbf4ea>
     310:	01000d0e 	tsteq	r0, lr, lsl #26
     314:	00010101 	andeq	r0, r1, r1, lsl #2
     318:	00010000 	andeq	r0, r1, r0
     31c:	3a430100 	bcc	10c0724 <g_pfnVectors-0x6f3f8dc>
     320:	6573555c 	ldrbvs	r5, [r3, #-1372]!	; 0x55c
     324:	555c7372 	ldrbpl	r7, [ip, #-882]	; 0x372
     328:	61726f70 	cmnvs	r2, r0, ror pc
     32c:	6b696e62 	blvs	1a5bcbc <g_pfnVectors-0x65a4344>
     330:	636f445c 	cmnvs	pc, #92, 8	; 0x5c000000
     334:	6e656d75 	mcrvs	13, 3, r6, cr5, cr5, {3}
     338:	435c7374 	cmpmi	ip, #116, 6	; 0xd0000001
     33c:	6f436f6f 	svcvs	0x00436f6f
     340:	54535c78 	ldrbpl	r5, [r3], #-3192	; 0xc78
     344:	4632334d 	ldrtmi	r3, [r2], -sp, asr #6
     348:	5c333031 	ldcpl	0, cr3, [r3], #-196	; 0xffffff3c
     34c:	6e696c42 	cdpvs	12, 6, cr6, cr9, cr2, {2}
     350:	53555f6b 	cmppl	r5, #428	; 0x1ac
     354:	31545241 	cmpcc	r4, r1, asr #4
     358:	7365745f 	cmnvc	r5, #1593835520	; 0x5f000000
     35c:	74735c74 	ldrbtvc	r5, [r3], #-3188	; 0xc74
     360:	696c5f6d 	stmdbvs	ip!, {r0, r2, r3, r5, r6, r8, r9, sl, fp, ip, lr}^
     364:	72735c62 	rsbsvc	r5, r3, #25088	; 0x6200
     368:	3a630063 	bcc	18c04fc <g_pfnVectors-0x673fb04>
     36c:	6f72705c 	svcvs	0x0072705c
     370:	6d617267 	sfmvs	f7, 2, [r1, #-412]!	; 0xfffffe64
     374:	6c696620 	stclvs	6, cr6, [r9], #-128	; 0xffffff80
     378:	28207365 	stmdacs	r0!, {r0, r2, r5, r6, r8, r9, ip, sp, lr}
     37c:	29363878 	ldmdbcs	r6!, {r3, r4, r5, r6, fp, ip, sp}
     380:	756e675c 	strbvc	r6, [lr, #-1884]!	; 0x75c
     384:	6f6f7420 	svcvs	0x006f7420
     388:	6120736c 	teqvs	r0, ip, ror #6
     38c:	65206d72 	strvs	r6, [r0, #-3442]!	; 0xd72
     390:	6465626d 	strbtvs	r6, [r5], #-621	; 0x26d
     394:	5c646564 	cfstr64pl	mvdx6, [r4], #-400	; 0xfffffe70
     398:	20382e34 	eorscs	r2, r8, r4, lsr lr
     39c:	34313032 	ldrtcc	r3, [r1], #-50	; 0x32
     3a0:	615c3171 	cmpvs	ip, r1, ror r1
     3a4:	6e2d6d72 	mcrvs	13, 1, r6, cr13, cr2, {3}
     3a8:	2d656e6f 	stclcs	14, cr6, [r5, #-444]!	; 0xfffffe44
     3ac:	69626165 	stmdbvs	r2!, {r0, r2, r5, r6, r8, sp, lr}^
     3b0:	636e695c 	cmnvs	lr, #92, 18	; 0x170000
     3b4:	6564756c 	strbvs	r7, [r4, #-1388]!	; 0x56c
     3b8:	63616d5c 	cmnvs	r1, #92, 26	; 0x1700
     3bc:	656e6968 	strbvs	r6, [lr, #-2408]!	; 0x968
     3c0:	5c3a6300 	ldcpl	3, cr6, [sl], #-0
     3c4:	676f7270 			; <UNDEFINED> instruction: 0x676f7270
     3c8:	206d6172 	rsbcs	r6, sp, r2, ror r1
     3cc:	656c6966 	strbvs	r6, [ip, #-2406]!	; 0x966
     3d0:	78282073 	stmdavc	r8!, {r0, r1, r4, r5, r6, sp}
     3d4:	5c293638 	stcpl	6, cr3, [r9], #-224	; 0xffffff20
     3d8:	20756e67 	rsbscs	r6, r5, r7, ror #28
     3dc:	6c6f6f74 	stclvs	15, cr6, [pc], #-464	; 214 <g_pfnVectors-0x7fffdec>
     3e0:	72612073 	rsbvc	r2, r1, #115	; 0x73
     3e4:	6d65206d 	stclvs	0, cr2, [r5, #-436]!	; 0xfffffe4c
     3e8:	64646562 	strbtvs	r6, [r4], #-1378	; 0x562
     3ec:	345c6465 	ldrbcc	r6, [ip], #-1125	; 0x465
     3f0:	3220382e 	eorcc	r3, r0, #3014656	; 0x2e0000
     3f4:	71343130 	teqvc	r4, r0, lsr r1
     3f8:	72615c31 	rsbvc	r5, r1, #12544	; 0x3100
     3fc:	6f6e2d6d 	svcvs	0x006e2d6d
     400:	652d656e 	strvs	r6, [sp, #-1390]!	; 0x56e
     404:	5c696261 	sfmpl	f6, 2, [r9], #-388	; 0xfffffe7c
     408:	6c636e69 	stclvs	14, cr6, [r3], #-420	; 0xfffffe5c
     40c:	00656475 	rsbeq	r6, r5, r5, ror r4
     410:	555c3a43 	ldrbpl	r3, [ip, #-2627]	; 0xa43
     414:	73726573 	cmnvc	r2, #482344960	; 0x1cc00000
     418:	6f70555c 	svcvs	0x0070555c
     41c:	6e626172 	mcrvs	1, 3, r6, cr2, cr2, {3}
     420:	445c6b69 	ldrbmi	r6, [ip], #-2921	; 0xb69
     424:	6d75636f 	ldclvs	3, cr6, [r5, #-444]!	; 0xfffffe44
     428:	73746e65 	cmnvc	r4, #1616	; 0x650
     42c:	6f6f435c 	svcvs	0x006f435c
     430:	5c786f43 	ldclpl	15, cr6, [r8], #-268	; 0xfffffef4
     434:	334d5453 	movtcc	r5, #54355	; 0xd453
     438:	30314632 	eorscc	r4, r1, r2, lsr r6
     43c:	6c425c33 	mcrrvs	12, 3, r5, r2, cr3
     440:	5f6b6e69 	svcpl	0x006b6e69
     444:	52415355 	subpl	r5, r1, #1409286145	; 0x54000001
     448:	745f3154 	ldrbvc	r3, [pc], #-340	; 450 <g_pfnVectors-0x7fffbb0>
     44c:	5c747365 	ldclpl	3, cr7, [r4], #-404	; 0xfffffe6c
     450:	69736d63 	ldmdbvs	r3!, {r0, r1, r5, r6, r8, sl, fp, sp, lr}^
     454:	6f625f73 	svcvs	0x00625f73
     458:	4300746f 	movwmi	r7, #1135	; 0x46f
     45c:	73555c3a 	cmpvc	r5, #14848	; 0x3a00
     460:	5c737265 	lfmpl	f7, 2, [r3], #-404	; 0xfffffe6c
     464:	726f7055 	rsbvc	r7, pc, #85	; 0x55
     468:	696e6261 	stmdbvs	lr!, {r0, r5, r6, r9, sp, lr}^
     46c:	6f445c6b 	svcvs	0x00445c6b
     470:	656d7563 	strbvs	r7, [sp, #-1379]!	; 0x563
     474:	5c73746e 	cfldrdpl	mvd7, [r3], #-440	; 0xfffffe48
     478:	436f6f43 	cmnmi	pc, #268	; 0x10c
     47c:	535c786f 	cmppl	ip, #7274496	; 0x6f0000
     480:	32334d54 	eorscc	r4, r3, #84, 26	; 0x1500
     484:	33303146 	teqcc	r0, #-2147483631	; 0x80000011
     488:	696c425c 	stmdbvs	ip!, {r2, r3, r4, r6, r9, lr}^
     48c:	555f6b6e 	ldrbpl	r6, [pc, #-2926]	; fffff926 <__StackTop+0xdfffa926>
     490:	54524153 	ldrbpl	r4, [r2], #-339	; 0x153
     494:	65745f31 	ldrbvs	r5, [r4, #-3889]!	; 0xf31
     498:	735c7473 	cmpvc	ip, #1929379840	; 0x73000000
     49c:	6c5f6d74 	mrrcvs	13, 7, r6, pc, cr4	; <UNPREDICTABLE>
     4a0:	695c6269 	ldmdbvs	ip, {r0, r3, r5, r6, r9, sp, lr}^
     4a4:	4300636e 	movwmi	r6, #878	; 0x36e
     4a8:	73555c3a 	cmpvc	r5, #14848	; 0x3a00
     4ac:	5c737265 	lfmpl	f7, 2, [r3], #-404	; 0xfffffe6c
     4b0:	726f7055 	rsbvc	r7, pc, #85	; 0x55
     4b4:	696e6261 	stmdbvs	lr!, {r0, r5, r6, r9, sp, lr}^
     4b8:	6f445c6b 	svcvs	0x00445c6b
     4bc:	656d7563 	strbvs	r7, [sp, #-1379]!	; 0x563
     4c0:	5c73746e 	cfldrdpl	mvd7, [r3], #-440	; 0xfffffe48
     4c4:	436f6f43 	cmnmi	pc, #268	; 0x10c
     4c8:	535c786f 	cmppl	ip, #7274496	; 0x6f0000
     4cc:	32334d54 	eorscc	r4, r3, #84, 26	; 0x1500
     4d0:	33303146 	teqcc	r0, #-2147483631	; 0x80000011
     4d4:	696c425c 	stmdbvs	ip!, {r2, r3, r4, r6, r9, lr}^
     4d8:	555f6b6e 	ldrbpl	r6, [pc, #-2926]	; fffff972 <__StackTop+0xdfffa972>
     4dc:	54524153 	ldrbpl	r4, [r2], #-339	; 0x153
     4e0:	65745f31 	ldrbvs	r5, [r4, #-3889]!	; 0xf31
     4e4:	635c7473 	cmpvs	ip, #1929379840	; 0x73000000
     4e8:	7369736d 	cmnvc	r9, #-1275068415	; 0xb4000001
     4ec:	74730000 	ldrbtvc	r0, [r3], #-0
     4f0:	6632336d 	ldrtvs	r3, [r2], -sp, ror #6
     4f4:	5f783031 	svcpl	0x00783031
     4f8:	6f697067 	svcvs	0x00697067
     4fc:	0100632e 	tsteq	r0, lr, lsr #6
     500:	645f0000 	ldrbvs	r0, [pc], #-0	; 508 <g_pfnVectors-0x7fffaf8>
     504:	75616665 	strbvc	r6, [r1, #-1637]!	; 0x665
     508:	745f746c 	ldrbvc	r7, [pc], #-1132	; 510 <g_pfnVectors-0x7fffaf0>
     50c:	73657079 	cmnvc	r5, #121	; 0x79
     510:	0200682e 	andeq	r6, r0, #3014656	; 0x2e0000
     514:	74730000 	ldrbtvc	r0, [r3], #-0
     518:	746e6964 	strbtvc	r6, [lr], #-2404	; 0x964
     51c:	0300682e 	movweq	r6, #2094	; 0x82e
     520:	74730000 	ldrbtvc	r0, [r3], #-0
     524:	6632336d 	ldrtvs	r3, [r2], -sp, ror #6
     528:	2e783031 	mrccs	0, 3, r3, cr8, cr1, {1}
     52c:	00040068 	andeq	r0, r4, r8, rrx
     530:	6d747300 	ldclvs	3, cr7, [r4, #-0]
     534:	31663233 	cmncc	r6, r3, lsr r2
     538:	675f7830 	smmlarvs	pc, r0, r8, r7	; <UNPREDICTABLE>
     53c:	2e6f6970 	mcrcs	9, 3, r6, cr15, cr0, {3}
     540:	00050068 	andeq	r0, r5, r8, rrx
     544:	726f6300 	rsbvc	r6, pc, #0, 6
     548:	6d635f65 	stclvs	15, cr5, [r3, #-404]!	; 0xfffffe6c
     54c:	00682e33 	rsbeq	r2, r8, r3, lsr lr
     550:	00000006 	andeq	r0, r0, r6
     554:	00020500 	andeq	r0, r2, r0, lsl #10
     558:	03000000 	movweq	r0, #0
     55c:	4e0100ec 	cdpmi	0, 0, cr0, cr1, cr12, {7}
     560:	4c5a4b4c 	mrrcmi	11, 4, r4, sl, cr12
     564:	4b4c5a4b 	blmi	1316e98 <g_pfnVectors-0x6ce9168>
     568:	5a4b4c5a 	bpl	12d36d8 <g_pfnVectors-0x6d2c928>
     56c:	4c5a4b4c 	mrrcmi	11, 4, r4, sl, cr12
     570:	594c5c4b 	stmdbpl	ip, {r0, r1, r3, r6, sl, fp, ip, lr}^
     574:	0012025b 	andseq	r0, r2, fp, asr r2
     578:	05000101 	streq	r0, [r0, #-257]	; 0x101
     57c:	00000002 	andeq	r0, r0, r2
     580:	019f0300 	orrseq	r0, pc, r0, lsl #6
     584:	4b4b2f01 	blmi	12cc190 <g_pfnVectors-0x6d33e70>
     588:	01000102 	tsteq	r0, r2, lsl #2
     58c:	02050001 	andeq	r0, r5, #1
     590:	080002e8 	stmdaeq	r0, {r3, r5, r6, r7, r9}
     594:	0101ad03 	tsteq	r1, r3, lsl #26
     598:	59518359 	ldmdbpl	r1, {r0, r3, r4, r6, r8, r9, pc}^
     59c:	3d5a5c6b 	ldclcc	12, cr5, [sl, #-428]	; 0xfffffe54
     5a0:	4c675a3e 	stclmi	10, cr5, [r7], #-248	; 0xffffff08
     5a4:	765a593e 			; <UNDEFINED> instruction: 0x765a593e
     5a8:	034c6b4c 	movteq	r6, #52044	; 0xcb4c
     5ac:	02005869 	andeq	r5, r0, #6881280	; 0x690000
     5b0:	3c060104 	stfccs	f0, [r6], {4}
     5b4:	3c1c0306 	ldccc	3, cr0, [ip], {6}
     5b8:	3e3d4c40 	cdpcc	12, 3, cr4, cr13, cr0, {2}
     5bc:	3e4c6768 	cdpcc	7, 4, cr6, cr12, cr8, {3}
     5c0:	4c765a59 	ldclmi	10, cr5, [r6], #-356	; 0xfffffe9c
     5c4:	6b034c69 	blvs	d3770 <g_pfnVectors-0x7f2c890>
     5c8:	04020066 	streq	r0, [r2], #-102	; 0x66
     5cc:	063c0601 	ldrteq	r0, [ip], -r1, lsl #12
     5d0:	3e3c1903 	cdpcc	9, 3, cr1, cr12, cr3, {0}
     5d4:	01000502 	tsteq	r0, r2, lsl #10
     5d8:	02050001 	andeq	r0, r5, #1
     5dc:	00000000 	andeq	r0, r0, r0
     5e0:	01028a03 	tsteq	r2, r3, lsl #20
     5e4:	3d3d4b4c 	vldmdbcc	sp!, {d4-<overflow reg d41>}
     5e8:	01000502 	tsteq	r0, r2, lsl #10
     5ec:	02050001 	andeq	r0, r5, #1
     5f0:	00000000 	andeq	r0, r0, r0
     5f4:	01029903 	tsteq	r2, r3, lsl #18
     5f8:	40683467 	rsbmi	r3, r8, r7, ror #8
     5fc:	06022130 			; <UNDEFINED> instruction: 0x06022130
     600:	00010100 	andeq	r0, r1, r0, lsl #2
     604:	00000205 	andeq	r0, r0, r5, lsl #4
     608:	b1030000 	mrslt	r0, (UNDEF: 3)
     60c:	3d4e0102 	stfcce	f0, [lr, #-8]
     610:	01000602 	tsteq	r0, r2, lsl #12
     614:	02050001 	andeq	r0, r5, #1
     618:	00000000 	andeq	r0, r0, r0
     61c:	0102c003 	tsteq	r2, r3
     620:	40683367 	rsbmi	r3, r8, r7, ror #6
     624:	06022130 			; <UNDEFINED> instruction: 0x06022130
     628:	00010100 	andeq	r0, r1, r0, lsl #2
     62c:	00000205 	andeq	r0, r0, r5, lsl #4
     630:	d7030000 	strle	r0, [r3, -r0]
     634:	3d4e0102 	stfcce	f0, [lr, #-8]
     638:	01000602 	tsteq	r0, r2, lsl #12
     63c:	02050001 	andeq	r0, r5, #1
     640:	00000000 	andeq	r0, r0, r0
     644:	0102e603 	tsteq	r2, r3, lsl #12
     648:	05023d6b 	streq	r3, [r2, #-3435]	; 0xd6b
     64c:	00010100 	andeq	r0, r1, r0, lsl #2
     650:	00000205 	andeq	r0, r0, r5, lsl #4
     654:	f6030000 			; <UNDEFINED> instruction: 0xf6030000
     658:	3d6b0102 	stfcce	f0, [fp, #-8]!
     65c:	01000502 	tsteq	r0, r2, lsl #10
     660:	02050001 	andeq	r0, r5, #1
     664:	00000000 	andeq	r0, r0, r0
     668:	01038a03 	tsteq	r3, r3, lsl #20
     66c:	3e4e3e88 	cdpcc	14, 4, cr3, cr14, cr8, {4}
     670:	01000502 	tsteq	r0, r2, lsl #10
     674:	02050001 	andeq	r0, r5, #1
     678:	08000460 	stmdaeq	r0, {r5, r6, sl}
     67c:	0103a203 	tsteq	r3, r3, lsl #4
     680:	0802676b 	stmdaeq	r2, {r0, r1, r3, r5, r6, r8, r9, sl, sp, lr}
     684:	00010100 	andeq	r0, r1, r0, lsl #2
     688:	00000205 	andeq	r0, r0, r5, lsl #4
     68c:	b1030000 	mrslt	r0, (UNDEF: 3)
     690:	3d6a0103 	stfcce	f0, [sl, #-12]!
     694:	01000502 	tsteq	r0, r2, lsl #10
     698:	02050001 	andeq	r0, r5, #1
     69c:	00000000 	andeq	r0, r0, r0
     6a0:	0103c003 	tsteq	r3, r3
     6a4:	3e4c4267 	cdpcc	2, 4, cr4, cr12, cr7, {3}
     6a8:	3d3e3e3e 	ldccc	14, cr3, [lr, #-248]!	; 0xffffff08
     6ac:	01000502 	tsteq	r0, r2, lsl #10
     6b0:	02050001 	andeq	r0, r5, #1
     6b4:	00000000 	andeq	r0, r0, r0
     6b8:	0103de03 	tsteq	r3, r3, lsl #28
     6bc:	593e3375 	ldmdbpl	lr!, {r0, r2, r4, r5, r6, r8, r9, ip, sp}
     6c0:	023d4b59 	eorseq	r4, sp, #91136	; 0x16400
     6c4:	01010007 	tsteq	r1, r7
     6c8:	00020500 	andeq	r0, r2, r0, lsl #10
     6cc:	03000000 	movweq	r0, #0
     6d0:	5c0103f3 	stcpl	3, cr0, [r1], {243}	; 0xf3
     6d4:	0008023d 	andeq	r0, r8, sp, lsr r2
     6d8:	05000101 	streq	r0, [r0, #-257]	; 0x101
     6dc:	00000002 	andeq	r0, r0, r2
     6e0:	04b50300 	ldrteq	r0, [r5], #768	; 0x300
     6e4:	3e886701 	cdpcc	7, 8, cr6, cr8, cr1, {0}
     6e8:	3e593f4e 	cdpcc	15, 5, cr3, cr9, cr14, {2}
     6ec:	5a764b68 	bpl	1d93494 <g_pfnVectors-0x626cb6c>
     6f0:	9f5c5959 	svcls	0x005c5959
     6f4:	3e933e4d 	cdpcc	14, 9, cr3, cr3, cr13, {2}
     6f8:	07023e4e 	streq	r3, [r2, -lr, asr #28]
     6fc:	00010100 	andeq	r0, r1, r0, lsl #2
     700:	00000205 	andeq	r0, r0, r5, lsl #4
     704:	f1030000 			; <UNDEFINED> instruction: 0xf1030000
     708:	33750104 	cmncc	r5, #4, 2
     70c:	08130883 	ldmdaeq	r3, {r0, r1, r7, fp}
     710:	00060259 	andeq	r0, r6, r9, asr r2
     714:	05000101 	streq	r0, [r0, #-257]	; 0x101
     718:	00000002 	andeq	r0, r0, r2
     71c:	05860300 	streq	r0, [r6, #768]	; 0x300
     720:	023d4e01 	eorseq	r4, sp, #1, 28
     724:	01010007 	tsteq	r1, r7
     728:	00000450 	andeq	r0, r0, r0, asr r4
     72c:	03390002 	teqeq	r9, #2
     730:	01020000 	mrseq	r0, (UNDEF: 2)
     734:	000d0efb 	strdeq	r0, [sp], -fp
     738:	01010101 	tsteq	r1, r1, lsl #2
     73c:	01000000 	mrseq	r0, (UNDEF: 0)
     740:	43010000 	movwmi	r0, #4096	; 0x1000
     744:	73555c3a 	cmpvc	r5, #14848	; 0x3a00
     748:	5c737265 	lfmpl	f7, 2, [r3], #-404	; 0xfffffe6c
     74c:	726f7055 	rsbvc	r7, pc, #85	; 0x55
     750:	696e6261 	stmdbvs	lr!, {r0, r5, r6, r9, sp, lr}^
     754:	6f445c6b 	svcvs	0x00445c6b
     758:	656d7563 	strbvs	r7, [sp, #-1379]!	; 0x563
     75c:	5c73746e 	cfldrdpl	mvd7, [r3], #-440	; 0xfffffe48
     760:	436f6f43 	cmnmi	pc, #268	; 0x10c
     764:	535c786f 	cmppl	ip, #7274496	; 0x6f0000
     768:	32334d54 	eorscc	r4, r3, #84, 26	; 0x1500
     76c:	33303146 	teqcc	r0, #-2147483631	; 0x80000011
     770:	696c425c 	stmdbvs	ip!, {r2, r3, r4, r6, r9, lr}^
     774:	555f6b6e 	ldrbpl	r6, [pc, #-2926]	; fffffc0e <__StackTop+0xdfffac0e>
     778:	54524153 	ldrbpl	r4, [r2], #-339	; 0x153
     77c:	65745f31 	ldrbvs	r5, [r4, #-3889]!	; 0xf31
     780:	635c7473 	cmpvs	ip, #1929379840	; 0x73000000
     784:	7369736d 	cmnvc	r9, #-1275068415	; 0xb4000001
     788:	5c3a4300 	ldcpl	3, cr4, [sl], #-0
     78c:	72657355 	rsbvc	r7, r5, #1409286145	; 0x54000001
     790:	70555c73 	subsvc	r5, r5, r3, ror ip
     794:	6261726f 	rsbvs	r7, r1, #-268435450	; 0xf0000006
     798:	5c6b696e 	stclpl	9, cr6, [fp], #-440	; 0xfffffe48
     79c:	75636f44 	strbvc	r6, [r3, #-3908]!	; 0xf44
     7a0:	746e656d 	strbtvc	r6, [lr], #-1389	; 0x56d
     7a4:	6f435c73 	svcvs	0x00435c73
     7a8:	786f436f 	stmdavc	pc!, {r0, r1, r2, r3, r5, r6, r8, r9, lr}^	; <UNPREDICTABLE>
     7ac:	4d54535c 	ldclmi	3, cr5, [r4, #-368]	; 0xfffffe90
     7b0:	31463233 	cmpcc	r6, r3, lsr r2
     7b4:	425c3330 	subsmi	r3, ip, #48, 6	; 0xc0000000
     7b8:	6b6e696c 	blvs	1b9ad70 <g_pfnVectors-0x6465290>
     7bc:	4153555f 	cmpmi	r3, pc, asr r5
     7c0:	5f315452 	svcpl	0x00315452
     7c4:	74736574 	ldrbtvc	r6, [r3], #-1396	; 0x574
     7c8:	5c3a4300 	ldcpl	3, cr4, [sl], #-0
     7cc:	72657355 	rsbvc	r7, r5, #1409286145	; 0x54000001
     7d0:	70555c73 	subsvc	r5, r5, r3, ror ip
     7d4:	6261726f 	rsbvs	r7, r1, #-268435450	; 0xf0000006
     7d8:	5c6b696e 	stclpl	9, cr6, [fp], #-440	; 0xfffffe48
     7dc:	75636f44 	strbvc	r6, [r3, #-3908]!	; 0xf44
     7e0:	746e656d 	strbtvc	r6, [lr], #-1389	; 0x56d
     7e4:	6f435c73 	svcvs	0x00435c73
     7e8:	786f436f 	stmdavc	pc!, {r0, r1, r2, r3, r5, r6, r8, r9, lr}^	; <UNPREDICTABLE>
     7ec:	4d54535c 	ldclmi	3, cr5, [r4, #-368]	; 0xfffffe90
     7f0:	31463233 	cmpcc	r6, r3, lsr r2
     7f4:	425c3330 	subsmi	r3, ip, #48, 6	; 0xc0000000
     7f8:	6b6e696c 	blvs	1b9adb0 <g_pfnVectors-0x6465250>
     7fc:	4153555f 	cmpmi	r3, pc, asr r5
     800:	5f315452 	svcpl	0x00315452
     804:	74736574 	ldrbtvc	r6, [r3], #-1396	; 0x574
     808:	736d635c 	cmnvc	sp, #92, 6	; 0x70000001
     80c:	625f7369 	subsvs	r7, pc, #-1543503871	; 0xa4000001
     810:	00746f6f 	rsbseq	r6, r4, pc, ror #30
     814:	705c3a63 	subsvc	r3, ip, r3, ror #20
     818:	72676f72 	rsbvc	r6, r7, #456	; 0x1c8
     81c:	66206d61 	strtvs	r6, [r0], -r1, ror #26
     820:	73656c69 	cmnvc	r5, #26880	; 0x6900
     824:	38782820 	ldmdacc	r8!, {r5, fp, sp}^
     828:	675c2936 	smmlarvs	ip, r6, r9, r2
     82c:	7420756e 	strtvc	r7, [r0], #-1390	; 0x56e
     830:	736c6f6f 	cmnvc	ip, #444	; 0x1bc
     834:	6d726120 	ldfvse	f6, [r2, #-128]!	; 0xffffff80
     838:	626d6520 	rsbvs	r6, sp, #32, 10	; 0x8000000
     83c:	65646465 	strbvs	r6, [r4, #-1125]!	; 0x465
     840:	2e345c64 	cdpcs	12, 3, cr5, cr4, cr4, {3}
     844:	30322038 	eorscc	r2, r2, r8, lsr r0
     848:	31713431 	cmncc	r1, r1, lsr r4
     84c:	6d72615c 	ldfvse	f6, [r2, #-368]!	; 0xfffffe90
     850:	6e6f6e2d 	cdpvs	14, 6, cr6, cr15, cr13, {1}
     854:	61652d65 	cmnvs	r5, r5, ror #26
     858:	695c6962 	ldmdbvs	ip, {r1, r5, r6, r8, fp, sp, lr}^
     85c:	756c636e 	strbvc	r6, [ip, #-878]!	; 0x36e
     860:	6d5c6564 	cfldr64vs	mvdx6, [ip, #-400]	; 0xfffffe70
     864:	69686361 	stmdbvs	r8!, {r0, r5, r6, r8, r9, sp, lr}^
     868:	6300656e 	movwvs	r6, #1390	; 0x56e
     86c:	72705c3a 	rsbsvc	r5, r0, #14848	; 0x3a00
     870:	6172676f 	cmnvs	r2, pc, ror #14
     874:	6966206d 	stmdbvs	r6!, {r0, r2, r3, r5, r6, sp}^
     878:	2073656c 	rsbscs	r6, r3, ip, ror #10
     87c:	36387828 	ldrtcc	r7, [r8], -r8, lsr #16
     880:	6e675c29 	cdpvs	12, 6, cr5, cr7, cr9, {1}
     884:	6f742075 	svcvs	0x00742075
     888:	20736c6f 	rsbscs	r6, r3, pc, ror #24
     88c:	206d7261 	rsbcs	r7, sp, r1, ror #4
     890:	65626d65 	strbvs	r6, [r2, #-3429]!	; 0xd65
     894:	64656464 	strbtvs	r6, [r5], #-1124	; 0x464
     898:	382e345c 	stmdacc	lr!, {r2, r3, r4, r6, sl, ip, sp}
     89c:	31303220 	teqcc	r0, r0, lsr #4
     8a0:	5c317134 	ldfpls	f7, [r1], #-208	; 0xffffff30
     8a4:	2d6d7261 	sfmcs	f7, 2, [sp, #-388]!	; 0xfffffe7c
     8a8:	656e6f6e 	strbvs	r6, [lr, #-3950]!	; 0xf6e
     8ac:	6261652d 	rsbvs	r6, r1, #188743680	; 0xb400000
     8b0:	6e695c69 	cdpvs	12, 6, cr5, cr9, cr9, {3}
     8b4:	64756c63 	ldrbtvs	r6, [r5], #-3171	; 0xc63
     8b8:	3a430065 	bcc	10c0a54 <g_pfnVectors-0x6f3f5ac>
     8bc:	6573555c 	ldrbvs	r5, [r3, #-1372]!	; 0x55c
     8c0:	555c7372 	ldrbpl	r7, [ip, #-882]	; 0x372
     8c4:	61726f70 	cmnvs	r2, r0, ror pc
     8c8:	6b696e62 	blvs	1a5c258 <g_pfnVectors-0x65a3da8>
     8cc:	636f445c 	cmnvs	pc, #92, 8	; 0x5c000000
     8d0:	6e656d75 	mcrvs	13, 3, r6, cr5, cr5, {3}
     8d4:	435c7374 	cmpmi	ip, #116, 6	; 0xd0000001
     8d8:	6f436f6f 	svcvs	0x00436f6f
     8dc:	54535c78 	ldrbpl	r5, [r3], #-3192	; 0xc78
     8e0:	4632334d 	ldrtmi	r3, [r2], -sp, asr #6
     8e4:	5c333031 	ldcpl	0, cr3, [r3], #-196	; 0xffffff3c
     8e8:	6e696c42 	cdpvs	12, 6, cr6, cr9, cr2, {2}
     8ec:	53555f6b 	cmppl	r5, #428	; 0x1ac
     8f0:	31545241 	cmpcc	r4, r1, asr #4
     8f4:	7365745f 	cmnvc	r5, #1593835520	; 0x5f000000
     8f8:	74735c74 	ldrbtvc	r5, [r3], #-3188	; 0xc74
     8fc:	696c5f6d 	stmdbvs	ip!, {r0, r2, r3, r5, r6, r8, r9, sl, fp, ip, lr}^
     900:	6e695c62 	cdpvs	12, 6, cr5, cr9, cr2, {3}
     904:	3a630063 	bcc	18c0a98 <g_pfnVectors-0x673f568>
     908:	6f72705c 	svcvs	0x0072705c
     90c:	6d617267 	sfmvs	f7, 2, [r1, #-412]!	; 0xfffffe64
     910:	6c696620 	stclvs	6, cr6, [r9], #-128	; 0xffffff80
     914:	28207365 	stmdacs	r0!, {r0, r2, r5, r6, r8, r9, ip, sp, lr}
     918:	29363878 	ldmdbcs	r6!, {r3, r4, r5, r6, fp, ip, sp}
     91c:	756e675c 	strbvc	r6, [lr, #-1884]!	; 0x75c
     920:	6f6f7420 	svcvs	0x006f7420
     924:	6120736c 	teqvs	r0, ip, ror #6
     928:	65206d72 	strvs	r6, [r0, #-3442]!	; 0xd72
     92c:	6465626d 	strbtvs	r6, [r5], #-621	; 0x26d
     930:	5c646564 	cfstr64pl	mvdx6, [r4], #-400	; 0xfffffe70
     934:	20382e34 	eorscs	r2, r8, r4, lsr lr
     938:	34313032 	ldrtcc	r3, [r1], #-50	; 0x32
     93c:	615c3171 	cmpvs	ip, r1, ror r1
     940:	6e2d6d72 	mcrvs	13, 1, r6, cr13, cr2, {3}
     944:	2d656e6f 	stclcs	14, cr6, [r5, #-444]!	; 0xfffffe44
     948:	69626165 	stmdbvs	r2!, {r0, r2, r5, r6, r8, sp, lr}^
     94c:	636e695c 	cmnvs	lr, #92, 18	; 0x170000
     950:	6564756c 	strbvs	r7, [r4, #-1388]!	; 0x56c
     954:	7379735c 	cmnvc	r9, #92, 6	; 0x70000001
     958:	5c3a6300 	ldcpl	3, cr6, [sl], #-0
     95c:	676f7270 			; <UNDEFINED> instruction: 0x676f7270
     960:	206d6172 	rsbcs	r6, sp, r2, ror r1
     964:	656c6966 	strbvs	r6, [ip, #-2406]!	; 0x966
     968:	78282073 	stmdavc	r8!, {r0, r1, r4, r5, r6, sp}
     96c:	5c293638 	stcpl	6, cr3, [r9], #-224	; 0xffffff20
     970:	20756e67 	rsbscs	r6, r5, r7, ror #28
     974:	6c6f6f74 	stclvs	15, cr6, [pc], #-464	; 7ac <g_pfnVectors-0x7fff854>
     978:	72612073 	rsbvc	r2, r1, #115	; 0x73
     97c:	6d65206d 	stclvs	0, cr2, [r5, #-436]!	; 0xfffffe4c
     980:	64646562 	strbtvs	r6, [r4], #-1378	; 0x562
     984:	345c6465 	ldrbcc	r6, [ip], #-1125	; 0x465
     988:	3220382e 	eorcc	r3, r0, #3014656	; 0x2e0000
     98c:	71343130 	teqvc	r4, r0, lsr r1
     990:	696c5c31 	stmdbvs	ip!, {r0, r4, r5, sl, fp, ip, lr}^
     994:	63675c62 	cmnvs	r7, #25088	; 0x6200
     998:	72615c63 	rsbvc	r5, r1, #25344	; 0x6300
     99c:	6f6e2d6d 	svcvs	0x006e2d6d
     9a0:	652d656e 	strvs	r6, [sp, #-1390]!	; 0x56e
     9a4:	5c696261 	sfmpl	f6, 2, [r9], #-388	; 0xfffffe7c
     9a8:	2e382e34 	mrccs	14, 1, r2, cr8, cr4, {1}
     9ac:	6e695c33 	mcrvs	12, 3, r5, cr9, cr3, {1}
     9b0:	64756c63 	ldrbtvs	r6, [r5], #-3171	; 0xc63
     9b4:	63000065 	movwvs	r0, #101	; 0x65
     9b8:	5f65726f 	svcpl	0x0065726f
     9bc:	2e336d63 	cdpcs	13, 3, cr6, cr3, cr3, {3}
     9c0:	00010068 	andeq	r0, r1, r8, rrx
     9c4:	69616d00 	stmdbvs	r1!, {r8, sl, fp, sp, lr}^
     9c8:	00632e6e 	rsbeq	r2, r3, lr, ror #28
     9cc:	73000002 	movwvc	r0, #2
     9d0:	32336d74 	eorscc	r6, r3, #116, 26	; 0x1d00
     9d4:	78303166 	ldmdavc	r0!, {r1, r2, r5, r6, r8, ip, sp}
     9d8:	0300682e 	movweq	r6, #2094	; 0x82e
     9dc:	645f0000 	ldrbvs	r0, [pc], #-0	; 9e4 <g_pfnVectors-0x7fff61c>
     9e0:	75616665 	strbvc	r6, [r1, #-1637]!	; 0x665
     9e4:	745f746c 	ldrbvc	r7, [pc], #-1132	; 9ec <g_pfnVectors-0x7fff614>
     9e8:	73657079 	cmnvc	r5, #121	; 0x79
     9ec:	0400682e 	streq	r6, [r0], #-2094	; 0x82e
     9f0:	74730000 	ldrbtvc	r0, [r3], #-0
     9f4:	746e6964 	strbtvc	r6, [lr], #-2404	; 0x964
     9f8:	0500682e 	streq	r6, [r0, #-2094]	; 0x82e
     9fc:	74730000 	ldrbtvc	r0, [r3], #-0
     a00:	6632336d 	ldrtvs	r3, [r2], -sp, ror #6
     a04:	5f783031 	svcpl	0x00783031
     a08:	6f697067 	svcvs	0x00697067
     a0c:	0600682e 	streq	r6, [r0], -lr, lsr #16
     a10:	74730000 	ldrbtvc	r0, [r3], #-0
     a14:	6632336d 	ldrtvs	r3, [r2], -sp, ror #6
     a18:	5f783031 	svcpl	0x00783031
     a1c:	72617375 	rsbvc	r7, r1, #-738197503	; 0xd4000001
     a20:	00682e74 	rsbeq	r2, r8, r4, ror lr
     a24:	6c000006 	stcvs	0, cr0, [r0], {6}
     a28:	2e6b636f 	cdpcs	3, 6, cr6, cr11, cr15, {3}
     a2c:	00070068 	andeq	r0, r7, r8, rrx
     a30:	79745f00 	ldmdbvc	r4!, {r8, r9, sl, fp, ip, lr}^
     a34:	2e736570 	mrccs	5, 3, r6, cr3, cr0, {3}
     a38:	00070068 	andeq	r0, r7, r8, rrx
     a3c:	64747300 	ldrbtvs	r7, [r4], #-768	; 0x300
     a40:	2e666564 	cdpcs	5, 6, cr6, cr6, cr4, {3}
     a44:	00080068 	andeq	r0, r8, r8, rrx
     a48:	65657200 	strbvs	r7, [r5, #-512]!	; 0x200
     a4c:	682e746e 	stmdavs	lr!, {r1, r2, r3, r5, r6, sl, ip, sp, lr}
     a50:	00000700 	andeq	r0, r0, r0, lsl #14
     a54:	74737973 	ldrbtvc	r7, [r3], #-2419	; 0x973
     a58:	735f6d65 	cmpvc	pc, #6464	; 0x1940
     a5c:	32336d74 	eorscc	r6, r3, #116, 26	; 0x1d00
     a60:	78303166 	ldmdavc	r0!, {r1, r2, r5, r6, r8, ip, sp}
     a64:	0300682e 	movweq	r6, #2094	; 0x82e
     a68:	00000000 	andeq	r0, r0, r0
     a6c:	04880205 	streq	r0, [r8], #517	; 0x205
     a70:	ee030800 	cdp	8, 0, cr0, cr3, cr0, {0}
     a74:	4b67010a 	blmi	19c0ea4 <g_pfnVectors-0x663f15c>
     a78:	0a029fbc 	beq	a8970 <g_pfnVectors-0x7f57690>
     a7c:	00010100 	andeq	r0, r1, r0, lsl #2
     a80:	04dc0205 	ldrbeq	r0, [ip], #517	; 0x205
     a84:	ed030800 	stc	8, cr0, [r3, #-0]
     a88:	004b010b 	subeq	r0, fp, fp, lsl #2
     a8c:	06010402 	streq	r0, [r1], -r2, lsl #8
     a90:	6730064a 	ldrvs	r0, [r0, -sl, asr #12]!
     a94:	213f3d59 	teqcs	pc, r9, asr sp	; <UNPREDICTABLE>
     a98:	01000602 	tsteq	r0, r2, lsl #12
     a9c:	00020401 	andeq	r0, r2, r1, lsl #8
     aa0:	05200205 	streq	r0, [r0, #-517]!	; 0x205
     aa4:	21030800 	tstcs	r3, r0, lsl #16
     aa8:	02592f01 	subseq	r2, r9, #1, 30
     aac:	01010007 	tsteq	r1, r7
     ab0:	05000204 	streq	r0, [r0, #-516]	; 0x204
     ab4:	00053c02 	andeq	r3, r5, r2, lsl #24
     ab8:	012b0308 	teqeq	fp, r8, lsl #6
     abc:	91329230 	teqls	r2, r0, lsr r2
     ac0:	0a039291 	beq	e550c <g_pfnVectors-0x7f1aaf4>
     ac4:	4d834b3c 	vstrmi	d4, [r3, #240]	; 0xf0
     ac8:	02004b59 	andeq	r4, r0, #91136	; 0x16400
     acc:	90060104 	andls	r0, r6, r4, lsl #2
     ad0:	02040200 	andeq	r0, r4, #0, 4
     ad4:	0206c808 	andeq	ip, r6, #8, 16	; 0x80000
     ad8:	6d671422 	cfstrdvs	mvd1, [r7, #-136]!	; 0xffffff78
     adc:	01040200 	mrseq	r0, R12_usr
     ae0:	02009006 	andeq	r9, r0, #6
     ae4:	00ba0204 	adcseq	r0, sl, r4, lsl #4
     ae8:	82030402 	andhi	r0, r3, #33554432	; 0x2000000
     aec:	03040200 	movweq	r0, #16896	; 0x4200
     af0:	00672f06 	rsbeq	r2, r7, r6, lsl #30
     af4:	06010402 	streq	r0, [r1], -r2, lsl #8
     af8:	04020090 	streq	r0, [r2], #-144	; 0x90
     afc:	00e40802 	rsceq	r0, r4, r2, lsl #16
     b00:	06020402 	streq	r0, [r2], -r2, lsl #8
     b04:	02007b08 	andeq	r7, r0, #8, 22	; 0x2000
     b08:	79030204 	stmdbvc	r3, {r2, r9}
     b0c:	04020020 	streq	r0, [r2], #-32
     b10:	2006dd02 	andcs	sp, r6, r2, lsl #26
     b14:	01001902 	tsteq	r0, r2, lsl #18
     b18:	00020401 	andeq	r0, r2, r1, lsl #8
     b1c:	078c0205 	streq	r0, [ip, r5, lsl #4]
     b20:	e1030800 	tst	r3, r0, lsl #16
     b24:	51410100 	mrspl	r0, (UNDEF: 81)
     b28:	503d3d4b 	eorspl	r3, sp, fp, asr #26
     b2c:	3d3d4b5a 	vldmdbcc	sp!, {d4-<overflow reg d48>}
     b30:	033d4b4d 	teqeq	sp, #78848	; 0x13400
     b34:	2f3d4a11 	svccs	0x003d4a11
     b38:	302f2f2f 	eorcc	r2, pc, pc, lsr #30
     b3c:	0b024b5b 	bleq	938b0 <g_pfnVectors-0x7f6c750>
     b40:	04010100 	streq	r0, [r1], #-256	; 0x100
     b44:	02050002 	andeq	r0, r5, #2
     b48:	08000834 	stmdaeq	r0, {r2, r4, r5, fp}
     b4c:	0101a403 	tsteq	r1, r3, lsl #8
     b50:	0402004c 	streq	r0, [r2], #-76	; 0x4c
     b54:	06200601 	strteq	r0, [r0], -r1, lsl #12
     b58:	02216878 	eoreq	r6, r1, #120, 16	; 0x780000
     b5c:	01010007 	tsteq	r1, r7
     b60:	05000204 	streq	r0, [r0, #-516]	; 0x204
     b64:	00086802 	andeq	r6, r8, r2, lsl #16
     b68:	01af0308 			; <UNDEFINED> instruction: 0x01af0308
     b6c:	02004c01 	andeq	r4, r0, #256	; 0x100
     b70:	20060104 	andcs	r0, r6, r4, lsl #2
     b74:	024b7506 	subeq	r7, fp, #25165824	; 0x1800000
     b78:	01010006 	tsteq	r1, r6
     b7c:	0000051d 	andeq	r0, r0, sp, lsl r5
     b80:	02450002 	subeq	r0, r5, #2
     b84:	01020000 	mrseq	r0, (UNDEF: 2)
     b88:	000d0efb 	strdeq	r0, [sp], -fp
     b8c:	01010101 	tsteq	r1, r1, lsl #2
     b90:	01000000 	mrseq	r0, (UNDEF: 0)
     b94:	43010000 	movwmi	r0, #4096	; 0x1000
     b98:	73555c3a 	cmpvc	r5, #14848	; 0x3a00
     b9c:	5c737265 	lfmpl	f7, 2, [r3], #-404	; 0xfffffe6c
     ba0:	726f7055 	rsbvc	r7, pc, #85	; 0x55
     ba4:	696e6261 	stmdbvs	lr!, {r0, r5, r6, r9, sp, lr}^
     ba8:	6f445c6b 	svcvs	0x00445c6b
     bac:	656d7563 	strbvs	r7, [sp, #-1379]!	; 0x563
     bb0:	5c73746e 	cfldrdpl	mvd7, [r3], #-440	; 0xfffffe48
     bb4:	436f6f43 	cmnmi	pc, #268	; 0x10c
     bb8:	535c786f 	cmppl	ip, #7274496	; 0x6f0000
     bbc:	32334d54 	eorscc	r4, r3, #84, 26	; 0x1500
     bc0:	33303146 	teqcc	r0, #-2147483631	; 0x80000011
     bc4:	696c425c 	stmdbvs	ip!, {r2, r3, r4, r6, r9, lr}^
     bc8:	555f6b6e 	ldrbpl	r6, [pc, #-2926]	; 62 <g_pfnVectors-0x7ffff9e>
     bcc:	54524153 	ldrbpl	r4, [r2], #-339	; 0x153
     bd0:	65745f31 	ldrbvs	r5, [r4, #-3889]!	; 0xf31
     bd4:	735c7473 	cmpvc	ip, #1929379840	; 0x73000000
     bd8:	6c5f6d74 	mrrcvs	13, 7, r6, pc, cr4	; <UNPREDICTABLE>
     bdc:	735c6269 	cmpvc	ip, #-1879048186	; 0x90000006
     be0:	63006372 	movwvs	r6, #882	; 0x372
     be4:	72705c3a 	rsbsvc	r5, r0, #14848	; 0x3a00
     be8:	6172676f 	cmnvs	r2, pc, ror #14
     bec:	6966206d 	stmdbvs	r6!, {r0, r2, r3, r5, r6, sp}^
     bf0:	2073656c 	rsbscs	r6, r3, ip, ror #10
     bf4:	36387828 	ldrtcc	r7, [r8], -r8, lsr #16
     bf8:	6e675c29 	cdpvs	12, 6, cr5, cr7, cr9, {1}
     bfc:	6f742075 	svcvs	0x00742075
     c00:	20736c6f 	rsbscs	r6, r3, pc, ror #24
     c04:	206d7261 	rsbcs	r7, sp, r1, ror #4
     c08:	65626d65 	strbvs	r6, [r2, #-3429]!	; 0xd65
     c0c:	64656464 	strbtvs	r6, [r5], #-1124	; 0x464
     c10:	382e345c 	stmdacc	lr!, {r2, r3, r4, r6, sl, ip, sp}
     c14:	31303220 	teqcc	r0, r0, lsr #4
     c18:	5c317134 	ldfpls	f7, [r1], #-208	; 0xffffff30
     c1c:	2d6d7261 	sfmcs	f7, 2, [sp, #-388]!	; 0xfffffe7c
     c20:	656e6f6e 	strbvs	r6, [lr, #-3950]!	; 0xf6e
     c24:	6261652d 	rsbvs	r6, r1, #188743680	; 0xb400000
     c28:	6e695c69 	cdpvs	12, 6, cr5, cr9, cr9, {3}
     c2c:	64756c63 	ldrbtvs	r6, [r5], #-3171	; 0xc63
     c30:	616d5c65 	cmnvs	sp, r5, ror #24
     c34:	6e696863 	cdpvs	8, 6, cr6, cr9, cr3, {3}
     c38:	3a630065 	bcc	18c0dd4 <g_pfnVectors-0x673f22c>
     c3c:	6f72705c 	svcvs	0x0072705c
     c40:	6d617267 	sfmvs	f7, 2, [r1, #-412]!	; 0xfffffe64
     c44:	6c696620 	stclvs	6, cr6, [r9], #-128	; 0xffffff80
     c48:	28207365 	stmdacs	r0!, {r0, r2, r5, r6, r8, r9, ip, sp, lr}
     c4c:	29363878 	ldmdbcs	r6!, {r3, r4, r5, r6, fp, ip, sp}
     c50:	756e675c 	strbvc	r6, [lr, #-1884]!	; 0x75c
     c54:	6f6f7420 	svcvs	0x006f7420
     c58:	6120736c 	teqvs	r0, ip, ror #6
     c5c:	65206d72 	strvs	r6, [r0, #-3442]!	; 0xd72
     c60:	6465626d 	strbtvs	r6, [r5], #-621	; 0x26d
     c64:	5c646564 	cfstr64pl	mvdx6, [r4], #-400	; 0xfffffe70
     c68:	20382e34 	eorscs	r2, r8, r4, lsr lr
     c6c:	34313032 	ldrtcc	r3, [r1], #-50	; 0x32
     c70:	615c3171 	cmpvs	ip, r1, ror r1
     c74:	6e2d6d72 	mcrvs	13, 1, r6, cr13, cr2, {3}
     c78:	2d656e6f 	stclcs	14, cr6, [r5, #-444]!	; 0xfffffe44
     c7c:	69626165 	stmdbvs	r2!, {r0, r2, r5, r6, r8, sp, lr}^
     c80:	636e695c 	cmnvs	lr, #92, 18	; 0x170000
     c84:	6564756c 	strbvs	r7, [r4, #-1388]!	; 0x56c
     c88:	5c3a4300 	ldcpl	3, cr4, [sl], #-0
     c8c:	72657355 	rsbvc	r7, r5, #1409286145	; 0x54000001
     c90:	70555c73 	subsvc	r5, r5, r3, ror ip
     c94:	6261726f 	rsbvs	r7, r1, #-268435450	; 0xf0000006
     c98:	5c6b696e 	stclpl	9, cr6, [fp], #-440	; 0xfffffe48
     c9c:	75636f44 	strbvc	r6, [r3, #-3908]!	; 0xf44
     ca0:	746e656d 	strbtvc	r6, [lr], #-1389	; 0x56d
     ca4:	6f435c73 	svcvs	0x00435c73
     ca8:	786f436f 	stmdavc	pc!, {r0, r1, r2, r3, r5, r6, r8, r9, lr}^	; <UNPREDICTABLE>
     cac:	4d54535c 	ldclmi	3, cr5, [r4, #-368]	; 0xfffffe90
     cb0:	31463233 	cmpcc	r6, r3, lsr r2
     cb4:	425c3330 	subsmi	r3, ip, #48, 6	; 0xc0000000
     cb8:	6b6e696c 	blvs	1b9b270 <g_pfnVectors-0x6464d90>
     cbc:	4153555f 	cmpmi	r3, pc, asr r5
     cc0:	5f315452 	svcpl	0x00315452
     cc4:	74736574 	ldrbtvc	r6, [r3], #-1396	; 0x574
     cc8:	736d635c 	cmnvc	sp, #92, 6	; 0x70000001
     ccc:	625f7369 	subsvs	r7, pc, #-1543503871	; 0xa4000001
     cd0:	00746f6f 	rsbseq	r6, r4, pc, ror #30
     cd4:	555c3a43 	ldrbpl	r3, [ip, #-2627]	; 0xa43
     cd8:	73726573 	cmnvc	r2, #482344960	; 0x1cc00000
     cdc:	6f70555c 	svcvs	0x0070555c
     ce0:	6e626172 	mcrvs	1, 3, r6, cr2, cr2, {3}
     ce4:	445c6b69 	ldrbmi	r6, [ip], #-2921	; 0xb69
     ce8:	6d75636f 	ldclvs	3, cr6, [r5, #-444]!	; 0xfffffe44
     cec:	73746e65 	cmnvc	r4, #1616	; 0x650
     cf0:	6f6f435c 	svcvs	0x006f435c
     cf4:	5c786f43 	ldclpl	15, cr6, [r8], #-268	; 0xfffffef4
     cf8:	334d5453 	movtcc	r5, #54355	; 0xd453
     cfc:	30314632 	eorscc	r4, r1, r2, lsr r6
     d00:	6c425c33 	mcrrvs	12, 3, r5, r2, cr3
     d04:	5f6b6e69 	svcpl	0x006b6e69
     d08:	52415355 	subpl	r5, r1, #1409286145	; 0x54000001
     d0c:	745f3154 	ldrbvc	r3, [pc], #-340	; d14 <g_pfnVectors-0x7fff2ec>
     d10:	5c747365 	ldclpl	3, cr7, [r4], #-404	; 0xfffffe6c
     d14:	5f6d7473 	svcpl	0x006d7473
     d18:	5c62696c 	stclpl	9, cr6, [r2], #-432	; 0xfffffe50
     d1c:	00636e69 	rsbeq	r6, r3, r9, ror #28
     d20:	555c3a43 	ldrbpl	r3, [ip, #-2627]	; 0xa43
     d24:	73726573 	cmnvc	r2, #482344960	; 0x1cc00000
     d28:	6f70555c 	svcvs	0x0070555c
     d2c:	6e626172 	mcrvs	1, 3, r6, cr2, cr2, {3}
     d30:	445c6b69 	ldrbmi	r6, [ip], #-2921	; 0xb69
     d34:	6d75636f 	ldclvs	3, cr6, [r5, #-444]!	; 0xfffffe44
     d38:	73746e65 	cmnvc	r4, #1616	; 0x650
     d3c:	6f6f435c 	svcvs	0x006f435c
     d40:	5c786f43 	ldclpl	15, cr6, [r8], #-268	; 0xfffffef4
     d44:	334d5453 	movtcc	r5, #54355	; 0xd453
     d48:	30314632 	eorscc	r4, r1, r2, lsr r6
     d4c:	6c425c33 	mcrrvs	12, 3, r5, r2, cr3
     d50:	5f6b6e69 	svcpl	0x006b6e69
     d54:	52415355 	subpl	r5, r1, #1409286145	; 0x54000001
     d58:	745f3154 	ldrbvc	r3, [pc], #-340	; d60 <g_pfnVectors-0x7fff2a0>
     d5c:	5c747365 	ldclpl	3, cr7, [r4], #-404	; 0xfffffe6c
     d60:	69736d63 	ldmdbvs	r3!, {r0, r1, r5, r6, r8, sl, fp, sp, lr}^
     d64:	73000073 	movwvc	r0, #115	; 0x73
     d68:	32336d74 	eorscc	r6, r3, #116, 26	; 0x1d00
     d6c:	78303166 	ldmdavc	r0!, {r1, r2, r5, r6, r8, ip, sp}
     d70:	6363725f 	cmnvs	r3, #-268435451	; 0xf0000005
     d74:	0100632e 	tsteq	r0, lr, lsr #6
     d78:	645f0000 	ldrbvs	r0, [pc], #-0	; d80 <g_pfnVectors-0x7fff280>
     d7c:	75616665 	strbvc	r6, [r1, #-1637]!	; 0x665
     d80:	745f746c 	ldrbvc	r7, [pc], #-1132	; d88 <g_pfnVectors-0x7fff278>
     d84:	73657079 	cmnvc	r5, #121	; 0x79
     d88:	0200682e 	andeq	r6, r0, #3014656	; 0x2e0000
     d8c:	74730000 	ldrbtvc	r0, [r3], #-0
     d90:	746e6964 	strbtvc	r6, [lr], #-2404	; 0x964
     d94:	0300682e 	movweq	r6, #2094	; 0x82e
     d98:	74730000 	ldrbtvc	r0, [r3], #-0
     d9c:	6632336d 	ldrtvs	r3, [r2], -sp, ror #6
     da0:	2e783031 	mrccs	0, 3, r3, cr8, cr1, {1}
     da4:	00040068 	andeq	r0, r4, r8, rrx
     da8:	6d747300 	ldclvs	3, cr7, [r4, #-0]
     dac:	31663233 	cmncc	r6, r3, lsr r2
     db0:	725f7830 	subsvc	r7, pc, #48, 16	; 0x300000
     db4:	682e6363 	stmdavs	lr!, {r0, r1, r5, r6, r8, r9, sp, lr}
     db8:	00000500 	andeq	r0, r0, r0, lsl #10
     dbc:	65726f63 	ldrbvs	r6, [r2, #-3939]!	; 0xf63
     dc0:	336d635f 	cmncc	sp, #2080374785	; 0x7c000001
     dc4:	0600682e 	streq	r6, [r0], -lr, lsr #16
     dc8:	00000000 	andeq	r0, r0, r0
     dcc:	00000205 	andeq	r0, r0, r5, lsl #4
     dd0:	d9030000 	stmdble	r3, {}	; <UNPREDICTABLE>
     dd4:	6a300101 	bvs	c011e0 <g_pfnVectors-0x73fee20>
     dd8:	0369856c 	cmneq	r9, #108, 10	; 0x1b000000
     ddc:	024d6613 	subeq	r6, sp, #19922944	; 0x1300000
     de0:	01010008 	tsteq	r1, r8
     de4:	00020500 	andeq	r0, r2, r0, lsl #10
     de8:	03000000 	movweq	r0, #0
     dec:	4f01028e 	svcmi	0x0001028e
     df0:	0d036868 	stceq	8, cr6, [r3, #-416]	; 0xfffffe60
     df4:	20770374 	rsbscs	r0, r7, r4, ror r3
     df8:	25672467 	strbcs	r2, [r7, #-1127]!	; 0x467
     dfc:	01000802 	tsteq	r0, r2, lsl #16
     e00:	02050001 	andeq	r0, r5, #1
     e04:	00000000 	andeq	r0, r0, r0
     e08:	0102b003 	tsteq	r2, r3
     e0c:	002f2f3d 	eoreq	r2, pc, sp, lsr pc	; <UNPREDICTABLE>
     e10:	33010402 	movwcc	r0, #5122	; 0x1402
     e14:	01040200 	mrseq	r0, R12_usr
     e18:	04020059 	streq	r0, [r2], #-89	; 0x59
     e1c:	68763d01 	ldmdavs	r6!, {r0, r8, sl, fp, ip, sp}^
     e20:	02213040 	eoreq	r3, r1, #64	; 0x40
     e24:	01010004 	tsteq	r1, r4
     e28:	00020500 	andeq	r0, r2, r0, lsl #10
     e2c:	03000000 	movweq	r0, #0
     e30:	590102ce 	stmdbpl	r1, {r1, r2, r3, r6, r7, r9}
     e34:	5a4c3e31 	bpl	1310700 <g_pfnVectors-0x6cef900>
     e38:	0008023d 	andeq	r0, r8, sp, lsr r2
     e3c:	05000101 	streq	r0, [r0, #-257]	; 0x101
     e40:	00000002 	andeq	r0, r0, r2
     e44:	02e20300 	rsceq	r0, r2, #0, 6
     e48:	023d5b01 	eorseq	r5, sp, #1024	; 0x400
     e4c:	01010008 	tsteq	r1, r8
     e50:	00020500 	andeq	r0, r2, r0, lsl #10
     e54:	03000000 	movweq	r0, #0
     e58:	590102fa 	stmdbpl	r1, {r1, r3, r4, r5, r6, r7, r9}
     e5c:	684c3e34 	stmdavs	ip, {r2, r4, r5, r9, sl, fp, ip, sp}^
     e60:	0007023d 	andeq	r0, r7, sp, lsr r2
     e64:	05000101 	streq	r0, [r0, #-257]	; 0x101
     e68:	00000002 	andeq	r0, r0, r2
     e6c:	03910300 	orrseq	r0, r1, #0, 6
     e70:	023d5c01 	eorseq	r5, sp, #256	; 0x100
     e74:	01010008 	tsteq	r1, r8
     e78:	00020500 	andeq	r0, r2, r0, lsl #10
     e7c:	03000000 	movweq	r0, #0
     e80:	4b0104b4 	blmi	42158 <g_pfnVectors-0x7fbdea8>
     e84:	4c4c3e31 	mcrrmi	14, 3, r3, ip, cr1
     e88:	0008023d 	andeq	r0, r8, sp, lsr r2
     e8c:	05000101 	streq	r0, [r0, #-257]	; 0x101
     e90:	00000002 	andeq	r0, r0, r2
     e94:	04cb0300 	strbeq	r0, [fp], #768	; 0x300
     e98:	02672f01 	rsbeq	r2, r7, #1, 30
     e9c:	01010008 	tsteq	r1, r8
     ea0:	00020500 	andeq	r0, r2, r0, lsl #10
     ea4:	03000000 	movweq	r0, #0
     ea8:	4b0104e0 	blmi	42230 <g_pfnVectors-0x7fbddd0>
     eac:	4c4c3e31 	mcrrmi	14, 3, r3, ip, cr1
     eb0:	0008023d 	andeq	r0, r8, sp, lsr r2
     eb4:	05000101 	streq	r0, [r0, #-257]	; 0x101
     eb8:	00000002 	andeq	r0, r0, r2
     ebc:	04fa0300 	ldrbteq	r0, [sl], #768	; 0x300
     ec0:	3e314b01 	vaddcc.f64	d4, d1, d1
     ec4:	023d4c4c 	eorseq	r4, sp, #76, 24	; 0x4c00
     ec8:	01010008 	tsteq	r1, r8
     ecc:	00020500 	andeq	r0, r2, r0, lsl #10
     ed0:	03000000 	movweq	r0, #0
     ed4:	4b010594 	blmi	4252c <g_pfnVectors-0x7fbdad4>
     ed8:	5a4c3e31 	bpl	13107a4 <g_pfnVectors-0x6cef85c>
     edc:	0007023d 	andeq	r0, r7, sp, lsr r2
     ee0:	05000101 	streq	r0, [r0, #-257]	; 0x101
     ee4:	00000002 	andeq	r0, r0, r2
     ee8:	05bc0300 	ldreq	r0, [ip, #768]!	; 0x300
     eec:	953f7801 	ldrls	r7, [pc, #-2049]!	; 6f3 <g_pfnVectors-0x7fff90d>
     ef0:	000702a0 	andeq	r0, r7, r0, lsr #5
     ef4:	05000101 	streq	r0, [r0, #-257]	; 0x101
     ef8:	00000002 	andeq	r0, r0, r2
     efc:	05d80300 	ldrbeq	r0, [r8, #768]	; 0x300
     f00:	023d4e01 	eorseq	r4, sp, #1, 28
     f04:	01010007 	tsteq	r1, r7
     f08:	00020500 	andeq	r0, r2, r0, lsl #10
     f0c:	03000000 	movweq	r0, #0
     f10:	4b0105fe 	blmi	42710 <g_pfnVectors-0x7fbd8f0>
     f14:	4c4c3e31 	mcrrmi	14, 3, r3, ip, cr1
     f18:	0008023d 	andeq	r0, r8, sp, lsr r2
     f1c:	05000101 	streq	r0, [r0, #-257]	; 0x101
     f20:	00000002 	andeq	r0, r0, r2
     f24:	06bd0300 	ldrteq	r0, [sp], r0, lsl #6
     f28:	3e3e5d01 	cdpcc	13, 3, cr5, cr14, cr1, {0}
     f2c:	03580d03 	cmpeq	r8, #3, 26	; 0xc0
     f30:	243d2077 	ldrtcs	r2, [sp], #-119	; 0x77
     f34:	0702253d 	smladxeq	r2, sp, r5, r2
     f38:	00010100 	andeq	r0, r1, r0, lsl #2
     f3c:	00000205 	andeq	r0, r0, r5, lsl #4
     f40:	de030000 	cdple	0, 0, cr0, cr3, cr0, {0}
     f44:	3d5b0106 	ldfcce	f0, [fp, #-24]	; 0xffffffe8
     f48:	01000802 	tsteq	r0, r2, lsl #16
     f4c:	02050001 	andeq	r0, r5, #1
     f50:	00000000 	andeq	r0, r0, r0
     f54:	0106ef03 	tsteq	r6, r3, lsl #30
     f58:	0802674e 	stmdaeq	r2, {r1, r2, r3, r6, r8, r9, sl, sp, lr}
     f5c:	00010100 	andeq	r0, r1, r0, lsl #2
     f60:	00000205 	andeq	r0, r0, r5, lsl #4
     f64:	fd030000 	stc2	0, cr0, [r3, #-0]
     f68:	3d5b0106 	ldfcce	f0, [fp, #-24]	; 0xffffffe8
     f6c:	01000802 	tsteq	r0, r2, lsl #16
     f70:	02050001 	andeq	r0, r5, #1
     f74:	08000894 	stmdaeq	r0, {r2, r4, r7, fp}
     f78:	01078c03 	tsteq	r7, r3, lsl #24
     f7c:	820b034b 	andhi	r0, fp, #738197505	; 0x2c000001
     f80:	223d775a 	eorscs	r7, sp, #23592960	; 0x1680000
     f84:	5b59243d 	blpl	164a080 <g_pfnVectors-0x69b5f80>
     f88:	0a033e4c 	beq	d08c0 <g_pfnVectors-0x7f2f740>
     f8c:	03786874 	cmneq	r8, #116, 16	; 0x740000
     f90:	3d316629 	ldccc	6, cr6, [r1, #-164]!	; 0xffffff5c
     f94:	683d5925 	ldmdavs	sp!, {r0, r2, r5, r8, fp, ip, lr}
     f98:	683d5968 	ldmdavs	sp!, {r3, r5, r6, r8, fp, ip, lr}
     f9c:	683d5968 	ldmdavs	sp!, {r3, r5, r6, r8, fp, ip, lr}
     fa0:	683d5968 	ldmdavs	sp!, {r3, r5, r6, r8, fp, ip, lr}
     fa4:	00100275 	andseq	r0, r0, r5, ror r2
     fa8:	05000101 	streq	r0, [r0, #-257]	; 0x101
     fac:	00000002 	andeq	r0, r0, r2
     fb0:	08a80300 	stmiaeq	r8!, {r8, r9}
     fb4:	783e6b01 	ldmdavc	lr!, {r0, r8, r9, fp, sp, lr}
     fb8:	00070276 	andeq	r0, r7, r6, ror r2
     fbc:	05000101 	streq	r0, [r0, #-257]	; 0x101
     fc0:	0009f802 	andeq	pc, r9, r2, lsl #16
     fc4:	08c70308 	stmiaeq	r7, {r3, r8, r9}^
     fc8:	783e6a01 	ldmdavc	lr!, {r0, r9, fp, sp, lr}
     fcc:	00070276 	andeq	r0, r7, r6, ror r2
     fd0:	05000101 	streq	r0, [r0, #-257]	; 0x101
     fd4:	00000002 	andeq	r0, r0, r2
     fd8:	08e60300 	stmiaeq	r6!, {r8, r9}^
     fdc:	783e6a01 	ldmdavc	lr!, {r0, r9, fp, sp, lr}
     fe0:	00070276 	andeq	r0, r7, r6, ror r2
     fe4:	05000101 	streq	r0, [r0, #-257]	; 0x101
     fe8:	00000002 	andeq	r0, r0, r2
     fec:	09a10300 	stmibeq	r1!, {r8, r9}
     ff0:	783e6a01 	ldmdavc	lr!, {r0, r9, fp, sp, lr}
     ff4:	00070276 	andeq	r0, r7, r6, ror r2
     ff8:	05000101 	streq	r0, [r0, #-257]	; 0x101
     ffc:	00000002 	andeq	r0, r0, r2
    1000:	09c00300 	stmibeq	r0, {r8, r9}^
    1004:	783e6a01 	ldmdavc	lr!, {r0, r9, fp, sp, lr}
    1008:	00070276 	andeq	r0, r7, r6, ror r2
    100c:	05000101 	streq	r0, [r0, #-257]	; 0x101
    1010:	00000002 	andeq	r0, r0, r2
    1014:	09d50300 	ldmibeq	r5, {r8, r9}^
    1018:	023d5b01 	eorseq	r5, sp, #1024	; 0x400
    101c:	01010008 	tsteq	r1, r8
    1020:	00020500 	andeq	r0, r2, r0, lsl #10
    1024:	03000000 	movweq	r0, #0
    1028:	5b0109e2 	blpl	437b8 <g_pfnVectors-0x7fbc848>
    102c:	0008023d 	andeq	r0, r8, sp, lsr r2
    1030:	05000101 	streq	r0, [r0, #-257]	; 0x101
    1034:	00000002 	andeq	r0, r0, r2
    1038:	0a820300 	beq	fe081c40 <__StackTop+0xde07cc40>
    103c:	023d5d01 	eorseq	r5, sp, #1, 26	; 0x40
    1040:	01010008 	tsteq	r1, r8
    1044:	00020500 	andeq	r0, r2, r0, lsl #10
    1048:	03000000 	movweq	r0, #0
    104c:	59010aae 	stmdbpl	r1, {r1, r2, r3, r5, r7, r9, fp}
    1050:	4b332f2f 	blmi	cccd14 <g_pfnVectors-0x73332ec>
    1054:	4e3e4c3e 	mrcmi	12, 1, r4, cr14, cr14, {1}
    1058:	40844b40 	addmi	r4, r4, r0, asr #22
    105c:	08022132 	stmdaeq	r2, {r1, r4, r5, r8, sp}
    1060:	00010100 	andeq	r0, r1, r0, lsl #2
    1064:	00000205 	andeq	r0, r0, r5, lsl #4
    1068:	db030000 	blle	c1070 <g_pfnVectors-0x7f3ef90>
    106c:	6730010a 	ldrvs	r0, [r0, -sl, lsl #2]!
    1070:	01000602 	tsteq	r0, r2, lsl #12
    1074:	02050001 	andeq	r0, r5, #1
    1078:	00000000 	andeq	r0, r0, r0
    107c:	010afa03 	tsteq	sl, r3, lsl #20
    1080:	40683359 	rsbmi	r3, r8, r9, asr r3
    1084:	09022132 	stmdbeq	r2, {r1, r4, r5, r8, sp}
    1088:	00010100 	andeq	r0, r1, r0, lsl #2
    108c:	00000205 	andeq	r0, r0, r5, lsl #4
    1090:	a8030000 	stmdage	r3, {}	; <UNPREDICTABLE>
    1094:	3d5e010b 	ldfcce	f0, [lr, #-44]	; 0xffffffd4
    1098:	01000802 	tsteq	r0, r2, lsl #16
    109c:	0004fa01 	andeq	pc, r4, r1, lsl #20
    10a0:	5c000200 	sfmpl	f0, 4, [r0], {-0}
    10a4:	02000002 	andeq	r0, r0, #2
    10a8:	0d0efb01 	vstreq	d15, [lr, #-4]
    10ac:	01010100 	mrseq	r0, (UNDEF: 17)
    10b0:	00000001 	andeq	r0, r0, r1
    10b4:	01000001 	tsteq	r0, r1
    10b8:	555c3a43 	ldrbpl	r3, [ip, #-2627]	; 0xa43
    10bc:	73726573 	cmnvc	r2, #482344960	; 0x1cc00000
    10c0:	6f70555c 	svcvs	0x0070555c
    10c4:	6e626172 	mcrvs	1, 3, r6, cr2, cr2, {3}
    10c8:	445c6b69 	ldrbmi	r6, [ip], #-2921	; 0xb69
    10cc:	6d75636f 	ldclvs	3, cr6, [r5, #-444]!	; 0xfffffe44
    10d0:	73746e65 	cmnvc	r4, #1616	; 0x650
    10d4:	6f6f435c 	svcvs	0x006f435c
    10d8:	5c786f43 	ldclpl	15, cr6, [r8], #-268	; 0xfffffef4
    10dc:	334d5453 	movtcc	r5, #54355	; 0xd453
    10e0:	30314632 	eorscc	r4, r1, r2, lsr r6
    10e4:	6c425c33 	mcrrvs	12, 3, r5, r2, cr3
    10e8:	5f6b6e69 	svcpl	0x006b6e69
    10ec:	52415355 	subpl	r5, r1, #1409286145	; 0x54000001
    10f0:	745f3154 	ldrbvc	r3, [pc], #-340	; 10f8 <g_pfnVectors-0x7ffef08>
    10f4:	5c747365 	ldclpl	3, cr7, [r4], #-404	; 0xfffffe6c
    10f8:	5f6d7473 	svcpl	0x006d7473
    10fc:	5c62696c 	stclpl	9, cr6, [r2], #-432	; 0xfffffe50
    1100:	00637273 	rsbeq	r7, r3, r3, ror r2
    1104:	705c3a63 	subsvc	r3, ip, r3, ror #20
    1108:	72676f72 	rsbvc	r6, r7, #456	; 0x1c8
    110c:	66206d61 	strtvs	r6, [r0], -r1, ror #26
    1110:	73656c69 	cmnvc	r5, #26880	; 0x6900
    1114:	38782820 	ldmdacc	r8!, {r5, fp, sp}^
    1118:	675c2936 	smmlarvs	ip, r6, r9, r2
    111c:	7420756e 	strtvc	r7, [r0], #-1390	; 0x56e
    1120:	736c6f6f 	cmnvc	ip, #444	; 0x1bc
    1124:	6d726120 	ldfvse	f6, [r2, #-128]!	; 0xffffff80
    1128:	626d6520 	rsbvs	r6, sp, #32, 10	; 0x8000000
    112c:	65646465 	strbvs	r6, [r4, #-1125]!	; 0x465
    1130:	2e345c64 	cdpcs	12, 3, cr5, cr4, cr4, {3}
    1134:	30322038 	eorscc	r2, r2, r8, lsr r0
    1138:	31713431 	cmncc	r1, r1, lsr r4
    113c:	6d72615c 	ldfvse	f6, [r2, #-368]!	; 0xfffffe90
    1140:	6e6f6e2d 	cdpvs	14, 6, cr6, cr15, cr13, {1}
    1144:	61652d65 	cmnvs	r5, r5, ror #26
    1148:	695c6962 	ldmdbvs	ip, {r1, r5, r6, r8, fp, sp, lr}^
    114c:	756c636e 	strbvc	r6, [ip, #-878]!	; 0x36e
    1150:	6d5c6564 	cfldr64vs	mvdx6, [ip, #-400]	; 0xfffffe70
    1154:	69686361 	stmdbvs	r8!, {r0, r5, r6, r8, r9, sp, lr}^
    1158:	6300656e 	movwvs	r6, #1390	; 0x56e
    115c:	72705c3a 	rsbsvc	r5, r0, #14848	; 0x3a00
    1160:	6172676f 	cmnvs	r2, pc, ror #14
    1164:	6966206d 	stmdbvs	r6!, {r0, r2, r3, r5, r6, sp}^
    1168:	2073656c 	rsbscs	r6, r3, ip, ror #10
    116c:	36387828 	ldrtcc	r7, [r8], -r8, lsr #16
    1170:	6e675c29 	cdpvs	12, 6, cr5, cr7, cr9, {1}
    1174:	6f742075 	svcvs	0x00742075
    1178:	20736c6f 	rsbscs	r6, r3, pc, ror #24
    117c:	206d7261 	rsbcs	r7, sp, r1, ror #4
    1180:	65626d65 	strbvs	r6, [r2, #-3429]!	; 0xd65
    1184:	64656464 	strbtvs	r6, [r5], #-1124	; 0x464
    1188:	382e345c 	stmdacc	lr!, {r2, r3, r4, r6, sl, ip, sp}
    118c:	31303220 	teqcc	r0, r0, lsr #4
    1190:	5c317134 	ldfpls	f7, [r1], #-208	; 0xffffff30
    1194:	2d6d7261 	sfmcs	f7, 2, [sp, #-388]!	; 0xfffffe7c
    1198:	656e6f6e 	strbvs	r6, [lr, #-3950]!	; 0xf6e
    119c:	6261652d 	rsbvs	r6, r1, #188743680	; 0xb400000
    11a0:	6e695c69 	cdpvs	12, 6, cr5, cr9, cr9, {3}
    11a4:	64756c63 	ldrbtvs	r6, [r5], #-3171	; 0xc63
    11a8:	3a430065 	bcc	10c1344 <g_pfnVectors-0x6f3ecbc>
    11ac:	6573555c 	ldrbvs	r5, [r3, #-1372]!	; 0x55c
    11b0:	555c7372 	ldrbpl	r7, [ip, #-882]	; 0x372
    11b4:	61726f70 	cmnvs	r2, r0, ror pc
    11b8:	6b696e62 	blvs	1a5cb48 <g_pfnVectors-0x65a34b8>
    11bc:	636f445c 	cmnvs	pc, #92, 8	; 0x5c000000
    11c0:	6e656d75 	mcrvs	13, 3, r6, cr5, cr5, {3}
    11c4:	435c7374 	cmpmi	ip, #116, 6	; 0xd0000001
    11c8:	6f436f6f 	svcvs	0x00436f6f
    11cc:	54535c78 	ldrbpl	r5, [r3], #-3192	; 0xc78
    11d0:	4632334d 	ldrtmi	r3, [r2], -sp, asr #6
    11d4:	5c333031 	ldcpl	0, cr3, [r3], #-196	; 0xffffff3c
    11d8:	6e696c42 	cdpvs	12, 6, cr6, cr9, cr2, {2}
    11dc:	53555f6b 	cmppl	r5, #428	; 0x1ac
    11e0:	31545241 	cmpcc	r4, r1, asr #4
    11e4:	7365745f 	cmnvc	r5, #1593835520	; 0x5f000000
    11e8:	6d635c74 	stclvs	12, cr5, [r3, #-464]!	; 0xfffffe30
    11ec:	5f736973 	svcpl	0x00736973
    11f0:	746f6f62 	strbtvc	r6, [pc], #-3938	; 11f8 <g_pfnVectors-0x7ffee08>
    11f4:	5c3a4300 	ldcpl	3, cr4, [sl], #-0
    11f8:	72657355 	rsbvc	r7, r5, #1409286145	; 0x54000001
    11fc:	70555c73 	subsvc	r5, r5, r3, ror ip
    1200:	6261726f 	rsbvs	r7, r1, #-268435450	; 0xf0000006
    1204:	5c6b696e 	stclpl	9, cr6, [fp], #-440	; 0xfffffe48
    1208:	75636f44 	strbvc	r6, [r3, #-3908]!	; 0xf44
    120c:	746e656d 	strbtvc	r6, [lr], #-1389	; 0x56d
    1210:	6f435c73 	svcvs	0x00435c73
    1214:	786f436f 	stmdavc	pc!, {r0, r1, r2, r3, r5, r6, r8, r9, lr}^	; <UNPREDICTABLE>
    1218:	4d54535c 	ldclmi	3, cr5, [r4, #-368]	; 0xfffffe90
    121c:	31463233 	cmpcc	r6, r3, lsr r2
    1220:	425c3330 	subsmi	r3, ip, #48, 6	; 0xc0000000
    1224:	6b6e696c 	blvs	1b9b7dc <g_pfnVectors-0x6464824>
    1228:	4153555f 	cmpmi	r3, pc, asr r5
    122c:	5f315452 	svcpl	0x00315452
    1230:	74736574 	ldrbtvc	r6, [r3], #-1396	; 0x574
    1234:	6d74735c 	ldclvs	3, cr7, [r4, #-368]!	; 0xfffffe90
    1238:	62696c5f 	rsbvs	r6, r9, #24320	; 0x5f00
    123c:	636e695c 	cmnvs	lr, #92, 18	; 0x170000
    1240:	5c3a4300 	ldcpl	3, cr4, [sl], #-0
    1244:	72657355 	rsbvc	r7, r5, #1409286145	; 0x54000001
    1248:	70555c73 	subsvc	r5, r5, r3, ror ip
    124c:	6261726f 	rsbvs	r7, r1, #-268435450	; 0xf0000006
    1250:	5c6b696e 	stclpl	9, cr6, [fp], #-440	; 0xfffffe48
    1254:	75636f44 	strbvc	r6, [r3, #-3908]!	; 0xf44
    1258:	746e656d 	strbtvc	r6, [lr], #-1389	; 0x56d
    125c:	6f435c73 	svcvs	0x00435c73
    1260:	786f436f 	stmdavc	pc!, {r0, r1, r2, r3, r5, r6, r8, r9, lr}^	; <UNPREDICTABLE>
    1264:	4d54535c 	ldclmi	3, cr5, [r4, #-368]	; 0xfffffe90
    1268:	31463233 	cmpcc	r6, r3, lsr r2
    126c:	425c3330 	subsmi	r3, ip, #48, 6	; 0xc0000000
    1270:	6b6e696c 	blvs	1b9b828 <g_pfnVectors-0x64647d8>
    1274:	4153555f 	cmpmi	r3, pc, asr r5
    1278:	5f315452 	svcpl	0x00315452
    127c:	74736574 	ldrbtvc	r6, [r3], #-1396	; 0x574
    1280:	736d635c 	cmnvc	sp, #92, 6	; 0x70000001
    1284:	00007369 	andeq	r7, r0, r9, ror #6
    1288:	336d7473 	cmncc	sp, #1929379840	; 0x73000000
    128c:	30316632 	eorscc	r6, r1, r2, lsr r6
    1290:	73755f78 	cmnvc	r5, #120, 30	; 0x1e0
    1294:	2e747261 	cdpcs	2, 7, cr7, cr4, cr1, {3}
    1298:	00010063 	andeq	r0, r1, r3, rrx
    129c:	65645f00 	strbvs	r5, [r4, #-3840]!	; 0xf00
    12a0:	6c756166 	ldfvse	f6, [r5], #-408	; 0xfffffe68
    12a4:	79745f74 	ldmdbvc	r4!, {r2, r4, r5, r6, r8, r9, sl, fp, ip, lr}^
    12a8:	2e736570 	mrccs	5, 3, r6, cr3, cr0, {3}
    12ac:	00020068 	andeq	r0, r2, r8, rrx
    12b0:	64747300 	ldrbtvs	r7, [r4], #-768	; 0x300
    12b4:	2e746e69 	cdpcs	14, 7, cr6, cr4, cr9, {3}
    12b8:	00030068 	andeq	r0, r3, r8, rrx
    12bc:	6d747300 	ldclvs	3, cr7, [r4, #-0]
    12c0:	31663233 	cmncc	r6, r3, lsr r2
    12c4:	682e7830 	stmdavs	lr!, {r4, r5, fp, ip, sp, lr}
    12c8:	00000400 	andeq	r0, r0, r0, lsl #8
    12cc:	336d7473 	cmncc	sp, #1929379840	; 0x73000000
    12d0:	30316632 	eorscc	r6, r1, r2, lsr r6
    12d4:	73755f78 	cmnvc	r5, #120, 30	; 0x1e0
    12d8:	2e747261 	cdpcs	2, 7, cr7, cr4, cr1, {3}
    12dc:	00050068 	andeq	r0, r5, r8, rrx
    12e0:	6d747300 	ldclvs	3, cr7, [r4, #-0]
    12e4:	31663233 	cmncc	r6, r3, lsr r2
    12e8:	725f7830 	subsvc	r7, pc, #48, 16	; 0x300000
    12ec:	682e6363 	stmdavs	lr!, {r0, r1, r5, r6, r8, r9, sp, lr}
    12f0:	00000500 	andeq	r0, r0, r0, lsl #10
    12f4:	65726f63 	ldrbvs	r6, [r2, #-3939]!	; 0xf63
    12f8:	336d635f 	cmncc	sp, #2080374785	; 0x7c000001
    12fc:	0600682e 	streq	r6, [r0], -lr, lsr #16
    1300:	00000000 	andeq	r0, r0, r0
    1304:	00000205 	andeq	r0, r0, r5, lsl #4
    1308:	82030000 	andhi	r0, r3, #0
    130c:	4c4e0101 	stfmie	f0, [lr], {1}
    1310:	594c6859 	stmdbpl	ip, {r0, r3, r4, r6, fp, sp, lr}^
    1314:	68594c68 	ldmdavs	r9, {r3, r5, r6, sl, fp, lr}^
    1318:	4c6a594c 	stclmi	9, cr5, [sl], #-304	; 0xfffffed0
    131c:	0e025b59 	mcreq	11, 0, r5, cr2, cr9, {2}
    1320:	00010100 	andeq	r0, r1, r0, lsl #2
    1324:	0a340205 	beq	d01b40 <g_pfnVectors-0x72fe4c0>
    1328:	b0030800 	andlt	r0, r3, r0, lsl #16
    132c:	4b590101 	blmi	1641738 <g_pfnVectors-0x69be8c8>
    1330:	10032f2f 	andne	r2, r3, pc, lsr #30
    1334:	5b4c312e 	blpl	130d7f4 <g_pfnVectors-0x6cf280c>
    1338:	5d4c4d5b 	stclpl	13, cr4, [ip, #-364]	; 0xfffffe94
    133c:	4d5b2d67 	ldclmi	13, cr2, [fp, #-412]	; 0xfffffe64
    1340:	4e5a5b4c 	vnmlami.f64	d21, d10, d12
    1344:	32404c59 	subcc	r4, r0, #22784	; 0x5900
    1348:	77bccd77 			; <UNDEFINED> instruction: 0x77bccd77
    134c:	ccda7685 	ldclgt	6, cr7, [sl], {133}	; 0x85
    1350:	0008024b 	andeq	r0, r8, fp, asr #4
    1354:	05000101 	streq	r0, [r0, #-257]	; 0x101
    1358:	00000002 	andeq	r0, r0, r2
    135c:	02990300 	addseq	r0, r9, #0, 6
    1360:	3d4b4c01 	stclcc	12, cr4, [fp, #-4]
    1364:	3d3d3d3d 	ldccc	13, cr3, [sp, #-244]!	; 0xffffff0c
    1368:	01000502 	tsteq	r0, r2, lsl #10
    136c:	02050001 	andeq	r0, r5, #1
    1370:	00000000 	andeq	r0, r0, r0
    1374:	0102ae03 	tsteq	r2, r3, lsl #28
    1378:	2e090359 	mcrcs	3, 0, r0, cr9, cr9, {2}
    137c:	9d4b5e4c 	stclls	14, cr5, [fp, #-304]	; 0xfffffed0
    1380:	05024b3f 	streq	r4, [r2, #-2879]	; 0xb3f
    1384:	00010100 	andeq	r0, r1, r0, lsl #2
    1388:	00000205 	andeq	r0, r0, r5, lsl #4
    138c:	cd030000 	stcgt	0, cr0, [r3, #-0]
    1390:	3d4c0102 	stfcce	f0, [ip, #-8]
    1394:	023d3d3d 	eorseq	r3, sp, #3904	; 0xf40
    1398:	01010005 	tsteq	r1, r5
    139c:	a8020500 	stmdage	r2, {r8, sl}
    13a0:	0308000b 	movweq	r0, #32779	; 0x800b
    13a4:	6b0102df 	blvs	41f28 <g_pfnVectors-0x7fbe0d8>
    13a8:	0284953f 	addeq	r9, r4, #264241152	; 0xfc00000
    13ac:	01010005 	tsteq	r1, r5
    13b0:	00020500 	andeq	r0, r2, r0, lsl #10
    13b4:	03000000 	movweq	r0, #0
    13b8:	83010384 	movwhi	r0, #4996	; 0x1384
    13bc:	2e0b0367 	cdpcs	3, 0, cr0, cr11, cr7, {3}
    13c0:	5a4b5b31 	bpl	12d808c <g_pfnVectors-0x6d27f74>
    13c4:	4e3e4c3e 	mrcmi	12, 1, r4, cr14, cr14, {1}
    13c8:	76783e3e 			; <UNDEFINED> instruction: 0x76783e3e
    13cc:	01000502 	tsteq	r0, r2, lsl #10
    13d0:	02050001 	andeq	r0, r5, #1
    13d4:	00000000 	andeq	r0, r0, r0
    13d8:	0103c003 	tsteq	r3, r3
    13dc:	a0964087 	addsge	r4, r6, r7, lsl #1
    13e0:	01000502 	tsteq	r0, r2, lsl #10
    13e4:	02050001 	andeq	r0, r5, #1
    13e8:	00000000 	andeq	r0, r0, r0
    13ec:	0103dc03 	tsteq	r3, r3, lsl #24
    13f0:	0291846c 	addseq	r8, r1, #108, 8	; 0x6c000000
    13f4:	01010005 	tsteq	r1, r5
    13f8:	00020500 	andeq	r0, r2, r0, lsl #10
    13fc:	03000000 	movweq	r0, #0
    1400:	6b0103f3 	blvs	423d4 <g_pfnVectors-0x7fbdc2c>
    1404:	05028383 	streq	r8, [r2, #-899]	; 0x383
    1408:	00010100 	andeq	r0, r1, r0, lsl #2
    140c:	00000205 	andeq	r0, r0, r5, lsl #4
    1410:	86030000 	strhi	r0, [r3], -r0
    1414:	3f6b0104 	svccc	0x006b0104
    1418:	05028495 	streq	r8, [r2, #-1173]	; 0x495
    141c:	00010100 	andeq	r0, r1, r0, lsl #2
    1420:	00000205 	andeq	r0, r0, r5, lsl #4
    1424:	a3030000 	movwge	r0, #12288	; 0x3000
    1428:	836b0104 	cmnhi	fp, #4, 2
    142c:	00050283 	andeq	r0, r5, r3, lsl #5
    1430:	05000101 	streq	r0, [r0, #-257]	; 0x101
    1434:	00000002 	andeq	r0, r0, r2
    1438:	04b60300 	ldrteq	r0, [r6], #768	; 0x300
    143c:	953f6b01 	ldrls	r6, [pc, #-2817]!	; 943 <g_pfnVectors-0x7fff6bd>
    1440:	00050284 	andeq	r0, r5, r4, lsl #5
    1444:	05000101 	streq	r0, [r0, #-257]	; 0x101
    1448:	000be802 	andeq	lr, fp, r2, lsl #16
    144c:	04d00308 	ldrbeq	r0, [r0], #776	; 0x308
    1450:	02676c01 	rsbeq	r6, r7, #256	; 0x100
    1454:	01010005 	tsteq	r1, r5
    1458:	0c020500 	cfstr32eq	mvfx0, [r2], {-0}
    145c:	0308000c 	movweq	r0, #32780	; 0x800c
    1460:	4f0104e1 	svcmi	0x000104e1
    1464:	00060267 	andeq	r0, r6, r7, ror #4
    1468:	05000101 	streq	r0, [r0, #-257]	; 0x101
    146c:	00000002 	andeq	r0, r0, r2
    1470:	04f10300 	ldrbteq	r0, [r1], #768	; 0x300
    1474:	02834f01 	addeq	r4, r3, #1, 30
    1478:	01010005 	tsteq	r1, r5
    147c:	00020500 	andeq	r0, r2, r0, lsl #10
    1480:	03000000 	movweq	r0, #0
    1484:	6b010581 	blvs	42a90 <g_pfnVectors-0x7fbd570>
    1488:	0502ad76 	streq	sl, [r2, #-3446]	; 0xd76
    148c:	00010100 	andeq	r0, r1, r0, lsl #2
    1490:	00000205 	andeq	r0, r0, r5, lsl #4
    1494:	95030000 	strls	r0, [r3, #-0]
    1498:	846b0105 	strbthi	r0, [fp], #-261	; 0x105
    149c:	00050291 	muleq	r5, r1, r2
    14a0:	05000101 	streq	r0, [r0, #-257]	; 0x101
    14a4:	00000002 	andeq	r0, r0, r2
    14a8:	05a80300 	streq	r0, [r8, #768]!	; 0x300
    14ac:	953f6a01 	ldrls	r6, [pc, #-2561]!	; ab3 <g_pfnVectors-0x7fff54d>
    14b0:	00050284 	andeq	r0, r5, r4, lsl #5
    14b4:	05000101 	streq	r0, [r0, #-257]	; 0x101
    14b8:	00000002 	andeq	r0, r0, r2
    14bc:	05c10300 	strbeq	r0, [r1, #768]	; 0x300
    14c0:	953f6a01 	ldrls	r6, [pc, #-2561]!	; ac7 <g_pfnVectors-0x7fff539>
    14c4:	00050284 	andeq	r0, r5, r4, lsl #5
    14c8:	05000101 	streq	r0, [r0, #-257]	; 0x101
    14cc:	00000002 	andeq	r0, r0, r2
    14d0:	05db0300 	ldrbeq	r0, [fp, #768]	; 0x300
    14d4:	953f6b01 	ldrls	r6, [pc, #-2817]!	; 9db <g_pfnVectors-0x7fff625>
    14d8:	00050284 	andeq	r0, r5, r4, lsl #5
    14dc:	05000101 	streq	r0, [r0, #-257]	; 0x101
    14e0:	00000002 	andeq	r0, r0, r2
    14e4:	05fa0300 	ldrbeq	r0, [sl, #768]!	; 0x300
    14e8:	b13f6b01 	teqlt	pc, r1, lsl #22
    14ec:	00050284 	andeq	r0, r5, r4, lsl #5
    14f0:	05000101 	streq	r0, [r0, #-257]	; 0x101
    14f4:	00000002 	andeq	r0, r0, r2
    14f8:	06950300 	ldreq	r0, [r5], r0, lsl #6
    14fc:	953f6b01 	ldrls	r6, [pc, #-2817]!	; a03 <g_pfnVectors-0x7fff5fd>
    1500:	00050284 	andeq	r0, r5, r4, lsl #5
    1504:	05000101 	streq	r0, [r0, #-257]	; 0x101
    1508:	00000002 	andeq	r0, r0, r2
    150c:	06b20300 	ldrteq	r0, [r2], r0, lsl #6
    1510:	83836b01 	orrhi	r6, r3, #1024	; 0x400
    1514:	01000502 	tsteq	r0, r2, lsl #10
    1518:	02050001 	andeq	r0, r5, #1
    151c:	00000000 	andeq	r0, r0, r0
    1520:	0106c503 	tsteq	r6, r3, lsl #10
    1524:	84953f6b 	ldrhi	r3, [r5], #3947	; 0xf6b
    1528:	01000502 	tsteq	r0, r2, lsl #10
    152c:	02050001 	andeq	r0, r5, #1
    1530:	08000c2c 	stmdaeq	r0, {r2, r3, r5, sl, fp}
    1534:	0106ea03 	tsteq	r6, r3, lsl #20
    1538:	2e0a0367 	cdpcs	3, 0, cr0, cr10, cr7, {3}
    153c:	21304084 	teqcs	r0, r4, lsl #1
    1540:	01000602 	tsteq	r0, r2, lsl #12
    1544:	02050001 	andeq	r0, r5, #1
    1548:	00000000 	andeq	r0, r0, r0
    154c:	01079b03 	tsteq	r7, r3, lsl #22
    1550:	59660a03 	stmdbpl	r6!, {r0, r1, r9, fp}^
    1554:	01000502 	tsteq	r0, r2, lsl #10
    1558:	02050001 	andeq	r0, r5, #1
    155c:	00000000 	andeq	r0, r0, r0
    1560:	0107bc03 	tsteq	r7, r3, lsl #24
    1564:	0b036767 	bleq	db308 <g_pfnVectors-0x7f24cf8>
    1568:	5a4b5a2e 	bpl	12d7e28 <g_pfnVectors-0x6d281d8>
    156c:	783e763e 	ldmdavc	lr!, {r1, r2, r3, r4, r5, r9, sl, ip, sp, lr}
    1570:	67594b69 	ldrbvs	r4, [r9, -r9, ror #22]
    1574:	01040200 	mrseq	r0, R12_usr
    1578:	3e063c06 	cdpcc	12, 0, cr3, cr6, cr6, {0}
    157c:	02213140 	eoreq	r3, r1, #64, 2
    1580:	01010006 	tsteq	r1, r6
    1584:	00020500 	andeq	r0, r2, r0, lsl #10
    1588:	03000000 	movweq	r0, #0
    158c:	67010886 	strvs	r0, [r1, -r6, lsl #17]
    1590:	3d4a0a03 	vstrcc	s1, [sl, #-12]
    1594:	05025959 	streq	r5, [r2, #-2393]	; 0x959
    1598:	23010100 	movwcs	r0, #4352	; 0x1100
    159c:	02000003 	andeq	r0, r0, #3
    15a0:	00025200 	andeq	r5, r2, r0, lsl #4
    15a4:	fb010200 	blx	41dae <g_pfnVectors-0x7fbe252>
    15a8:	01000d0e 	tsteq	r0, lr, lsl #26
    15ac:	00010101 	andeq	r0, r1, r1, lsl #2
    15b0:	00010000 	andeq	r0, r1, r0
    15b4:	3a430100 	bcc	10c19bc <g_pfnVectors-0x6f3e644>
    15b8:	6573555c 	ldrbvs	r5, [r3, #-1372]!	; 0x55c
    15bc:	555c7372 	ldrbpl	r7, [ip, #-882]	; 0x372
    15c0:	61726f70 	cmnvs	r2, r0, ror pc
    15c4:	6b696e62 	blvs	1a5cf54 <g_pfnVectors-0x65a30ac>
    15c8:	636f445c 	cmnvs	pc, #92, 8	; 0x5c000000
    15cc:	6e656d75 	mcrvs	13, 3, r6, cr5, cr5, {3}
    15d0:	435c7374 	cmpmi	ip, #116, 6	; 0xd0000001
    15d4:	6f436f6f 	svcvs	0x00436f6f
    15d8:	54535c78 	ldrbpl	r5, [r3], #-3192	; 0xc78
    15dc:	4632334d 	ldrtmi	r3, [r2], -sp, asr #6
    15e0:	5c333031 	ldcpl	0, cr3, [r3], #-196	; 0xffffff3c
    15e4:	6e696c42 	cdpvs	12, 6, cr6, cr9, cr2, {2}
    15e8:	53555f6b 	cmppl	r5, #428	; 0x1ac
    15ec:	31545241 	cmpcc	r4, r1, asr #4
    15f0:	7365745f 	cmnvc	r5, #1593835520	; 0x5f000000
    15f4:	79735c74 	ldmdbvc	r3!, {r2, r4, r5, r6, sl, fp, ip, lr}^
    15f8:	6c616373 	stclvs	3, cr6, [r1], #-460	; 0xfffffe34
    15fc:	6300736c 	movwvs	r7, #876	; 0x36c
    1600:	72705c3a 	rsbsvc	r5, r0, #14848	; 0x3a00
    1604:	6172676f 	cmnvs	r2, pc, ror #14
    1608:	6966206d 	stmdbvs	r6!, {r0, r2, r3, r5, r6, sp}^
    160c:	2073656c 	rsbscs	r6, r3, ip, ror #10
    1610:	36387828 	ldrtcc	r7, [r8], -r8, lsr #16
    1614:	6e675c29 	cdpvs	12, 6, cr5, cr7, cr9, {1}
    1618:	6f742075 	svcvs	0x00742075
    161c:	20736c6f 	rsbscs	r6, r3, pc, ror #24
    1620:	206d7261 	rsbcs	r7, sp, r1, ror #4
    1624:	65626d65 	strbvs	r6, [r2, #-3429]!	; 0xd65
    1628:	64656464 	strbtvs	r6, [r5], #-1124	; 0x464
    162c:	382e345c 	stmdacc	lr!, {r2, r3, r4, r6, sl, ip, sp}
    1630:	31303220 	teqcc	r0, r0, lsr #4
    1634:	5c317134 	ldfpls	f7, [r1], #-208	; 0xffffff30
    1638:	2d6d7261 	sfmcs	f7, 2, [sp, #-388]!	; 0xfffffe7c
    163c:	656e6f6e 	strbvs	r6, [lr, #-3950]!	; 0xf6e
    1640:	6261652d 	rsbvs	r6, r1, #188743680	; 0xb400000
    1644:	6e695c69 	cdpvs	12, 6, cr5, cr9, cr9, {3}
    1648:	64756c63 	ldrbtvs	r6, [r5], #-3171	; 0xc63
    164c:	616d5c65 	cmnvs	sp, r5, ror #24
    1650:	6e696863 	cdpvs	8, 6, cr6, cr9, cr3, {3}
    1654:	3a630065 	bcc	18c17f0 <g_pfnVectors-0x673e810>
    1658:	6f72705c 	svcvs	0x0072705c
    165c:	6d617267 	sfmvs	f7, 2, [r1, #-412]!	; 0xfffffe64
    1660:	6c696620 	stclvs	6, cr6, [r9], #-128	; 0xffffff80
    1664:	28207365 	stmdacs	r0!, {r0, r2, r5, r6, r8, r9, ip, sp, lr}
    1668:	29363878 	ldmdbcs	r6!, {r3, r4, r5, r6, fp, ip, sp}
    166c:	756e675c 	strbvc	r6, [lr, #-1884]!	; 0x75c
    1670:	6f6f7420 	svcvs	0x006f7420
    1674:	6120736c 	teqvs	r0, ip, ror #6
    1678:	65206d72 	strvs	r6, [r0, #-3442]!	; 0xd72
    167c:	6465626d 	strbtvs	r6, [r5], #-621	; 0x26d
    1680:	5c646564 	cfstr64pl	mvdx6, [r4], #-400	; 0xfffffe70
    1684:	20382e34 	eorscs	r2, r8, r4, lsr lr
    1688:	34313032 	ldrtcc	r3, [r1], #-50	; 0x32
    168c:	615c3171 	cmpvs	ip, r1, ror r1
    1690:	6e2d6d72 	mcrvs	13, 1, r6, cr13, cr2, {3}
    1694:	2d656e6f 	stclcs	14, cr6, [r5, #-444]!	; 0xfffffe44
    1698:	69626165 	stmdbvs	r2!, {r0, r2, r5, r6, r8, sp, lr}^
    169c:	636e695c 	cmnvs	lr, #92, 18	; 0x170000
    16a0:	6564756c 	strbvs	r7, [r4, #-1388]!	; 0x56c
    16a4:	7379735c 	cmnvc	r9, #92, 6	; 0x70000001
    16a8:	5c3a6300 	ldcpl	3, cr6, [sl], #-0
    16ac:	676f7270 			; <UNDEFINED> instruction: 0x676f7270
    16b0:	206d6172 	rsbcs	r6, sp, r2, ror r1
    16b4:	656c6966 	strbvs	r6, [ip, #-2406]!	; 0x966
    16b8:	78282073 	stmdavc	r8!, {r0, r1, r4, r5, r6, sp}
    16bc:	5c293638 	stcpl	6, cr3, [r9], #-224	; 0xffffff20
    16c0:	20756e67 	rsbscs	r6, r5, r7, ror #28
    16c4:	6c6f6f74 	stclvs	15, cr6, [pc], #-464	; 14fc <g_pfnVectors-0x7ffeb04>
    16c8:	72612073 	rsbvc	r2, r1, #115	; 0x73
    16cc:	6d65206d 	stclvs	0, cr2, [r5, #-436]!	; 0xfffffe4c
    16d0:	64646562 	strbtvs	r6, [r4], #-1378	; 0x562
    16d4:	345c6465 	ldrbcc	r6, [ip], #-1125	; 0x465
    16d8:	3220382e 	eorcc	r3, r0, #3014656	; 0x2e0000
    16dc:	71343130 	teqvc	r4, r0, lsr r1
    16e0:	72615c31 	rsbvc	r5, r1, #12544	; 0x3100
    16e4:	6f6e2d6d 	svcvs	0x006e2d6d
    16e8:	652d656e 	strvs	r6, [sp, #-1390]!	; 0x56e
    16ec:	5c696261 	sfmpl	f6, 2, [r9], #-388	; 0xfffffe7c
    16f0:	6c636e69 	stclvs	14, cr6, [r3], #-420	; 0xfffffe5c
    16f4:	00656475 	rsbeq	r6, r5, r5, ror r4
    16f8:	555c3a43 	ldrbpl	r3, [ip, #-2627]	; 0xa43
    16fc:	73726573 	cmnvc	r2, #482344960	; 0x1cc00000
    1700:	6f70555c 	svcvs	0x0070555c
    1704:	6e626172 	mcrvs	1, 3, r6, cr2, cr2, {3}
    1708:	445c6b69 	ldrbmi	r6, [ip], #-2921	; 0xb69
    170c:	6d75636f 	ldclvs	3, cr6, [r5, #-444]!	; 0xfffffe44
    1710:	73746e65 	cmnvc	r4, #1616	; 0x650
    1714:	6f6f435c 	svcvs	0x006f435c
    1718:	5c786f43 	ldclpl	15, cr6, [r8], #-268	; 0xfffffef4
    171c:	334d5453 	movtcc	r5, #54355	; 0xd453
    1720:	30314632 	eorscc	r4, r1, r2, lsr r6
    1724:	6c425c33 	mcrrvs	12, 3, r5, r2, cr3
    1728:	5f6b6e69 	svcpl	0x006b6e69
    172c:	52415355 	subpl	r5, r1, #1409286145	; 0x54000001
    1730:	745f3154 	ldrbvc	r3, [pc], #-340	; 1738 <g_pfnVectors-0x7ffe8c8>
    1734:	5c747365 	ldclpl	3, cr7, [r4], #-404	; 0xfffffe6c
    1738:	69736d63 	ldmdbvs	r3!, {r0, r1, r5, r6, r8, sl, fp, sp, lr}^
    173c:	6f625f73 	svcvs	0x00625f73
    1740:	4300746f 	movwmi	r7, #1135	; 0x46f
    1744:	73555c3a 	cmpvc	r5, #14848	; 0x3a00
    1748:	5c737265 	lfmpl	f7, 2, [r3], #-404	; 0xfffffe6c
    174c:	726f7055 	rsbvc	r7, pc, #85	; 0x55
    1750:	696e6261 	stmdbvs	lr!, {r0, r5, r6, r9, sp, lr}^
    1754:	6f445c6b 	svcvs	0x00445c6b
    1758:	656d7563 	strbvs	r7, [sp, #-1379]!	; 0x563
    175c:	5c73746e 	cfldrdpl	mvd7, [r3], #-440	; 0xfffffe48
    1760:	436f6f43 	cmnmi	pc, #268	; 0x10c
    1764:	535c786f 	cmppl	ip, #7274496	; 0x6f0000
    1768:	32334d54 	eorscc	r4, r3, #84, 26	; 0x1500
    176c:	33303146 	teqcc	r0, #-2147483631	; 0x80000011
    1770:	696c425c 	stmdbvs	ip!, {r2, r3, r4, r6, r9, lr}^
    1774:	555f6b6e 	ldrbpl	r6, [pc, #-2926]	; c0e <g_pfnVectors-0x7fff3f2>
    1778:	54524153 	ldrbpl	r4, [r2], #-339	; 0x153
    177c:	65745f31 	ldrbvs	r5, [r4, #-3889]!	; 0xf31
    1780:	635c7473 	cmpvs	ip, #1929379840	; 0x73000000
    1784:	7369736d 	cmnvc	r9, #-1275068415	; 0xb4000001
    1788:	79730000 	ldmdbvc	r3!, {}^	; <UNPREDICTABLE>
    178c:	6c616373 	stclvs	3, cr6, [r1], #-460	; 0xfffffe34
    1790:	632e736c 	teqvs	lr, #108, 6	; 0xb0000001
    1794:	00000100 	andeq	r0, r0, r0, lsl #2
    1798:	6665645f 			; <UNDEFINED> instruction: 0x6665645f
    179c:	746c7561 	strbtvc	r7, [ip], #-1377	; 0x561
    17a0:	7079745f 	rsbsvc	r7, r9, pc, asr r4
    17a4:	682e7365 	stmdavs	lr!, {r0, r2, r5, r6, r8, r9, ip, sp, lr}
    17a8:	00000200 	andeq	r0, r0, r0, lsl #4
    17ac:	7079745f 	rsbsvc	r7, r9, pc, asr r4
    17b0:	682e7365 	stmdavs	lr!, {r0, r2, r5, r6, r8, r9, ip, sp, lr}
    17b4:	00000300 	andeq	r0, r0, r0, lsl #6
    17b8:	65707974 	ldrbvs	r7, [r0, #-2420]!	; 0x974
    17bc:	00682e73 	rsbeq	r2, r8, r3, ror lr
    17c0:	73000003 	movwvc	r0, #3
    17c4:	2e746174 	mrccs	1, 3, r6, cr4, cr4, {3}
    17c8:	00030068 	andeq	r0, r3, r8, rrx
    17cc:	64747300 	ldrbtvs	r7, [r4], #-768	; 0x300
    17d0:	2e746e69 	cdpcs	14, 7, cr6, cr4, cr9, {3}
    17d4:	00040068 	andeq	r0, r4, r8, rrx
    17d8:	6d747300 	ldclvs	3, cr7, [r4, #-0]
    17dc:	31663233 	cmncc	r6, r3, lsr r2
    17e0:	682e7830 	stmdavs	lr!, {r4, r5, fp, ip, sp, lr}
    17e4:	00000500 	andeq	r0, r0, r0, lsl #10
    17e8:	65726f63 	ldrbvs	r6, [r2, #-3939]!	; 0xf63
    17ec:	336d635f 	cmncc	sp, #2080374785	; 0x7c000001
    17f0:	0600682e 	streq	r6, [r0], -lr, lsr #16
    17f4:	00000000 	andeq	r0, r0, r0
    17f8:	0c640205 	sfmeq	f0, 2, [r4], #-20	; 0xffffffec
    17fc:	16030800 	strne	r0, [r3], -r0, lsl #16
    1800:	3e4b4e01 	cdpcc	14, 4, cr4, cr11, cr1, {0}
    1804:	0221683e 	eoreq	r6, r1, #4063232	; 0x3e0000
    1808:	0101000b 	tsteq	r1, fp
    180c:	00020500 	andeq	r0, r2, r0, lsl #10
    1810:	03000000 	movweq	r0, #0
    1814:	2f590126 	svccs	0x00590126
    1818:	01000602 	tsteq	r0, r2, lsl #12
    181c:	02050001 	andeq	r0, r5, #1
    1820:	08000ca4 	stmdaeq	r0, {r2, r5, r7, sl, fp}
    1824:	4b012c03 	blmi	4c838 <g_pfnVectors-0x7fb37c8>
    1828:	0006022f 	andeq	r0, r6, pc, lsr #4
    182c:	05000101 	streq	r0, [r0, #-257]	; 0x101
    1830:	000cbc02 	andeq	fp, ip, r2, lsl #24
    1834:	01320308 	teqeq	r2, r8, lsl #6
    1838:	02214b59 	eoreq	r4, r1, #91136	; 0x16400
    183c:	01010006 	tsteq	r1, r6
    1840:	dc020500 	cfstr32le	mvfx0, [r2], {-0}
    1844:	0308000c 	movweq	r0, #32780	; 0x800c
    1848:	214b0139 	cmpcs	fp, r9, lsr r1
    184c:	01000602 	tsteq	r0, r2, lsl #12
    1850:	02050001 	andeq	r0, r5, #1
    1854:	08000cf4 	stmdaeq	r0, {r2, r4, r5, r6, r7, sl, fp}
    1858:	67013f03 	strvs	r3, [r1, -r3, lsl #30]
    185c:	00060221 	andeq	r0, r6, r1, lsr #4
    1860:	05000101 	streq	r0, [r0, #-257]	; 0x101
    1864:	000d1002 	andeq	r1, sp, r2
    1868:	00c60308 	sbceq	r0, r6, r8, lsl #6
    186c:	662b0301 	strtvs	r0, [fp], -r1, lsl #6
    1870:	00832130 	addeq	r2, r3, r0, lsr r1
    1874:	3a010402 	bcc	42884 <g_pfnVectors-0x7fbd77c>
    1878:	04020078 	streq	r0, [r2], #-120	; 0x78
    187c:	063c0601 	ldrteq	r0, [ip], -r1, lsl #12
    1880:	0602213d 			; <UNDEFINED> instruction: 0x0602213d
    1884:	00010100 	andeq	r0, r1, r0, lsl #2
    1888:	0d600205 	sfmeq	f0, 2, [r0, #-20]!	; 0xffffffec
    188c:	ff030800 			; <UNDEFINED> instruction: 0xff030800
    1890:	12030100 	andne	r0, r3, #0, 2
    1894:	04020066 	streq	r0, [r2], #-102	; 0x66
    1898:	02004002 	andeq	r4, r0, #2
    189c:	00700204 	rsbseq	r0, r0, r4, lsl #4
    18a0:	06010402 	streq	r0, [r1], -r2, lsl #8
    18a4:	2151063c 	cmpcs	r1, ip, lsr r6
    18a8:	01000402 	tsteq	r0, r2, lsl #8
    18ac:	02050001 	andeq	r0, r5, #1
    18b0:	00000000 	andeq	r0, r0, r0
    18b4:	01019d03 	tsteq	r1, r3, lsl #26
    18b8:	01040200 	mrseq	r0, R12_usr
    18bc:	00010230 	andeq	r0, r1, r0, lsr r2
    18c0:	Address 0x000018c0 is out of bounds.


Disassembly of section .debug_str:

00000000 <.debug_str>:
       0:	5f434352 	svcpl	0x00434352
       4:	65707954 	ldrbvs	r7, [r0, #-2388]!	; 0x954
       8:	00666544 	rsbeq	r6, r6, r4, asr #10
       c:	20554e47 	subscs	r4, r5, r7, asr #28
      10:	2e342043 	cdpcs	0, 3, cr2, cr4, cr3, {2}
      14:	20332e38 	eorscs	r2, r3, r8, lsr lr
      18:	34313032 	ldrtcc	r3, [r1], #-50	; 0x32
      1c:	38323230 	ldmdacc	r2!, {r4, r5, r9, ip, sp}
      20:	65722820 	ldrbvs	r2, [r2, #-2080]!	; 0x820
      24:	7361656c 	cmnvc	r1, #108, 10	; 0x1b000000
      28:	5b202965 	blpl	80a5c4 <g_pfnVectors-0x77f5a3c>
      2c:	2f4d5241 	svccs	0x004d5241
      30:	65626d65 	strbvs	r6, [r2, #-3429]!	; 0xd65
      34:	64656464 	strbtvs	r6, [r5], #-1124	; 0x464
      38:	385f342d 	ldmdacc	pc, {r0, r2, r3, r5, sl, ip, sp}^	; <UNPREDICTABLE>
      3c:	6172622d 	cmnvs	r2, sp, lsr #4
      40:	2068636e 	rsbcs	r6, r8, lr, ror #6
      44:	69766572 	ldmdbvs	r6!, {r1, r4, r5, r6, r8, sl, sp, lr}^
      48:	6e6f6973 	mcrvs	9, 3, r6, cr15, cr3, {3}
      4c:	38303220 	ldmdacc	r0!, {r5, r9, ip, sp}
      50:	5d323233 	lfmpl	f3, 4, [r2, #-204]!	; 0xffffff34
      54:	70662d20 	rsbvc	r2, r6, r0, lsr #26
      58:	72706572 	rsbsvc	r6, r0, #478150656	; 0x1c800000
      5c:	7365636f 	cmnvc	r5, #-1140850687	; 0xbc000001
      60:	20646573 	rsbcs	r6, r4, r3, ror r5
      64:	70636d2d 	rsbvc	r6, r3, sp, lsr #26
      68:	6f633d75 	svcvs	0x00633d75
      6c:	78657472 	stmdavc	r5!, {r1, r4, r5, r6, sl, ip, sp, lr}^
      70:	20336d2d 	eorscs	r6, r3, sp, lsr #26
      74:	68746d2d 	ldmdavs	r4!, {r0, r2, r3, r5, r8, sl, fp, sp, lr}^
      78:	20626d75 	rsbcs	r6, r2, r5, ror sp
      7c:	2d20672d 	stccs	7, cr6, [r0, #-180]!	; 0xffffff4c
      80:	2d20304f 	stccs	0, cr3, [r0, #-316]!	; 0xfffffec4
      84:	3d647473 	cfstrdcc	mvd7, [r4, #-460]!	; 0xfffffe34
      88:	20393963 	eorscs	r3, r9, r3, ror #18
      8c:	7566662d 	strbvc	r6, [r6, #-1581]!	; 0x62d
      90:	6974636e 	ldmdbvs	r4!, {r1, r2, r3, r5, r6, r8, r9, sp, lr}^
      94:	732d6e6f 	teqvc	sp, #1776	; 0x6f0
      98:	69746365 	ldmdbvs	r4!, {r0, r2, r5, r6, r8, r9, sp, lr}^
      9c:	00736e6f 	rsbseq	r6, r3, pc, ror #28
      a0:	31425041 	cmpcc	r2, r1, asr #32
      a4:	52545352 	subspl	r5, r4, #1207959553	; 0x48000001
      a8:	7a697300 	bvc	1a5ccb0 <g_pfnVectors-0x65a3350>
      ac:	70797465 	rsbsvc	r7, r9, r5, ror #8
      b0:	44420065 	strbmi	r0, [r2], #-101	; 0x65
      b4:	5f005243 	svcpl	0x00005243
      b8:	6e69755f 	mcrvs	5, 3, r7, cr9, cr15, {2}
      bc:	5f323374 	svcpl	0x00323374
      c0:	5f5f0074 	svcpl	0x005f0074
      c4:	746e6975 	strbtvc	r6, [lr], #-2421	; 0x975
      c8:	745f3631 	ldrbvc	r3, [pc], #-1585	; d0 <g_pfnVectors-0x7ffff30>
      cc:	45534800 	ldrbmi	r4, [r3, #-2048]	; 0x800
      d0:	74617453 	strbtvc	r7, [r1], #-1107	; 0x453
      d4:	43007375 	movwmi	r7, #885	; 0x375
      d8:	44495550 	strbmi	r5, [r9], #-1360	; 0x550
      dc:	53455200 	movtpl	r5, #20992	; 0x5200
      e0:	45565245 	ldrbmi	r5, [r6, #-581]	; 0x245
      e4:	43003044 	movwmi	r3, #68	; 0x44
      e8:	00524746 	subseq	r4, r2, r6, asr #14
      ec:	31425041 	cmpcc	r2, r1, asr #32
      f0:	00524e45 	subseq	r4, r2, r5, asr #28
      f4:	726f6873 	rsbvc	r6, pc, #7536640	; 0x730000
      f8:	6e692074 	mcrvs	0, 3, r2, cr9, cr4, {3}
      fc:	43490074 	movtmi	r0, #36980	; 0x9074
     100:	4f005253 	svcmi	0x00005253
     104:	454b5450 	strbmi	r5, [fp, #-1104]	; 0x450
     108:	6c005259 	sfmvs	f5, 4, [r0], {89}	; 0x59
     10c:	20676e6f 	rsbcs	r6, r7, pc, ror #28
     110:	676e6f6c 	strbvs	r6, [lr, -ip, ror #30]!
     114:	746e6920 	strbtvc	r6, [lr], #-2336	; 0x920
     118:	41464200 	mrsmi	r4, (UNDEF: 102)
     11c:	6c700052 	ldclvs	0, cr0, [r0], #-328	; 0xfffffeb8
     120:	6c756d6c 	ldclvs	13, cr6, [r5], #-432	; 0xfffffe50
     124:	4841006c 	stmdami	r1, {r2, r3, r5, r6}^
     128:	524e4542 	subpl	r4, lr, #276824064	; 0x10800000
     12c:	42504100 	subsmi	r4, r0, #0, 2
     130:	54535232 	ldrbpl	r5, [r3], #-562	; 0x232
     134:	5f5f0052 	svcpl	0x005f0052
     138:	746e6975 	strbtvc	r6, [lr], #-2421	; 0x975
     13c:	00745f38 	rsbseq	r5, r4, r8, lsr pc
     140:	52505257 	subspl	r5, r0, #1879048197	; 0x70000005
     144:	53464300 	movtpl	r4, #25344	; 0x6300
     148:	65530052 	ldrbvs	r0, [r3, #-82]	; 0x52
     14c:	73795374 	cmnvc	r9, #116, 6	; 0xd0000001
     150:	636f6c43 	cmnvs	pc, #17152	; 0x4300
     154:	376f546b 	strbcc	r5, [pc, -fp, ror #8]!
     158:	6c700032 	ldclvs	0, cr0, [r0], #-200	; 0xffffff38
     15c:	756f736c 	strbvc	r7, [pc, #-876]!	; fffffdf8 <__StackTop+0xdfffadf8>
     160:	00656372 	rsbeq	r6, r5, r2, ror r3
     164:	69736e75 	ldmdbvs	r3!, {r0, r2, r4, r5, r6, r9, sl, fp, sp, lr}^
     168:	64656e67 	strbtvs	r6, [r5], #-3687	; 0xe67
     16c:	61686320 	cmnvs	r8, r0, lsr #6
     170:	49410072 	stmdbmi	r1, {r1, r4, r5, r6}^
     174:	00524352 	subseq	r4, r2, r2, asr r3
     178:	5f424353 	svcpl	0x00424353
     17c:	65707954 	ldrbvs	r7, [r0, #-2388]!	; 0x954
     180:	42504100 	subsmi	r4, r0, #0, 2
     184:	524e4532 	subpl	r4, lr, #209715200	; 0xc800000
     188:	61745300 	cmnvs	r4, r0, lsl #6
     18c:	70557472 	subsvc	r7, r5, r2, ror r4
     190:	6e756f43 	cdpvs	15, 7, cr6, cr5, cr3, {2}
     194:	00726574 	rsbseq	r6, r2, r4, ror r5
     198:	676e6f6c 	strbvs	r6, [lr, -ip, ror #30]!
     19c:	6e6f6c20 	cdpvs	12, 6, cr6, cr15, cr0, {1}
     1a0:	6e752067 	cdpvs	0, 7, cr2, cr5, cr7, {3}
     1a4:	6e676973 	mcrvs	9, 3, r6, cr7, cr3, {3}
     1a8:	69206465 	stmdbvs	r0!, {r0, r2, r5, r6, sl, sp, lr}
     1ac:	5300746e 	movwpl	r7, #1134	; 0x46e
     1b0:	52534348 	subspl	r4, r3, #72, 6	; 0x20000001
     1b4:	73795300 	cmnvc	r9, #0, 6
     1b8:	436d6574 	cmnmi	sp, #116, 10	; 0x1d000000
     1bc:	4365726f 	cmnmi	r5, #-268435450	; 0xf0000006
     1c0:	6b636f6c 	blvs	18dbf78 <g_pfnVectors-0x6724088>
     1c4:	61647055 	qdsubvs	r7, r5, r4
     1c8:	4d006574 	cfstr32mi	mvfx6, [r0, #-464]	; 0xfffffe30
     1cc:	5241464d 	subpl	r4, r1, #80740352	; 0x4d00000
     1d0:	73795300 	cmnvc	r9, #0, 6
     1d4:	496d6574 	stmdbmi	sp!, {r2, r4, r5, r6, r8, sl, sp, lr}^
     1d8:	0074696e 	rsbseq	r6, r4, lr, ror #18
     1dc:	726f6873 	rsbvc	r6, pc, #7536640	; 0x730000
     1e0:	6e752074 	mrcvs	0, 3, r2, cr5, cr4, {3}
     1e4:	6e676973 	mcrvs	9, 3, r6, cr7, cr3, {3}
     1e8:	69206465 	stmdbvs	r0!, {r0, r2, r5, r6, sl, sp, lr}
     1ec:	5600746e 	strpl	r7, [r0], -lr, ror #8
     1f0:	00524f54 	subseq	r4, r2, r4, asr pc
     1f4:	52415349 	subpl	r5, r1, #603979777	; 0x24000001
     1f8:	53464400 	movtpl	r4, #25600	; 0x6400
     1fc:	79530052 	ldmdbvc	r3, {r1, r4, r6}^
     200:	6d657473 	cfstrdvs	mvd7, [r5, #-460]!	; 0xfffffe34
     204:	65726f43 	ldrbvs	r6, [r2, #-3907]!	; 0xf43
     208:	636f6c43 	cmnvs	pc, #17152	; 0x4300
     20c:	4648006b 	strbmi	r0, [r8], -fp, rrx
     210:	4d005253 	sfmmi	f5, 4, [r0, #-332]	; 0xfffffeb4
     214:	0052464d 	subseq	r4, r2, sp, asr #12
     218:	53746553 	cmnpl	r4, #348127232	; 0x14c00000
     21c:	6c437379 	mcrrvs	3, 7, r7, r3, cr9
     220:	006b636f 	rsbeq	r6, fp, pc, ror #6
     224:	6e695f5f 	mcrvs	15, 3, r5, cr9, cr15, {2}
     228:	5f323374 	svcpl	0x00323374
     22c:	46410074 			; <UNDEFINED> instruction: 0x46410074
     230:	52005253 	andpl	r5, r0, #805306373	; 0x30000005
     234:	52455345 	subpl	r5, r5, #335544321	; 0x14000001
     238:	00444556 	subeq	r4, r4, r6, asr r5
     23c:	53414c46 	movtpl	r4, #7238	; 0x1c46
     240:	79545f48 	ldmdbvc	r4, {r3, r6, r8, r9, sl, fp, ip, lr}^
     244:	65446570 	strbvs	r6, [r4, #-1392]	; 0x570
     248:	54490066 	strbpl	r0, [r9], #-102	; 0x66
     24c:	78525f4d 	ldmdavc	r2, {r0, r2, r3, r6, r8, r9, sl, fp, ip, lr}^
     250:	66667542 	strbtvs	r7, [r6], -r2, asr #10
     254:	43007265 	movwmi	r7, #613	; 0x265
     258:	52434150 	subpl	r4, r3, #80, 2
     25c:	5c3a4300 	ldcpl	3, cr4, [sl], #-0
     260:	72657355 	rsbvc	r7, r5, #1409286145	; 0x54000001
     264:	70555c73 	subsvc	r5, r5, r3, ror ip
     268:	6261726f 	rsbvs	r7, r1, #-268435450	; 0xf0000006
     26c:	5c6b696e 	stclpl	9, cr6, [fp], #-440	; 0xfffffe48
     270:	75636f44 	strbvc	r6, [r3, #-3908]!	; 0xf44
     274:	746e656d 	strbtvc	r6, [lr], #-1389	; 0x56d
     278:	6f435c73 	svcvs	0x00435c73
     27c:	786f436f 	stmdavc	pc!, {r0, r1, r2, r3, r5, r6, r8, r9, lr}^	; <UNPREDICTABLE>
     280:	4d54535c 	ldclmi	3, cr5, [r4, #-368]	; 0xfffffe90
     284:	31463233 	cmpcc	r6, r3, lsr r2
     288:	425c3330 	subsmi	r3, ip, #48, 6	; 0xc0000000
     28c:	6b6e696c 	blvs	1b9a844 <g_pfnVectors-0x64657bc>
     290:	4153555f 	cmpmi	r3, pc, asr r5
     294:	5f315452 	svcpl	0x00315452
     298:	74736574 	ldrbtvc	r6, [r3], #-1396	; 0x574
     29c:	736d635c 	cmnvc	sp, #92, 6	; 0x70000001
     2a0:	625f7369 	subsvs	r7, pc, #-1543503871	; 0xa4000001
     2a4:	5c746f6f 	ldclpl	15, cr6, [r4], #-444	; 0xfffffe44
     2a8:	74737973 	ldrbtvc	r7, [r3], #-2419	; 0x973
     2ac:	735f6d65 	cmpvc	pc, #6464	; 0x1940
     2b0:	32336d74 	eorscc	r6, r3, #116, 26	; 0x1d00
     2b4:	78303166 	ldmdavc	r0!, {r1, r2, r5, r6, r8, ip, sp}
     2b8:	4400632e 	strmi	r6, [r0], #-814	; 0x32e
     2bc:	75616665 	strbvc	r6, [r1, #-1637]!	; 0x665
     2c0:	485f746c 	ldmdami	pc, {r2, r3, r5, r6, sl, ip, sp, lr}^	; <UNPREDICTABLE>
     2c4:	6c646e61 	stclvs	14, cr6, [r4], #-388	; 0xfffffe7c
     2c8:	5f007265 	svcpl	0x00007265
     2cc:	74616473 	strbtvc	r6, [r1], #-1139	; 0x473
     2d0:	75700061 	ldrbvc	r0, [r0, #-97]!	; 0x61
     2d4:	7365446c 	cmnvc	r5, #108, 8	; 0x6c000000
     2d8:	735f0074 	cmpvc	pc, #116	; 0x74
     2dc:	74616469 	strbtvc	r6, [r1], #-1129	; 0x469
     2e0:	75700061 	ldrbvc	r0, [r0, #-97]!	; 0x61
     2e4:	6372536c 	cmnvs	r2, #108, 6	; 0xb0000001
     2e8:	66654400 	strbtvs	r4, [r5], -r0, lsl #8
     2ec:	746c7561 	strbtvc	r7, [ip], #-1377	; 0x561
     2f0:	7365525f 	cmnvc	r5, #-268435451	; 0xf0000005
     2f4:	485f7465 	ldmdami	pc, {r0, r2, r5, r6, sl, ip, sp, lr}^	; <UNPREDICTABLE>
     2f8:	6c646e61 	stclvs	14, cr6, [r4], #-388	; 0xfffffe7c
     2fc:	67007265 	strvs	r7, [r0, -r5, ror #4]
     300:	6e66705f 	mcrvs	0, 3, r7, cr6, cr15, {2}
     304:	74636556 	strbtvc	r6, [r3], #-1366	; 0x556
     308:	0073726f 	rsbseq	r7, r3, pc, ror #4
     30c:	555c3a43 	ldrbpl	r3, [ip, #-2627]	; 0xa43
     310:	73726573 	cmnvc	r2, #482344960	; 0x1cc00000
     314:	6f70555c 	svcvs	0x0070555c
     318:	6e626172 	mcrvs	1, 3, r6, cr2, cr2, {3}
     31c:	445c6b69 	ldrbmi	r6, [ip], #-2921	; 0xb69
     320:	6d75636f 	ldclvs	3, cr6, [r5, #-444]!	; 0xfffffe44
     324:	73746e65 	cmnvc	r4, #1616	; 0x650
     328:	6f6f435c 	svcvs	0x006f435c
     32c:	5c786f43 	ldclpl	15, cr6, [r8], #-268	; 0xfffffef4
     330:	334d5453 	movtcc	r5, #54355	; 0xd453
     334:	30314632 	eorscc	r4, r1, r2, lsr r6
     338:	6c425c33 	mcrrvs	12, 3, r5, r2, cr3
     33c:	5f6b6e69 	svcpl	0x006b6e69
     340:	52415355 	subpl	r5, r1, #1409286145	; 0x54000001
     344:	745f3154 	ldrbvc	r3, [pc], #-340	; 34c <g_pfnVectors-0x7fffcb4>
     348:	5c747365 	ldclpl	3, cr7, [r4], #-404	; 0xfffffe6c
     34c:	69736d63 	ldmdbvs	r3!, {r0, r1, r5, r6, r8, sl, fp, sp, lr}^
     350:	6f625f73 	svcvs	0x00625f73
     354:	735c746f 	cmpvc	ip, #1862270976	; 0x6f000000
     358:	74726174 	ldrbtvc	r6, [r2], #-372	; 0x174
     35c:	735c7075 	cmpvc	ip, #117	; 0x75
     360:	74726174 	ldrbtvc	r6, [r2], #-372	; 0x174
     364:	735f7075 	cmpvc	pc, #117	; 0x75
     368:	32336d74 	eorscc	r6, r3, #116, 26	; 0x1d00
     36c:	78303166 	ldmdavc	r0!, {r1, r2, r5, r6, r8, ip, sp}
     370:	2e646d5f 	mcrcs	13, 3, r6, cr4, cr15, {2}
     374:	75700063 	ldrbvc	r0, [r0, #-99]!	; 0x63
     378:	6174536c 	cmnvs	r4, ip, ror #6
     37c:	5f006b63 	svcpl	0x00006b63
     380:	74616465 	strbtvc	r6, [r1], #-1125	; 0x465
     384:	50470061 	subpl	r0, r7, r1, rrx
     388:	545f4f49 	ldrbpl	r4, [pc], #-3913	; 390 <g_pfnVectors-0x7fffc70>
     38c:	44657079 	strbtmi	r7, [r5], #-121	; 0x79
     390:	70006665 	andvc	r6, r0, r5, ror #12
     394:	6f706e69 	svcvs	0x00706e69
     398:	50470073 	subpl	r0, r7, r3, ror r0
     39c:	505f4f49 	subspl	r4, pc, r9, asr #30
     3a0:	42006e69 	andmi	r6, r0, #1680	; 0x690
     3a4:	535f7469 	cmppl	pc, #1761607680	; 0x69000000
     3a8:	47005445 	strmi	r5, [r0, -r5, asr #8]
     3ac:	5f4f4950 	svcpl	0x004f4950
     3b0:	64616552 	strbtvs	r6, [r1], #-1362	; 0x552
     3b4:	7074754f 	rsbsvc	r7, r4, pc, asr #10
     3b8:	61447475 	hvcvs	18245	; 0x4745
     3bc:	47006174 	smlsdxmi	r0, r4, r1, r6
     3c0:	5f4f4950 	svcpl	0x004f4950
     3c4:	65646f4d 	strbvs	r6, [r4, #-3917]!	; 0xf4d
     3c8:	5f46415f 	svcpl	0x0046415f
     3cc:	47005050 	smlsdmi	r0, r0, r0, r5
     3d0:	5f4f4950 	svcpl	0x004f4950
     3d4:	6e657645 	cdpvs	6, 6, cr7, cr5, cr5, {2}
     3d8:	74754f74 	ldrbtvc	r4, [r5], #-3956	; 0xf74
     3dc:	43747570 	cmnmi	r4, #112, 10	; 0x1c000000
     3e0:	4700646d 	strmi	r6, [r0, -sp, ror #8]
     3e4:	5f4f4950 	svcpl	0x004f4950
     3e8:	75727453 	ldrbvc	r7, [r2, #-1107]!	; 0x453
     3ec:	6e497463 	cdpvs	4, 4, cr7, cr9, cr3, {3}
     3f0:	43007469 	movwmi	r7, #1129	; 0x469
     3f4:	73555c3a 	cmpvc	r5, #14848	; 0x3a00
     3f8:	5c737265 	lfmpl	f7, 2, [r3], #-404	; 0xfffffe6c
     3fc:	726f7055 	rsbvc	r7, pc, #85	; 0x55
     400:	696e6261 	stmdbvs	lr!, {r0, r5, r6, r9, sp, lr}^
     404:	6f445c6b 	svcvs	0x00445c6b
     408:	656d7563 	strbvs	r7, [sp, #-1379]!	; 0x563
     40c:	5c73746e 	cfldrdpl	mvd7, [r3], #-440	; 0xfffffe48
     410:	436f6f43 	cmnmi	pc, #268	; 0x10c
     414:	535c786f 	cmppl	ip, #7274496	; 0x6f0000
     418:	32334d54 	eorscc	r4, r3, #84, 26	; 0x1500
     41c:	33303146 	teqcc	r0, #-2147483631	; 0x80000011
     420:	696c425c 	stmdbvs	ip!, {r2, r3, r4, r6, r9, lr}^
     424:	555f6b6e 	ldrbpl	r6, [pc, #-2926]	; fffff8be <__StackTop+0xdfffa8be>
     428:	54524153 	ldrbpl	r4, [r2], #-339	; 0x153
     42c:	65745f31 	ldrbvs	r5, [r4, #-3889]!	; 0xf31
     430:	735c7473 	cmpvc	ip, #1929379840	; 0x73000000
     434:	6c5f6d74 	mrrcvs	13, 7, r6, pc, cr4	; <UNPREDICTABLE>
     438:	735c6269 	cmpvc	ip, #-1879048186	; 0x90000006
     43c:	735c6372 	cmpvc	ip, #-939524095	; 0xc8000001
     440:	32336d74 	eorscc	r6, r3, #116, 26	; 0x1d00
     444:	78303166 	ldmdavc	r0!, {r1, r2, r5, r6, r8, ip, sp}
     448:	6970675f 	ldmdbvs	r0!, {r0, r1, r2, r3, r4, r6, r8, r9, sl, sp, lr}^
     44c:	00632e6f 	rsbeq	r2, r3, pc, ror #28
     450:	56746942 	ldrbtpl	r6, [r4], -r2, asr #18
     454:	42006c61 	andmi	r6, r0, #24832	; 0x6100
     458:	525f7469 	subspl	r7, pc, #1761607680	; 0x69000000
     45c:	54455345 	strbpl	r5, [r5], #-837	; 0x345
     460:	49504700 	ldmdbmi	r0, {r8, r9, sl, lr}^
     464:	72575f4f 	subsvc	r5, r7, #316	; 0x13c
     468:	42657469 	rsbmi	r7, r5, #1761607680	; 0x69000000
     46c:	47007469 	strmi	r7, [r0, -r9, ror #8]
     470:	5f4f4950 	svcpl	0x004f4950
     474:	5f485445 	svcpl	0x00485445
     478:	6964654d 	stmdbvs	r4!, {r0, r2, r3, r6, r8, sl, sp, lr}^
     47c:	746e4961 	strbtvc	r4, [lr], #-2401	; 0x961
     480:	61667265 	cmnvs	r6, r5, ror #4
     484:	47006563 	strmi	r6, [r0, -r3, ror #10]
     488:	5f4f4950 	svcpl	0x004f4950
     48c:	42746553 	rsbsmi	r6, r4, #348127232	; 0x14c00000
     490:	00737469 	rsbseq	r7, r3, r9, ror #8
     494:	42414e45 	submi	r4, r1, #1104	; 0x450
     498:	4700454c 	strmi	r4, [r0, -ip, asr #10]
     49c:	5f4f4950 	svcpl	0x004f4950
     4a0:	65657053 	strbvs	r7, [r5, #-83]!	; 0x53
     4a4:	50470064 	subpl	r0, r7, r4, rrx
     4a8:	495f4f49 	ldmdbmi	pc, {r0, r3, r6, r8, r9, sl, fp, lr}^	; <UNPREDICTABLE>
     4ac:	0074696e 	rsbseq	r6, r4, lr, ror #18
     4b0:	49545845 	ldmdbmi	r4, {r0, r2, r6, fp, ip, lr}^
     4b4:	4e005243 	cdpmi	2, 0, cr5, cr0, cr3, {2}
     4b8:	74537765 	ldrbvc	r7, [r3], #-1893	; 0x765
     4bc:	00657461 	rsbeq	r7, r5, r1, ror #8
     4c0:	6d6e6970 	stclvs	9, cr6, [lr, #-448]!	; 0xfffffe40
     4c4:	006b7361 	rsbeq	r7, fp, r1, ror #6
     4c8:	41534944 	cmpmi	r3, r4, asr #18
     4cc:	00454c42 	subeq	r4, r5, r2, asr #24
     4d0:	4f495047 	svcmi	0x00495047
     4d4:	726f505f 	rsbvc	r5, pc, #95	; 0x5f
     4d8:	756f5374 	strbvc	r5, [pc, #-884]!	; 16c <g_pfnVectors-0x7fffe94>
     4dc:	00656372 	rsbeq	r6, r5, r2, ror r3
     4e0:	4f495047 	svcmi	0x00495047
     4e4:	4965445f 	stmdbmi	r5!, {r0, r1, r2, r3, r4, r6, sl, lr}^
     4e8:	0074696e 	rsbseq	r6, r4, lr, ror #18
     4ec:	4f495047 	svcmi	0x00495047
     4f0:	6576455f 	ldrbvs	r4, [r6, #-1375]!	; 0x55f
     4f4:	754f746e 	strbvc	r7, [pc, #-1134]	; 8e <g_pfnVectors-0x7ffff72>
     4f8:	74757074 	ldrbtvc	r7, [r5], #-116	; 0x74
     4fc:	666e6f43 	strbtvs	r6, [lr], -r3, asr #30
     500:	42006769 	andmi	r6, r0, #27525120	; 0x1a40000
     504:	00525253 	subseq	r5, r2, r3, asr r2
     508:	4f495047 	svcmi	0x00495047
     50c:	6165525f 	cmnvs	r5, pc, asr r2
     510:	706e4964 	rsbvc	r4, lr, r4, ror #18
     514:	61447475 	hvcvs	18245	; 0x4745
     518:	69426174 	stmdbvs	r2, {r2, r4, r5, r6, r8, sp, lr}^
     51c:	50470074 	subpl	r0, r7, r4, ror r0
     520:	535f4f49 	cmppl	pc, #292	; 0x124
     524:	64656570 	strbtvs	r6, [r5], #-1392	; 0x570
     528:	4d30315f 	ldfmis	f3, [r0, #-380]!	; 0xfffffe84
     52c:	74007a48 	strvc	r7, [r0], #-2632	; 0xa48
     530:	6572706d 	ldrbvs	r7, [r2, #-109]!	; 0x6d
     534:	69620067 	stmdbvs	r2!, {r0, r1, r2, r5, r6}^
     538:	61747374 	cmnvs	r4, r4, ror r3
     53c:	00737574 	rsbseq	r7, r3, r4, ror r5
     540:	4f495047 	svcmi	0x00495047
     544:	646f4d5f 	strbtvs	r4, [pc], #-3423	; 54c <g_pfnVectors-0x7fffab4>
     548:	754f5f65 	strbvc	r5, [pc, #-3941]	; fffff5eb <__StackTop+0xdfffa5eb>
     54c:	444f5f74 	strbmi	r5, [pc], #-3956	; 554 <g_pfnVectors-0x7fffaac>
     550:	49504700 	ldmdbmi	r0, {r8, r9, sl, lr}^
     554:	58455f4f 	stmdapl	r5, {r0, r1, r2, r3, r6, r8, r9, sl, fp, ip, lr}^
     558:	694c4954 	stmdbvs	ip, {r2, r4, r6, r8, fp, lr}^
     55c:	6f43656e 	svcvs	0x0043656e
     560:	6769666e 	strbvs	r6, [r9, -lr, ror #12]!
     564:	49504700 	ldmdbmi	r0, {r8, r9, sl, lr}^
     568:	70535f4f 	subsvc	r5, r3, pc, asr #30
     56c:	5f646565 	svcpl	0x00646565
     570:	7a484d32 	bvc	1213a40 <g_pfnVectors-0x6dec5c0>
     574:	49504700 	ldmdbmi	r0, {r8, r9, sl, lr}^
     578:	6e495f4f 	cdpvs	15, 4, cr5, cr9, cr15, {2}
     57c:	79547469 	ldmdbvc	r4, {r0, r3, r5, r6, sl, ip, sp, lr}^
     580:	65446570 	strbvs	r6, [r4, #-1392]	; 0x570
     584:	6f500066 	svcvs	0x00500066
     588:	61567472 	cmpvs	r6, r2, ror r4
     58c:	7563006c 	strbvc	r0, [r3, #-108]!	; 0x6c
     590:	6e657272 	mcrvs	2, 3, r7, cr5, cr2, {3}
     594:	646f6d74 	strbtvs	r6, [pc], #-3444	; 59c <g_pfnVectors-0x7fffa64>
     598:	50470065 	subpl	r0, r7, r5, rrx
     59c:	505f4f49 	subspl	r4, pc, r9, asr #30
     5a0:	65526e69 	ldrbvs	r6, [r2, #-3689]	; 0xe69
     5a4:	4370616d 	cmnmi	r0, #1073741851	; 0x4000001b
     5a8:	69666e6f 	stmdbvs	r6!, {r0, r1, r2, r3, r5, r6, r9, sl, fp, sp, lr}^
     5ac:	434c0067 	movtmi	r0, #49255	; 0xc067
     5b0:	4700524b 	strmi	r5, [r0, -fp, asr #4]
     5b4:	5f4f4950 	svcpl	0x004f4950
     5b8:	536e6950 	cmnpl	lr, #80, 18	; 0x140000
     5bc:	6372756f 	cmnvs	r2, #465567744	; 0x1bc00000
     5c0:	50470065 	subpl	r0, r7, r5, rrx
     5c4:	525f4f49 	subspl	r4, pc, #292	; 0x124
     5c8:	49646165 	stmdbmi	r4!, {r0, r2, r5, r6, r8, sp, lr}^
     5cc:	7475706e 	ldrbtvc	r7, [r5], #-110	; 0x6e
     5d0:	61746144 	cmnvs	r4, r4, asr #2
     5d4:	706d7400 	rsbvc	r7, sp, r0, lsl #8
     5d8:	6b73616d 	blvs	1cd8b94 <g_pfnVectors-0x632746c>
     5dc:	49504700 	ldmdbmi	r0, {r8, r9, sl, lr}^
     5e0:	6f4d5f4f 	svcvs	0x004d5f4f
     5e4:	495f6564 	ldmdbmi	pc, {r2, r5, r6, r8, sl, sp, lr}^	; <UNPREDICTABLE>
     5e8:	47004450 	smlsdmi	r0, r0, r4, r4
     5ec:	5f4f4950 	svcpl	0x004f4950
     5f0:	65657053 	strbvs	r7, [r5, #-83]!	; 0x53
     5f4:	30355f64 	eorscc	r5, r5, r4, ror #30
     5f8:	007a484d 	rsbseq	r4, sl, sp, asr #16
     5fc:	4f495047 	svcmi	0x00495047
     600:	6e69505f 	mcrvs	0, 3, r5, cr9, cr15, {2}
     604:	6b636f4c 	blvs	18dc33c <g_pfnVectors-0x6723cc4>
     608:	666e6f43 	strbtvs	r6, [lr], -r3, asr #30
     60c:	63006769 	movwvs	r6, #1897	; 0x769
     610:	65727275 	ldrbvs	r7, [r2, #-629]!	; 0x275
     614:	6970746e 	ldmdbvs	r0!, {r1, r2, r3, r5, r6, sl, ip, sp, lr}^
     618:	5047006e 	subpl	r0, r7, lr, rrx
     61c:	575f4f49 	ldrbpl	r4, [pc, -r9, asr #30]
     620:	65746972 	ldrbvs	r6, [r4, #-2418]!	; 0x972
     624:	49504700 	ldmdbmi	r0, {r8, r9, sl, lr}^
     628:	6f4d5f4f 	svcvs	0x004d5f4f
     62c:	495f6564 	ldmdbmi	pc, {r2, r5, r6, r8, sl, sp, lr}^	; <UNPREDICTABLE>
     630:	74005550 	strvc	r5, [r0], #-1360	; 0x550
     634:	0031706d 	eorseq	r7, r1, sp, rrx
     638:	5250414d 	subspl	r4, r0, #1073741843	; 0x40000013
     63c:	50470032 	subpl	r0, r7, r2, lsr r0
     640:	4d5f4f49 	ldclmi	15, cr4, [pc, #-292]	; 524 <g_pfnVectors-0x7fffadc>
     644:	5f65646f 	svcpl	0x0065646f
     648:	004e4941 	subeq	r4, lr, r1, asr #18
     64c:	4f495047 	svcmi	0x00495047
     650:	6d65525f 	sfmvs	f5, 2, [r5, #-380]!	; 0xfffffe84
     654:	47007061 	strmi	r7, [r0, -r1, rrx]
     658:	5f4f4950 	svcpl	0x004f4950
     65c:	65646f4d 	strbvs	r6, [r4, #-3917]!	; 0xf4d
     660:	49464100 	stmdbmi	r6, {r8, lr}^
     664:	79545f4f 	ldmdbvc	r4, {r0, r1, r2, r3, r6, r8, r9, sl, fp, ip, lr}^
     668:	65446570 	strbvs	r6, [r4, #-1392]	; 0x570
     66c:	69420066 	stmdbvs	r2, {r1, r2, r5, r6}^
     670:	74634174 	strbtvc	r4, [r3], #-372	; 0x174
     674:	006e6f69 	rsbeq	r6, lr, r9, ror #30
     678:	4f495047 	svcmi	0x00495047
     67c:	65657053 	strbvs	r7, [r5, #-83]!	; 0x53
     680:	79545f64 	ldmdbvc	r4, {r2, r5, r6, r8, r9, sl, fp, ip, lr}^
     684:	65446570 	strbvs	r6, [r4, #-1392]	; 0x570
     688:	75460066 	strbvc	r0, [r6, #-102]	; 0x66
     68c:	6974636e 	ldmdbvs	r4!, {r1, r2, r3, r5, r6, r8, r9, sp, lr}^
     690:	6c616e6f 	stclvs	14, cr6, [r1], #-444	; 0xfffffe44
     694:	74617453 	strbtvc	r7, [r1], #-1107	; 0x453
     698:	414d0065 	cmpmi	sp, r5, rrx
     69c:	47005250 	smlsdmi	r0, r0, r2, r5
     6a0:	784f4950 	stmdavc	pc, {r4, r6, r8, fp, lr}^	; <UNPREDICTABLE>
     6a4:	49504700 	ldmdbmi	r0, {r8, r9, sl, lr}^
     6a8:	6e495f4f 	cdpvs	15, 4, cr5, cr9, cr15, {2}
     6ac:	74537469 	ldrbvc	r7, [r3], #-1129	; 0x469
     6b0:	74637572 	strbtvc	r7, [r3], #-1394	; 0x572
     6b4:	49504700 	ldmdbmi	r0, {r8, r9, sl, lr}^
     6b8:	6f4d5f4f 	svcvs	0x004d5f4f
     6bc:	4f5f6564 	svcmi	0x005f6564
     6c0:	505f7475 	subspl	r7, pc, r5, ror r4	; <UNPREDICTABLE>
     6c4:	56450050 			; <UNDEFINED> instruction: 0x56450050
     6c8:	47005243 	strmi	r5, [r0, -r3, asr #4]
     6cc:	5f4f4950 	svcpl	0x004f4950
     6d0:	67676f54 			; <UNDEFINED> instruction: 0x67676f54
     6d4:	6942656c 	stmdbvs	r2, {r2, r3, r5, r6, r8, sl, sp, lr}^
     6d8:	50470074 	subpl	r0, r7, r4, ror r0
     6dc:	6f4d4f49 	svcvs	0x004d4f49
     6e0:	545f6564 	ldrbpl	r6, [pc], #-1380	; 6e8 <g_pfnVectors-0x7fff918>
     6e4:	44657079 	strbtmi	r7, [r5], #-121	; 0x79
     6e8:	47006665 	strmi	r6, [r0, -r5, ror #12]
     6ec:	5f4f4950 	svcpl	0x004f4950
     6f0:	65736552 	ldrbvs	r6, [r3, #-1362]!	; 0x552
     6f4:	74694274 	strbtvc	r4, [r9], #-628	; 0x274
     6f8:	50470073 	subpl	r0, r7, r3, ror r0
     6fc:	4d5f4f49 	ldclmi	15, cr4, [pc, #-292]	; 5e0 <g_pfnVectors-0x7fffa20>
     700:	5f65646f 	svcpl	0x0065646f
     704:	465f4e49 	ldrbmi	r4, [pc], -r9, asr #28
     708:	54414f4c 	strbpl	r4, [r1], #-3916	; 0xf4c
     70c:	00474e49 	subeq	r4, r7, r9, asr #28
     710:	4f495047 	svcmi	0x00495047
     714:	6165525f 	cmnvs	r5, pc, asr r2
     718:	74754f64 	ldrbtvc	r4, [r5], #-3940	; 0xf64
     71c:	44747570 	ldrbtmi	r7, [r4], #-1392	; 0x570
     720:	42617461 	rsbmi	r7, r1, #1627389952	; 0x61000000
     724:	47007469 	strmi	r7, [r0, -r9, ror #8]
     728:	5f4f4950 	svcpl	0x004f4950
     72c:	4f494641 	svcmi	0x00494641
     730:	6e496544 	cdpvs	5, 4, cr6, cr9, cr4, {2}
     734:	47007469 	strmi	r7, [r0, -r9, ror #8]
     738:	5f4f4950 	svcpl	0x004f4950
     73c:	65646f4d 	strbvs	r6, [r4, #-3917]!	; 0xf4d
     740:	5f46415f 	svcpl	0x0046415f
     744:	4700444f 	strmi	r4, [r0, -pc, asr #8]
     748:	5f4f4950 	svcpl	0x004f4950
     74c:	5f485445 	svcpl	0x00485445
     750:	6964654d 	stmdbvs	r4!, {r0, r2, r3, r6, r8, sl, sp, lr}^
     754:	746e4961 	strbtvc	r4, [lr], #-2401	; 0x961
     758:	61667265 	cmnvs	r6, r5, ror #4
     75c:	6f436563 	svcvs	0x00436563
     760:	6769666e 	strbvs	r6, [r9, -lr, ror #12]!
     764:	45535200 	ldrbmi	r5, [r3, #-512]	; 0x200
     768:	44455652 	strbmi	r5, [r5], #-1618	; 0x652
     76c:	58450031 	stmdapl	r5, {r0, r4, r5}^
     770:	5f324954 	svcpl	0x00324954
     774:	6e515249 	cdpvs	2, 5, cr5, cr1, cr9, {2}
     778:	765f5f00 	ldrbvc	r5, [pc], -r0, lsl #30
     77c:	65756c61 	ldrbvs	r6, [r5, #-3169]!	; 0xc61
     780:	735f5f00 	cmpvc	pc, #0, 30
     784:	725f0066 	subsvc	r0, pc, #102	; 0x66
     788:	00646165 	rsbeq	r6, r4, r5, ror #2
     78c:	6972775f 	ldmdbvs	r2!, {r0, r1, r2, r3, r4, r6, r8, r9, sl, ip, sp, lr}^
     790:	47006574 	smlsdxmi	r0, r4, r5, r6
     794:	00525054 	subseq	r5, r2, r4, asr r0
     798:	6373615f 	cmnvs	r3, #-1073741801	; 0xc0000017
     79c:	656d6974 	strbvs	r6, [sp, #-2420]!	; 0x974
     7a0:	6675625f 			; <UNDEFINED> instruction: 0x6675625f
     7a4:	76635f00 	strbtvc	r5, [r3], -r0, lsl #30
     7a8:	6e656c74 	mcrvs	12, 3, r6, cr5, cr4, {3}
     7ac:	414d4400 	cmpmi	sp, r0, lsl #8
     7b0:	68435f31 	stmdavs	r3, {r0, r4, r5, r8, r9, sl, fp, ip, lr}^
     7b4:	656e6e61 	strbvs	r6, [lr, #-3681]!	; 0xe61
     7b8:	495f356c 	ldmdbmi	pc, {r2, r3, r5, r6, r8, sl, ip, sp}^	; <UNPREDICTABLE>
     7bc:	006e5152 	rsbeq	r5, lr, r2, asr r1
     7c0:	756e755f 	strbvc	r7, [lr, #-1375]!	; 0x55f
     7c4:	00646573 	rsbeq	r6, r4, r3, ror r5
     7c8:	6d745f5f 	ldclvs	15, cr5, [r4, #-380]!	; 0xfffffe84
     7cc:	63775f00 	cmnvs	r7, #0, 30
     7d0:	6f747273 	svcvs	0x00747273
     7d4:	5f73626d 	svcpl	0x0073626d
     7d8:	74617473 	strbtvc	r7, [r1], #-1139	; 0x473
     7dc:	6e5f0065 	cdpvs	0, 5, cr0, cr15, cr5, {3}
     7e0:	00667562 	rsbeq	r7, r6, r2, ror #10
     7e4:	6d745f5f 	ldclvs	15, cr5, [r4, #-380]!	; 0xfffffe84
     7e8:	6365735f 	cmnvs	r5, #2080374785	; 0x7c000001
     7ec:	366c5f00 	strbtcc	r5, [ip], -r0, lsl #30
     7f0:	625f6134 	subsvs	r6, pc, #52, 2
     7f4:	46006675 			; <UNDEFINED> instruction: 0x46006675
     7f8:	4853414c 	ldmdami	r3, {r2, r3, r6, r8, lr}^
     7fc:	5152495f 	cmppl	r2, pc, asr r9
     800:	735f006e 	cmpvc	pc, #110	; 0x6e
     804:	006b6565 	rsbeq	r6, fp, r5, ror #10
     808:	6c756d5f 	ldclvs	13, cr6, [r5], #-380	; 0xfffffe84
     80c:	49540074 	ldmdbmi	r4, {r2, r4, r5, r6}^
     810:	495f324d 	ldmdbmi	pc, {r0, r2, r3, r6, r9, ip, sp}^	; <UNPREDICTABLE>
     814:	006e5152 	rsbeq	r5, lr, r2, asr r1
     818:	52504349 	subspl	r4, r0, #603979777	; 0x24000001
     81c:	775f5f00 	ldrbvc	r5, [pc, -r0, lsl #30]
     820:	53006863 	movwpl	r6, #2147	; 0x863
     824:	5f324950 	svcpl	0x00324950
     828:	6e515249 	cdpvs	2, 5, cr5, cr1, cr9, {2}
     82c:	69665f00 	stmdbvs	r6!, {r8, r9, sl, fp, ip, lr}^
     830:	5f00656c 	svcpl	0x0000656c
     834:	655f6e6f 	ldrbvs	r6, [pc, #-3695]	; fffff9cd <__StackTop+0xdfffa9cd>
     838:	5f746978 	svcpl	0x00746978
     83c:	73677261 	cmnvc	r7, #268435462	; 0x10000006
     840:	626d5f00 	rsbvs	r5, sp, #0, 30
     844:	6e656c72 	mcrvs	12, 3, r6, cr5, cr2, {3}
     848:	6174735f 	cmnvs	r4, pc, asr r3
     84c:	5f006574 	svcpl	0x00006574
     850:	75706d69 	ldrbvc	r6, [r0, #-3433]!	; 0xd69
     854:	705f6572 	subsvc	r6, pc, r2, ror r5	; <UNPREDICTABLE>
     858:	5f007274 	svcpl	0x00007274
     85c:	75736572 	ldrbvc	r6, [r3, #-1394]!	; 0x572
     860:	6b5f746c 	blvs	17dda18 <g_pfnVectors-0x68225e8>
     864:	73795300 	cmnvc	r9, #0, 6
     868:	6b636954 	blvs	18dadc0 <g_pfnVectors-0x6725240>
     86c:	6e61485f 	mcrvs	8, 3, r4, cr1, cr15, {2}
     870:	72656c64 	rsbvc	r6, r5, #100, 24	; 0x6400
     874:	6f6c5f00 	svcvs	0x006c5f00
     878:	746c6163 	strbtvc	r6, [ip], #-355	; 0x163
     87c:	5f656d69 	svcpl	0x00656d69
     880:	00667562 	rsbeq	r7, r6, r2, ror #10
     884:	504d4154 	subpl	r4, sp, r4, asr r1
     888:	495f5245 	ldmdbmi	pc, {r0, r2, r6, r9, ip, lr}^	; <UNPREDICTABLE>
     88c:	006e5152 	rsbeq	r5, lr, r2, asr r1
     890:	6e69616d 	powvsez	f6, f1, #5.0
     894:	745f5f00 	ldrbvc	r5, [pc], #-3840	; 89c <g_pfnVectors-0x7fff764>
     898:	6f6d5f6d 	svcvs	0x006d5f6d
     89c:	5355006e 	cmppl	r5, #110	; 0x6e
     8a0:	5f545241 	svcpl	0x00545241
     8a4:	74696e49 	strbtvc	r6, [r9], #-3657	; 0xe49
     8a8:	75727453 	ldrbvc	r7, [r2, #-1107]!	; 0x453
     8ac:	72757463 	rsbsvc	r7, r5, #1660944384	; 0x63000000
     8b0:	79530065 	ldmdbvc	r3, {r0, r2, r5, r6}^
     8b4:	63695473 	cmnvs	r9, #1929379840	; 0x73000000
     8b8:	52495f6b 	subpl	r5, r9, #428	; 0x1ac
     8bc:	5f006e51 	svcpl	0x00006e51
     8c0:	72727563 	rsbsvc	r7, r2, #415236096	; 0x18c00000
     8c4:	5f746e65 	svcpl	0x00746e65
     8c8:	65746163 	ldrbvs	r6, [r4, #-355]!	; 0x163
     8cc:	79726f67 	ldmdbvc	r2!, {r0, r1, r2, r5, r6, r8, r9, sl, fp, sp, lr}^
     8d0:	41535500 	cmpmi	r3, r0, lsl #10
     8d4:	5f335452 	svcpl	0x00335452
     8d8:	6e515249 	cdpvs	2, 5, cr5, cr1, cr9, {2}
     8dc:	6e755f00 	cdpvs	15, 7, cr5, cr5, cr0, {0}
     8e0:	64657375 	strbtvs	r7, [r5], #-885	; 0x375
     8e4:	6e61725f 	mcrvs	2, 3, r7, cr1, cr15, {2}
     8e8:	3a430064 	bcc	10c0a80 <g_pfnVectors-0x6f3f580>
     8ec:	73555c5c 	cmpvc	r5, #92, 24	; 0x5c00
     8f0:	5c737265 	lfmpl	f7, 2, [r3], #-404	; 0xfffffe6c
     8f4:	6f70555c 	svcvs	0x0070555c
     8f8:	6e626172 	mcrvs	1, 3, r6, cr2, cr2, {3}
     8fc:	5c5c6b69 	mrrcpl	11, 6, r6, ip, cr9
     900:	75636f44 	strbvc	r6, [r3, #-3908]!	; 0xf44
     904:	746e656d 	strbtvc	r6, [lr], #-1389	; 0x56d
     908:	435c5c73 	cmpmi	ip, #29440	; 0x7300
     90c:	6f436f6f 	svcvs	0x00436f6f
     910:	535c5c78 	cmppl	ip, #120, 24	; 0x7800
     914:	32334d54 	eorscc	r4, r3, #84, 26	; 0x1500
     918:	33303146 	teqcc	r0, #-2147483631	; 0x80000011
     91c:	6c425c5c 	mcrrvs	12, 5, r5, r2, cr12
     920:	5f6b6e69 	svcpl	0x006b6e69
     924:	52415355 	subpl	r5, r1, #1409286145	; 0x54000001
     928:	745f3154 	ldrbvc	r3, [pc], #-340	; 930 <g_pfnVectors-0x7fff6d0>
     92c:	5c747365 	ldclpl	3, cr7, [r4], #-404	; 0xfffffe6c
     930:	696c625c 	stmdbvs	ip!, {r2, r3, r4, r6, r9, sp, lr}^
     934:	5c5c6b6e 	mrrcpl	11, 6, r6, ip, cr14
     938:	75626544 	strbvc	r6, [r2, #-1348]!	; 0x544
     93c:	6f5c5c67 	svcvs	0x005c5c67
     940:	52006a62 	andpl	r6, r0, #401408	; 0x62000
     944:	52455345 	subpl	r5, r5, #335544321	; 0x14000001
     948:	31444556 	cmpcc	r4, r6, asr r5
     94c:	53455200 	movtpl	r5, #20992	; 0x5200
     950:	45565245 	ldrbmi	r5, [r6, #-581]	; 0x245
     954:	52003344 	andpl	r3, r0, #68, 6	; 0x10000001
     958:	52455345 	subpl	r5, r5, #335544321	; 0x14000001
     95c:	34444556 	strbcc	r4, [r4], #-1366	; 0x556
     960:	53455200 	movtpl	r5, #20992	; 0x5200
     964:	45565245 	ldrbmi	r5, [r6, #-581]	; 0x245
     968:	52003544 	andpl	r3, r0, #68, 10	; 0x11000000
     96c:	52455345 	subpl	r5, r5, #335544321	; 0x14000001
     970:	36444556 			; <UNDEFINED> instruction: 0x36444556
     974:	42414900 	submi	r4, r1, #0, 18
     978:	53550052 	cmppl	r5, #82	; 0x52
     97c:	5f545241 	svcpl	0x00545241
     980:	64726f57 	ldrbtvs	r6, [r2], #-3927	; 0xf57
     984:	676e654c 	strbvs	r6, [lr, -ip, asr #10]!
     988:	49006874 	stmdbmi	r0, {r2, r4, r5, r6, fp, sp, lr}
     98c:	5f314332 	svcpl	0x00314332
     990:	495f5245 	ldmdbmi	pc, {r0, r2, r6, r9, ip, lr}^	; <UNPREDICTABLE>
     994:	006e5152 	rsbeq	r5, lr, r2, asr r1
     998:	6565725f 	strbvs	r7, [r5, #-607]!	; 0x25f
     99c:	4400746e 	strmi	r7, [r0], #-1134	; 0x46e
     9a0:	5f31414d 	svcpl	0x0031414d
     9a4:	6e616843 	cdpvs	8, 6, cr6, cr1, cr3, {2}
     9a8:	316c656e 	cmncc	ip, lr, ror #10
     9ac:	5152495f 	cmppl	r2, pc, asr r9
     9b0:	4954006e 	ldmdbmi	r4, {r1, r2, r3, r5, r6}^
     9b4:	425f314d 	subsmi	r3, pc, #1073741843	; 0x40000013
     9b8:	495f4b52 	ldmdbmi	pc, {r1, r4, r6, r8, r9, fp, lr}^	; <UNPREDICTABLE>
     9bc:	006e5152 	rsbeq	r5, lr, r2, asr r1
     9c0:	45534552 	ldrbmi	r4, [r3, #-1362]	; 0x552
     9c4:	44455652 	strbmi	r5, [r5], #-1618	; 0x652
     9c8:	695f0032 	ldmdbvs	pc, {r1, r4, r5}^	; <UNPREDICTABLE>
     9cc:	5500646e 	strpl	r6, [r0, #-1134]	; 0x46e
     9d0:	54524153 	ldrbpl	r4, [r2], #-339	; 0x153
     9d4:	7261505f 	rsbvc	r5, r1, #95	; 0x5f
     9d8:	00797469 	rsbseq	r7, r9, r9, ror #8
     9dc:	67617355 			; <UNDEFINED> instruction: 0x67617355
     9e0:	75614665 	strbvc	r4, [r1, #-1637]!	; 0x665
     9e4:	495f746c 	ldmdbmi	pc, {r2, r3, r5, r6, sl, ip, sp, lr}^	; <UNPREDICTABLE>
     9e8:	006e5152 	rsbeq	r5, lr, r2, asr r1
     9ec:	5f425355 	svcpl	0x00425355
     9f0:	435f5048 	cmpmi	pc, #72	; 0x48
     9f4:	5f314e41 	svcpl	0x00314e41
     9f8:	495f5854 	ldmdbmi	pc, {r2, r4, r6, fp, ip, lr}^	; <UNPREDICTABLE>
     9fc:	006e5152 	rsbeq	r5, lr, r2, asr r1
     a00:	736e665f 	cmnvc	lr, #99614720	; 0x5f00000
     a04:	6c635f00 	stclvs	15, cr5, [r3], #-0
     a08:	0065736f 	rsbeq	r7, r5, pc, ror #6
     a0c:	6474735f 	ldrbtvs	r7, [r4], #-863	; 0x35f
     a10:	55006e69 	strpl	r6, [r0, #-3689]	; 0xe69
     a14:	54524153 	ldrbpl	r4, [r2], #-339	; 0x153
     a18:	7079545f 	rsbsvc	r5, r9, pc, asr r4
     a1c:	66654465 	strbtvs	r4, [r5], -r5, ror #8
     a20:	42535500 	subsmi	r5, r3, #0, 10
     a24:	656b6157 	strbvs	r6, [fp, #-343]!	; 0x157
     a28:	495f7055 	ldmdbmi	pc, {r0, r2, r4, r6, ip, sp, lr}^	; <UNPREDICTABLE>
     a2c:	006e5152 	rsbeq	r5, lr, r2, asr r1
     a30:	344d4954 	strbcc	r4, [sp], #-2388	; 0x954
     a34:	5152495f 	cmppl	r2, pc, asr r9
     a38:	5355006e 	cmppl	r5, #110	; 0x6e
     a3c:	32545241 	subscc	r5, r4, #268435460	; 0x10000004
     a40:	5152495f 	cmppl	r2, pc, asr r9
     a44:	3054006e 	subscc	r0, r4, lr, rrx
     a48:	6b61625f 	blvs	18593cc <g_pfnVectors-0x67a6c34>
     a4c:	49545300 	ldmdbmi	r4, {r8, r9, ip, lr}^
     a50:	32490052 	subcc	r0, r9, #82	; 0x52
     a54:	455f3143 	ldrbmi	r3, [pc, #-323]	; 919 <g_pfnVectors-0x7fff6e7>
     a58:	52495f56 	subpl	r5, r9, #344	; 0x158
     a5c:	5f006e51 	svcpl	0x00006e51
     a60:	6b6f6f63 	blvs	1bdc7f4 <g_pfnVectors-0x642380c>
     a64:	5f006569 	svcpl	0x00006569
     a68:	00736477 	rsbseq	r6, r3, r7, ror r4
     a6c:	6769735f 			; <UNDEFINED> instruction: 0x6769735f
     a70:	6e75665f 	mrcvs	6, 3, r6, cr5, cr15, {2}
     a74:	53550063 	cmppl	r5, #99	; 0x63
     a78:	5f545241 	svcpl	0x00545241
     a7c:	64756142 	ldrbtvs	r6, [r5], #-322	; 0x142
     a80:	65746152 	ldrbvs	r6, [r4, #-338]!	; 0x152
     a84:	41535500 	cmpmi	r3, r0, lsl #10
     a88:	4d5f5452 	cfldrdmi	mvd5, [pc, #-328]	; 948 <g_pfnVectors-0x7fff6b8>
     a8c:	0065646f 	rsbeq	r6, r5, pc, ror #8
     a90:	7476635f 	ldrbtvc	r6, [r6], #-863	; 0x35f
     a94:	00667562 	rsbeq	r7, r6, r2, ror #10
     a98:	314d4954 	cmpcc	sp, r4, asr r9
     a9c:	5f43435f 	svcpl	0x0043435f
     aa0:	6e515249 	cdpvs	2, 5, cr5, cr1, cr9, {2}
     aa4:	54584500 	ldrbpl	r4, [r8], #-1280	; 0x500
     aa8:	495f3149 	ldmdbmi	pc, {r0, r3, r6, r8, ip, sp}^	; <UNPREDICTABLE>
     aac:	006e5152 	rsbeq	r5, lr, r2, asr r1
     ab0:	4d6e6f4e 	stclmi	15, cr6, [lr, #-312]!	; 0xfffffec8
     ab4:	616b7361 	cmnvs	fp, r1, ror #6
     ab8:	49656c62 	stmdbmi	r5!, {r1, r5, r6, sl, fp, sp, lr}^
     abc:	495f746e 	ldmdbmi	pc, {r1, r2, r3, r5, r6, sl, ip, sp, lr}^	; <UNPREDICTABLE>
     ac0:	006e5152 	rsbeq	r5, lr, r2, asr r1
     ac4:	47445757 	smlsldmi	r5, r4, r7, r7
     ac8:	5152495f 	cmppl	r2, pc, asr r9
     acc:	705f006e 	subsvc	r0, pc, lr, rrx
     ad0:	4d007335 	stcmi	3, cr7, [r0, #-212]	; 0xffffff2c
     ad4:	726f6d65 	rsbvc	r6, pc, #6464	; 0x1940
     ad8:	6e614d79 	mcrvs	13, 3, r4, cr1, cr9, {3}
     adc:	6d656761 	stclvs	7, cr6, [r5, #-388]!	; 0xfffffe7c
     ae0:	5f746e65 	svcpl	0x00746e65
     ae4:	6e515249 	cdpvs	2, 5, cr5, cr1, cr9, {2}
     ae8:	414d4400 	cmpmi	sp, r0, lsl #8
     aec:	68435f31 	stmdavs	r3, {r0, r4, r5, r8, r9, sl, fp, ip, lr}^
     af0:	656e6e61 	strbvs	r6, [lr, #-3681]!	; 0xe61
     af4:	495f346c 	ldmdbmi	pc, {r2, r3, r5, r6, sl, ip, sp}^	; <UNPREDICTABLE>
     af8:	006e5152 	rsbeq	r5, lr, r2, asr r1
     afc:	64735f5f 	ldrbtvs	r5, [r3], #-3935	; 0xf5f
     b00:	6e696469 	cdpvs	4, 6, cr6, cr9, cr9, {3}
     b04:	5f007469 	svcpl	0x00007469
     b08:	67616c66 	strbvs	r6, [r1, -r6, ror #24]!
     b0c:	43003273 	movwmi	r3, #627	; 0x273
     b10:	5f314e41 	svcpl	0x00314e41
     b14:	5f454353 	svcpl	0x00454353
     b18:	6e515249 	cdpvs	2, 5, cr5, cr1, cr9, {2}
     b1c:	51524900 	cmppl	r2, r0, lsl #18
     b20:	79545f6e 	ldmdbvc	r4, {r1, r2, r3, r5, r6, r8, r9, sl, fp, ip, lr}^
     b24:	5f006570 	svcpl	0x00006570
     b28:	4b434f4c 	blmi	10d4860 <g_pfnVectors-0x6f2b7a0>
     b2c:	4345525f 	movtmi	r5, #21087	; 0x525f
     b30:	49535255 	ldmdbmi	r3, {r0, r2, r4, r6, r9, ip, lr}^
     b34:	545f4556 	ldrbpl	r4, [pc], #-1366	; b3c <g_pfnVectors-0x7fff4c4>
     b38:	41535500 	cmpmi	r3, r0, lsl #10
     b3c:	535f5452 	cmppl	pc, #1375731712	; 0x52000000
     b40:	42706f74 	rsbsmi	r6, r0, #116, 30	; 0x1d0
     b44:	00737469 	rsbseq	r7, r3, r9, ror #8
     b48:	6769735f 			; <UNDEFINED> instruction: 0x6769735f
     b4c:	5f6c616e 	svcpl	0x006c616e
     b50:	00667562 	rsbeq	r7, r6, r2, ror #10
     b54:	4349564e 	movtmi	r5, #38478	; 0x964e
     b58:	7465535f 	strbtvc	r5, [r5], #-863	; 0x35f
     b5c:	6f697250 	svcvs	0x00697250
     b60:	79746972 	ldmdbvc	r4!, {r1, r4, r5, r6, r8, fp, sp, lr}^
     b64:	43324900 	teqmi	r2, #0, 18
     b68:	52455f32 	subpl	r5, r5, #50, 30	; 0xc8
     b6c:	5152495f 	cmppl	r2, pc, asr r9
     b70:	425f006e 	subsmi	r0, pc, #110	; 0x6e
     b74:	6e696769 	cdpvs	7, 6, cr6, cr9, cr9, {3}
     b78:	736d0074 	cmnvc	sp, #116	; 0x74
     b7c:	6b636954 	blvs	18db0d4 <g_pfnVectors-0x6724f2c>
     b80:	6d5f0073 	ldclvs	0, cr0, [pc, #-460]	; 9bc <g_pfnVectors-0x7fff644>
     b84:	64777861 	ldrbtvs	r7, [r7], #-2145	; 0x861
     b88:	5f5f0073 	svcpl	0x005f0073
     b8c:	61656c63 	cmnvs	r5, r3, ror #24
     b90:	0070756e 	rsbseq	r7, r0, lr, ror #10
     b94:	46737542 	ldrbtmi	r7, [r3], -r2, asr #10
     b98:	746c7561 	strbtvc	r7, [ip], #-1377	; 0x561
     b9c:	5152495f 	cmppl	r2, pc, asr r9
     ba0:	6974006e 	ldmdbvs	r4!, {r1, r2, r3, r5, r6}^
     ba4:	00736b63 	rsbseq	r6, r3, r3, ror #22
     ba8:	6574615f 	ldrbvs	r6, [r4, #-351]!	; 0x15f
     bac:	30746978 	rsbscc	r6, r4, r8, ror r9
     bb0:	6d655f00 	stclvs	15, cr5, [r5, #-0]
     bb4:	65677265 	strbvs	r7, [r7, #-613]!	; 0x265
     bb8:	0079636e 	rsbseq	r6, r9, lr, ror #6
     bbc:	74626d5f 	strbtvc	r6, [r2], #-3423	; 0xd5f
     bc0:	5f63776f 	svcpl	0x0063776f
     bc4:	74617473 	strbtvc	r7, [r1], #-1139	; 0x473
     bc8:	6e5f0065 	cdpvs	0, 5, cr0, cr15, cr5, {3}
     bcc:	73626f69 	cmnvc	r2, #420	; 0x1a4
     bd0:	49505300 	ldmdbmi	r0, {r8, r9, ip, lr}^
     bd4:	52495f31 	subpl	r5, r9, #49, 30	; 0xc4
     bd8:	5f006e51 	svcpl	0x00006e51
     bdc:	6c67735f 	stclvs	3, cr7, [r7], #-380	; 0xfffffe84
     be0:	5f006575 	svcpl	0x00006575
     be4:	6c616d6e 	stclvs	13, cr6, [r1], #-440	; 0xfffffe48
     be8:	00636f6c 	rsbeq	r6, r3, ip, ror #30
     bec:	61435653 	cmpvs	r3, r3, asr r6
     bf0:	495f6c6c 	ldmdbmi	pc, {r2, r3, r5, r6, sl, fp, sp, lr}^	; <UNPREDICTABLE>
     bf4:	006e5152 	rsbeq	r5, lr, r2, asr r1
     bf8:	6d61675f 	stclvs	7, cr6, [r1, #-380]!	; 0xfffffe84
     bfc:	735f616d 	cmpvc	pc, #1073741851	; 0x4000001b
     c00:	676e6769 	strbvs	r6, [lr, -r9, ror #14]!
     c04:	5f006d61 	svcpl	0x00006d61
     c08:	72727563 	rsbsvc	r7, r2, #415236096	; 0x18c00000
     c0c:	5f746e65 	svcpl	0x00746e65
     c10:	61636f6c 	cmnvs	r3, ip, ror #30
     c14:	5f00656c 	svcpl	0x0000656c
     c18:	65657266 	strbvs	r7, [r5, #-614]!	; 0x266
     c1c:	7473696c 	ldrbtvc	r6, [r3], #-2412	; 0x96c
     c20:	6f695f00 	svcvs	0x00695f00
     c24:	5f007362 	svcpl	0x00007362
     c28:	65756c67 	ldrbvs	r6, [r5, #-3175]!	; 0xc67
     c2c:	414f4c00 	cmpmi	pc, r0, lsl #24
     c30:	735f0044 	cmpvc	pc, #68	; 0x44
     c34:	006e6769 	rsbeq	r6, lr, r9, ror #14
     c38:	41435452 	cmpmi	r3, r2, asr r4
     c3c:	6d72616c 	ldfvse	f6, [r2, #-432]!	; 0xfffffe50
     c40:	5152495f 	cmppl	r2, pc, asr r9
     c44:	5845006e 	stmdapl	r5, {r1, r2, r3, r5, r6}^
     c48:	5f344954 	svcpl	0x00344954
     c4c:	6e515249 	cdpvs	2, 5, cr5, cr1, cr9, {2}
     c50:	52544300 	subspl	r4, r4, #0, 6
     c54:	685f004c 	ldmdavs	pc, {r2, r3, r6}^	; <UNPREDICTABLE>
     c58:	7272655f 	rsbsvc	r6, r2, #398458880	; 0x17c00000
     c5c:	49006f6e 	stmdbmi	r0, {r1, r2, r3, r5, r6, r8, r9, sl, fp, sp, lr}
     c60:	5f324332 	svcpl	0x00324332
     c64:	495f5645 	ldmdbmi	pc, {r0, r2, r6, r9, sl, ip, lr}^	; <UNPREDICTABLE>
     c68:	006e5152 	rsbeq	r5, lr, r2, asr r1
     c6c:	7263775f 	rsbvc	r7, r3, #24903680	; 0x17c0000
     c70:	626d6f74 	rsbvs	r6, sp, #116, 30	; 0x1d0
     c74:	6174735f 	cmnvs	r4, pc, asr r3
     c78:	5f006574 	svcpl	0x00006574
     c7c:	5f6d745f 	svcpl	0x006d745f
     c80:	7961646d 	stmdbvc	r1!, {r0, r2, r3, r5, r6, sl, sp, lr}^
     c84:	656e5f00 	strbvs	r5, [lr, #-3840]!	; 0xf00
     c88:	755f0077 	ldrbvc	r0, [pc, #-119]	; c19 <g_pfnVectors-0x7fff3e7>
     c8c:	00667562 	rsbeq	r7, r6, r2, ror #10
     c90:	31414d44 	cmpcc	r1, r4, asr #26
     c94:	6168435f 	cmnvs	r8, pc, asr r3
     c98:	6c656e6e 	stclvs	14, cr6, [r5], #-440	; 0xfffffe48
     c9c:	52495f37 	subpl	r5, r9, #55, 30	; 0xdc
     ca0:	5f006e51 	svcpl	0x00006e51
     ca4:	65647473 	strbvs	r7, [r4, #-1139]!	; 0x473
     ca8:	5f007272 	svcpl	0x00007272
     cac:	6f746377 	svcvs	0x00746377
     cb0:	735f626d 	cmpvc	pc, #-805306362	; 0xd0000006
     cb4:	65746174 	ldrbvs	r6, [r4, #-372]!	; 0x174
     cb8:	626d5f00 	rsbvs	r5, sp, #0, 30
     cbc:	74617473 	strbtvc	r7, [r1], #-1139	; 0x473
     cc0:	725f0065 	subsvc	r0, pc, #101	; 0x65
     cc4:	5f646e61 	svcpl	0x00646e61
     cc8:	7478656e 	ldrbtvc	r6, [r8], #-1390	; 0x56e
     ccc:	6c665f00 	stclvs	15, cr5, [r6], #-0
     cd0:	00736761 	rsbseq	r6, r3, r1, ror #14
     cd4:	6574615f 	ldrbvs	r6, [r4, #-351]!	; 0x15f
     cd8:	00746978 	rsbseq	r6, r4, r8, ror r9
     cdc:	6f635f5f 	svcvs	0x00635f5f
     ce0:	00746e75 	rsbseq	r6, r4, r5, ror lr
     ce4:	54737953 	ldrbtpl	r7, [r3], #-2387	; 0x953
     ce8:	5f6b6369 	svcpl	0x006b6369
     cec:	65707954 	ldrbvs	r7, [r0, #-2388]!	; 0x954
     cf0:	745f5f00 	ldrbvc	r5, [pc], #-3840	; cf8 <g_pfnVectors-0x7fff308>
     cf4:	64775f6d 	ldrbtvs	r5, [r7], #-3949	; 0xf6d
     cf8:	5f007961 	svcpl	0x00007961
     cfc:	5f6d745f 	svcpl	0x006d745f
     d00:	79616479 	stmdbvc	r1!, {r0, r3, r4, r5, r6, sl, sp, lr}^
     d04:	65735f00 	ldrbvs	r5, [r3, #-3840]!	; 0xf00
     d08:	5f006465 	svcpl	0x00006465
     d0c:	7366666f 	cmnvc	r6, #116391936	; 0x6f00000
     d10:	5f007465 	svcpl	0x00007465
     d14:	736f7066 	cmnvc	pc, #102	; 0x66
     d18:	5f00745f 	svcpl	0x0000745f
     d1c:	6863775f 	stmdavs	r3!, {r0, r1, r2, r3, r4, r6, r8, r9, sl, ip, sp, lr}^
     d20:	49540062 	ldmdbmi	r4, {r1, r5, r6}^
     d24:	545f314d 	ldrbpl	r3, [pc], #-333	; d2c <g_pfnVectors-0x7fff2d4>
     d28:	435f4752 	cmpmi	pc, #21495808	; 0x1480000
     d2c:	495f4d4f 	ldmdbmi	pc, {r0, r1, r2, r3, r6, r8, sl, fp, lr}^	; <UNPREDICTABLE>
     d30:	006e5152 	rsbeq	r5, lr, r2, asr r1
     d34:	4349564e 	movtmi	r5, #38478	; 0x964e
     d38:	7079545f 	rsbsvc	r5, r9, pc, asr r4
     d3c:	5f5f0065 	svcpl	0x005f0065
     d40:	38746e69 	ldmdacc	r4!, {r0, r3, r5, r6, r9, sl, fp, sp, lr}^
     d44:	4500745f 	strmi	r7, [r0, #-1119]	; 0x45f
     d48:	31495458 	cmpcc	r9, r8, asr r4
     d4c:	30315f35 	eorscc	r5, r1, r5, lsr pc
     d50:	5152495f 	cmppl	r2, pc, asr r9
     d54:	645f006e 	ldrbvs	r0, [pc], #-110	; d5c <g_pfnVectors-0x7fff2a4>
     d58:	685f6f73 	ldmdavs	pc, {r0, r1, r4, r5, r6, r8, r9, sl, fp, sp, lr}^	; <UNPREDICTABLE>
     d5c:	6c646e61 	stclvs	14, cr6, [r4], #-388	; 0xfffffe7c
     d60:	5f5f0065 	svcpl	0x005f0065
     d64:	705f6f69 	subsvc	r6, pc, r9, ror #30
     d68:	68637475 	stmdavs	r3!, {r0, r2, r4, r5, r6, sl, ip, sp, lr}^
     d6c:	5f007261 	svcpl	0x00007261
     d70:	646e6172 	strbtvs	r6, [lr], #-370	; 0x172
     d74:	54003834 	strpl	r3, [r0], #-2100	; 0x834
     d78:	5f334d49 	svcpl	0x00334d49
     d7c:	6e515249 	cdpvs	2, 5, cr5, cr1, cr9, {2}
     d80:	74735f00 	ldrbtvc	r5, [r3], #-3840	; 0xf00
     d84:	74756f64 	ldrbtvc	r6, [r5], #-3940	; 0xf64
     d88:	41535500 	cmpmi	r3, r0, lsl #10
     d8c:	5f315452 	svcpl	0x00315452
     d90:	6e515249 	cdpvs	2, 5, cr5, cr1, cr9, {2}
     d94:	49504700 	ldmdbmi	r0, {r8, r9, sl, lr}^
     d98:	6e495f4f 	cdpvs	15, 4, cr5, cr9, cr15, {2}
     d9c:	74537469 	ldrbvc	r7, [r3], #-1129	; 0x469
     da0:	74637572 	strbtvc	r7, [r3], #-1394	; 0x572
     da4:	00657275 	rsbeq	r7, r5, r5, ror r2
     da8:	7361625f 	cmnvc	r1, #-268435451	; 0xf0000005
     dac:	735f0065 	cmpvc	pc, #101	; 0x65
     db0:	6f747274 	svcvs	0x00747274
     db4:	616c5f6b 	cmnvs	ip, fp, ror #30
     db8:	5f007473 	svcpl	0x00007473
     dbc:	7472626d 	ldrbtvc	r6, [r2], #-621	; 0x26d
     dc0:	5f63776f 	svcpl	0x0063776f
     dc4:	74617473 	strbtvc	r7, [r1], #-1139	; 0x473
     dc8:	43490065 	movtmi	r0, #36965	; 0x9065
     dcc:	5f005245 	svcpl	0x00005245
     dd0:	636f6c66 	cmnvs	pc, #26112	; 0x6600
     dd4:	00745f6b 	rsbseq	r5, r4, fp, ror #30
     dd8:	49465f5f 	stmdbmi	r6, {r0, r1, r2, r3, r4, r6, r8, r9, sl, fp, ip, lr}^
     ddc:	5f00454c 	svcpl	0x0000454c
     de0:	7473626d 	ldrbtvc	r6, [r3], #-621	; 0x26d
     de4:	5f657461 	svcpl	0x00657461
     de8:	725f0074 	subsvc	r0, pc, #116	; 0x74
     dec:	53003834 	movwpl	r3, #2100	; 0x834
     df0:	69547379 	ldmdbvs	r4, {r0, r3, r4, r5, r6, r8, r9, ip, sp, lr}^
     df4:	435f6b63 	cmpmi	pc, #101376	; 0x18c00
     df8:	69666e6f 	stmdbvs	r6!, {r0, r1, r2, r3, r5, r6, r9, sl, fp, sp, lr}^
     dfc:	53550067 	cmppl	r5, #103	; 0x67
     e00:	5f545241 	svcpl	0x00545241
     e04:	74696e49 	strbtvc	r6, [r9], #-3657	; 0xe49
     e08:	65707954 	ldrbvs	r7, [r0, #-2388]!	; 0x954
     e0c:	00666544 	rsbeq	r6, r6, r4, asr #10
     e10:	5f445650 	svcpl	0x00445650
     e14:	6e515249 	cdpvs	2, 5, cr5, cr1, cr9, {2}
     e18:	6e697700 	cdpvs	7, 6, cr7, cr9, cr0, {0}
     e1c:	00745f74 	rsbseq	r5, r4, r4, ror pc
     e20:	494c4143 	stmdbmi	ip, {r0, r1, r6, r8, lr}^
     e24:	645f0042 	ldrbvs	r0, [pc], #-66	; e2c <g_pfnVectors-0x7fff1d4>
     e28:	00617461 	rsbeq	r7, r1, r1, ror #8
     e2c:	49545845 	ldmdbmi	r4, {r0, r2, r6, fp, ip, lr}^
     e30:	52495f30 	subpl	r5, r9, #48, 30	; 0xc0
     e34:	5f006e51 	svcpl	0x00006e51
     e38:	5f6f695f 	svcpl	0x006f695f
     e3c:	63746567 	cmnvs	r4, #432013312	; 0x19c00000
     e40:	00726168 	rsbseq	r6, r2, r8, ror #2
     e44:	75626544 	strbvc	r6, [r2, #-1348]!	; 0x544
     e48:	6e6f4d67 	cdpvs	13, 6, cr4, cr15, cr7, {3}
     e4c:	726f7469 	rsbvc	r7, pc, #1761607680	; 0x69000000
     e50:	5152495f 	cmppl	r2, pc, asr r9
     e54:	5355006e 	cmppl	r5, #110	; 0x6e
     e58:	504c5f42 	subpl	r5, ip, r2, asr #30
     e5c:	4e41435f 	mcrmi	3, 2, r4, cr1, cr15, {2}
     e60:	58525f31 	ldmdapl	r2, {r0, r4, r5, r8, r9, sl, fp, ip, lr}^
     e64:	52495f30 	subpl	r5, r9, #48, 30	; 0xc0
     e68:	44006e51 	strmi	r6, [r0], #-3665	; 0xe51
     e6c:	5f31414d 	svcpl	0x0031414d
     e70:	6e616843 	cdpvs	8, 6, cr6, cr1, cr3, {2}
     e74:	336c656e 	cmncc	ip, #461373440	; 0x1b800000
     e78:	5152495f 	cmppl	r2, pc, asr r9
     e7c:	6d5f006e 	ldclvs	0, cr0, [pc, #-440]	; ccc <g_pfnVectors-0x7fff334>
     e80:	6e656c62 	cdpvs	12, 6, cr6, cr5, cr2, {3}
     e84:	6174735f 	cmnvs	r4, pc, asr r3
     e88:	52006574 	andpl	r6, r0, #116, 10	; 0x1d000000
     e8c:	495f4343 	ldmdbmi	pc, {r0, r1, r6, r8, r9, lr}^	; <UNPREDICTABLE>
     e90:	006e5152 	rsbeq	r5, lr, r2, asr r1
     e94:	6f697270 	svcvs	0x00697270
     e98:	79746972 	ldmdbvc	r4!, {r1, r4, r5, r6, r8, fp, sp, lr}^
     e9c:	6e665f00 	cdpvs	15, 6, cr5, cr6, cr0, {0}
     ea0:	65707974 	ldrbvs	r7, [r0, #-2420]!	; 0x974
     ea4:	44410073 	strbmi	r0, [r1], #-115	; 0x73
     ea8:	325f3143 	subscc	r3, pc, #-1073741808	; 0xc0000010
     eac:	5152495f 	cmppl	r2, pc, asr r9
     eb0:	5f5f006e 	svcpl	0x005f006e
     eb4:	795f6d74 	ldmdbvc	pc, {r2, r4, r5, r6, r8, sl, fp, sp, lr}^	; <UNPREDICTABLE>
     eb8:	00726165 	rsbseq	r6, r2, r5, ror #2
     ebc:	66626c5f 			; <UNDEFINED> instruction: 0x66626c5f
     ec0:	657a6973 	ldrbvs	r6, [sl, #-2419]!	; 0x973
     ec4:	6e695f00 	cdpvs	15, 6, cr5, cr9, cr0, {0}
     ec8:	4d440063 	stclmi	0, cr0, [r4, #-396]	; 0xfffffe74
     ecc:	435f3141 	cmpmi	pc, #1073741840	; 0x40000010
     ed0:	6e6e6168 	powvsez	f6, f6, #0.0
     ed4:	5f326c65 	svcpl	0x00326c65
     ed8:	6e515249 	cdpvs	2, 5, cr5, cr1, cr9, {2}
     edc:	5c3a4300 	ldcpl	3, cr4, [sl], #-0
     ee0:	72657355 	rsbvc	r7, r5, #1409286145	; 0x54000001
     ee4:	70555c73 	subsvc	r5, r5, r3, ror ip
     ee8:	6261726f 	rsbvs	r7, r1, #-268435450	; 0xf0000006
     eec:	5c6b696e 	stclpl	9, cr6, [fp], #-440	; 0xfffffe48
     ef0:	75636f44 	strbvc	r6, [r3, #-3908]!	; 0xf44
     ef4:	746e656d 	strbtvc	r6, [lr], #-1389	; 0x56d
     ef8:	6f435c73 	svcvs	0x00435c73
     efc:	786f436f 	stmdavc	pc!, {r0, r1, r2, r3, r5, r6, r8, r9, lr}^	; <UNPREDICTABLE>
     f00:	4d54535c 	ldclmi	3, cr5, [r4, #-368]	; 0xfffffe90
     f04:	31463233 	cmpcc	r6, r3, lsr r2
     f08:	425c3330 	subsmi	r3, ip, #48, 6	; 0xc0000000
     f0c:	6b6e696c 	blvs	1b9b4c4 <g_pfnVectors-0x6464b3c>
     f10:	4153555f 	cmpmi	r3, pc, asr r5
     f14:	5f315452 	svcpl	0x00315452
     f18:	74736574 	ldrbtvc	r6, [r3], #-1396	; 0x574
     f1c:	69616d5c 	stmdbvs	r1!, {r2, r3, r4, r6, r8, sl, fp, sp, lr}^
     f20:	00632e6e 	rsbeq	r2, r3, lr, ror #28
     f24:	62735f5f 	rsbsvs	r5, r3, #380	; 0x17c
     f28:	5f006675 	svcpl	0x00006675
     f2c:	635f7369 	cmpvs	pc, #-1543503871	; 0xa4000001
     f30:	5f006178 	svcpl	0x00006178
     f34:	7478656e 	ldrbtvc	r6, [r8], #-1390	; 0x56e
     f38:	5f5f0066 	svcpl	0x005f0066
     f3c:	6e6f4c55 	mcrvs	12, 3, r4, cr15, cr5, {2}
     f40:	49540067 	ldmdbmi	r4, {r0, r1, r2, r5, r6}^
     f44:	555f314d 	ldrbpl	r3, [pc, #-333]	; dff <g_pfnVectors-0x7fff201>
     f48:	52495f50 	subpl	r5, r9, #80, 30	; 0x140
     f4c:	5f006e51 	svcpl	0x00006e51
     f50:	75736572 	ldrbvc	r6, [r3, #-1394]!	; 0x572
     f54:	4300746c 	movwmi	r7, #1132	; 0x46c
     f58:	5f314e41 	svcpl	0x00314e41
     f5c:	5f315852 	svcpl	0x00315852
     f60:	6e515249 	cdpvs	2, 5, cr5, cr1, cr9, {2}
     f64:	6f6c5f00 	svcvs	0x006c5f00
     f68:	55006b63 	strpl	r6, [r0, #-2915]	; 0xb63
     f6c:	54524153 	ldrbpl	r4, [r2], #-339	; 0x153
     f70:	7261485f 	rsbvc	r4, r1, #6225920	; 0x5f0000
     f74:	72617764 	rsbvc	r7, r1, #100, 14	; 0x1900000
     f78:	6f6c4665 	svcvs	0x006c4665
     f7c:	6e6f4377 	mcrvs	3, 3, r4, cr15, cr7, {3}
     f80:	6c6f7274 	sfmvs	f7, 2, [pc], #-464	; db8 <g_pfnVectors-0x7fff248>
     f84:	54584500 	ldrbpl	r4, [r8], #-1280	; 0x500
     f88:	355f3949 	ldrbcc	r3, [pc, #-2377]	; 647 <g_pfnVectors-0x7fff9b9>
     f8c:	5152495f 	cmppl	r2, pc, asr r9
     f90:	6f5f006e 	svcvs	0x005f006e
     f94:	745f6666 	ldrbvc	r6, [pc], #-1638	; f9c <g_pfnVectors-0x7fff064>
     f98:	64615f00 	strbtvs	r5, [r1], #-3840	; 0xf00
     f9c:	5f5f0064 	svcpl	0x005f0064
     fa0:	685f6d74 	ldmdavs	pc, {r2, r4, r5, r6, r8, sl, fp, sp, lr}^	; <UNPREDICTABLE>
     fa4:	0072756f 	rsbseq	r7, r2, pc, ror #10
     fa8:	46735f5f 	uhsaxmi	r5, r3, pc	; <UNPREDICTABLE>
     fac:	00454c49 	subeq	r4, r5, r9, asr #24
     fb0:	52505349 	subspl	r5, r0, #603979777	; 0x24000001
     fb4:	54584500 	ldrbpl	r4, [r8], #-1280	; 0x500
     fb8:	495f3349 	ldmdbmi	pc, {r0, r3, r6, r8, r9, ip, sp}^	; <UNPREDICTABLE>
     fbc:	006e5152 	rsbeq	r5, lr, r2, asr r1
     fc0:	646e6550 	strbtvs	r6, [lr], #-1360	; 0x550
     fc4:	495f5653 	ldmdbmi	pc, {r0, r1, r4, r6, r9, sl, ip, lr}^	; <UNPREDICTABLE>
     fc8:	006e5152 	rsbeq	r5, lr, r2, asr r1
     fcc:	73626d5f 	cmnvc	r2, #6080	; 0x17c0
     fd0:	776f7472 			; <UNDEFINED> instruction: 0x776f7472
     fd4:	735f7363 	cmpvc	pc, #-1946157055	; 0x8c000001
     fd8:	65746174 	ldrbvs	r6, [r4, #-372]!	; 0x174
     fdc:	45534900 	ldrbmi	r4, [r3, #-2304]	; 0x900
     fe0:	665f0052 			; <UNDEFINED> instruction: 0x665f0052
     fe4:	6772616e 	ldrbvs	r6, [r2, -lr, ror #2]!
     fe8:	5f5f0073 	svcpl	0x005f0073
     fec:	695f6d74 	ldmdbvs	pc, {r2, r4, r5, r6, r8, sl, fp, sp, lr}^	; <UNPREDICTABLE>
     ff0:	74736473 	ldrbtvc	r6, [r3], #-1139	; 0x473
     ff4:	414d4400 	cmpmi	sp, r0, lsl #8
     ff8:	68435f31 	stmdavs	r3, {r0, r4, r5, r8, r9, sl, fp, ip, lr}^
     ffc:	656e6e61 	strbvs	r6, [lr, #-3681]!	; 0xe61
    1000:	495f366c 	ldmdbmi	pc, {r2, r3, r5, r6, r9, sl, ip, sp}^	; <UNPREDICTABLE>
    1004:	006e5152 	rsbeq	r5, lr, r2, asr r1
    1008:	6d745f5f 	ldclvs	15, cr5, [r4, #-380]!	; 0xfffffe84
    100c:	6e696d5f 	mcrvs	13, 3, r6, cr9, cr15, {2}
    1010:	65675f00 	strbvs	r5, [r7, #-3840]!	; 0xf00
    1014:	74616474 	strbtvc	r6, [r1], #-1140	; 0x474
    1018:	72655f65 	rsbvc	r5, r5, #404	; 0x194
    101c:	54520072 	ldrbpl	r0, [r2], #-114	; 0x72
    1020:	52495f43 	subpl	r5, r9, #268	; 0x10c
    1024:	52006e51 	andpl	r6, r0, #1296	; 0x510
    1028:	485f4343 	ldmdami	pc, {r0, r1, r6, r8, r9, lr}^	; <UNPREDICTABLE>
    102c:	004b4c43 	subeq	r4, fp, r3, asr #24
    1030:	5f434352 	svcpl	0x00434352
    1034:	43434441 	movtmi	r4, #13377	; 0x3441
    1038:	6f434b4c 	svcvs	0x00434b4c
    103c:	6769666e 	strbvs	r6, [r9, -lr, ror #12]!
    1040:	43435200 	movtmi	r5, #12800	; 0x3200
    1044:	656c435f 	strbvs	r4, [ip, #-863]!	; 0x35f
    1048:	54497261 	strbpl	r7, [r9], #-609	; 0x261
    104c:	646e6550 	strbtvs	r6, [lr], #-1360	; 0x550
    1050:	42676e69 	rsbmi	r6, r7, #1680	; 0x690
    1054:	52007469 	andpl	r7, r0, #1761607680	; 0x69000000
    1058:	415f4343 	cmpmi	pc, r3, asr #6
    105c:	50324250 	eorspl	r4, r2, r0, asr r2
    1060:	70697265 	rsbvc	r7, r9, r5, ror #4
    1064:	73655268 	cmnvc	r5, #104, 4	; 0x80000006
    1068:	6d437465 	cfstrdvs	mvd7, [r3, #-404]	; 0xfffffe6c
    106c:	43520064 	cmpmi	r2, #100	; 0x64
    1070:	534c5f43 	movtpl	r5, #53059	; 0xcf43
    1074:	43520045 	cmpmi	r2, #69	; 0x45
    1078:	65475f43 	strbvs	r5, [r7, #-3907]	; 0xf43
    107c:	53544974 	cmppl	r4, #116, 18	; 0x1d0000
    1080:	75746174 	ldrbvc	r6, [r4, #-372]!	; 0x174
    1084:	43520073 	cmpmi	r2, #115	; 0x73
    1088:	50415f43 	subpl	r5, r1, r3, asr #30
    108c:	65503242 	ldrbvs	r3, [r0, #-578]	; 0x242
    1090:	68706972 	ldmdavs	r0!, {r1, r4, r5, r6, r8, fp, sp, lr}^
    1094:	43435200 	movtmi	r5, #12800	; 0x3200
    1098:	4c43505f 	mcrrmi	0, 5, r5, r3, cr15
    109c:	5200324b 	andpl	r3, r0, #-1342177276	; 0xb0000004
    10a0:	505f4343 	subspl	r4, pc, r3, asr #6
    10a4:	6d434c4c 	stclvs	12, cr4, [r3, #-304]	; 0xfffffed0
    10a8:	43520064 	cmpmi	r2, #100	; 0x64
    10ac:	6c435f43 	mcrrvs	15, 4, r5, r3, cr3
    10b0:	736b636f 	cmnvc	fp, #-1140850687	; 0xbc000001
    10b4:	65707954 	ldrbvs	r7, [r0, #-2388]!	; 0x954
    10b8:	00666544 	rsbeq	r6, r6, r4, asr #10
    10bc:	5f434352 	svcpl	0x00434352
    10c0:	4d4c4c50 	stclmi	12, cr4, [ip, #-320]	; 0xfffffec0
    10c4:	52006c75 	andpl	r6, r0, #29952	; 0x7500
    10c8:	415f4343 	cmpmi	pc, r3, asr #6
    10cc:	65504248 	ldrbvs	r4, [r0, #-584]	; 0x248
    10d0:	68706972 	ldmdavs	r0!, {r1, r4, r5, r6, r8, fp, sp, lr}^
    10d4:	636f6c43 	cmnvs	pc, #17152	; 0x4300
    10d8:	646d436b 	strbtvs	r4, [sp], #-875	; 0x36b
    10dc:	4c434800 	mcrrmi	8, 0, r4, r3, cr0
    10e0:	72465f4b 	subvc	r5, r6, #300	; 0x12c
    10e4:	65757165 	ldrbvs	r7, [r5, #-357]!	; 0x165
    10e8:	0079636e 	rsbseq	r6, r9, lr, ror #6
    10ec:	5f434352 	svcpl	0x00434352
    10f0:	31425041 	cmpcc	r2, r1, asr #32
    10f4:	69726550 	ldmdbvs	r2!, {r4, r6, r8, sl, sp, lr}^
    10f8:	70006870 	andvc	r6, r0, r0, ror r8
    10fc:	63736572 	cmnvs	r3, #478150656	; 0x1c800000
    1100:	43435200 	movtmi	r5, #12800	; 0x3200
    1104:	4f434d5f 	svcmi	0x00434d5f
    1108:	666e6f43 	strbtvs	r6, [lr], -r3, asr #30
    110c:	52006769 	andpl	r6, r0, #27525120	; 0x1a40000
    1110:	445f4343 	ldrbmi	r4, [pc], #-835	; 1118 <g_pfnVectors-0x7ffeee8>
    1114:	696e4965 	stmdbvs	lr!, {r0, r2, r5, r6, r8, fp, lr}^
    1118:	43520074 	cmpmi	r2, #116	; 0x74
    111c:	61575f43 	cmpvs	r7, r3, asr #30
    1120:	6f467469 	svcvs	0x00467469
    1124:	45534872 	ldrbmi	r4, [r3, #-2162]	; 0x872
    1128:	72617453 	rsbvc	r7, r1, #1392508928	; 0x53000000
    112c:	00705574 	rsbseq	r5, r0, r4, ror r5
    1130:	5f434352 	svcpl	0x00434352
    1134:	43435452 	movtmi	r5, #13394	; 0x3452
    1138:	6f534b4c 	svcvs	0x00534b4c
    113c:	65637275 	strbvs	r7, [r3, #-629]!	; 0x275
    1140:	43555300 	cmpmi	r5, #0, 6
    1144:	53534543 	cmppl	r3, #281018368	; 0x10c00000
    1148:	43435200 	movtmi	r5, #12800	; 0x3200
    114c:	4250415f 	subsmi	r4, r0, #-1073741801	; 0xc0000017
    1150:	72655031 	rsbvc	r5, r5, #49	; 0x31
    1154:	52687069 	rsbpl	r7, r8, #105	; 0x69
    1158:	74657365 	strbtvc	r7, [r5], #-869	; 0x365
    115c:	00646d43 	rsbeq	r6, r4, r3, asr #26
    1160:	5f434352 	svcpl	0x00434352
    1164:	434c4c50 	movtmi	r4, #52304	; 0xcc50
    1168:	69666e6f 	stmdbvs	r6!, {r0, r1, r2, r3, r5, r6, r9, sl, fp, sp, lr}^
    116c:	72450067 	subvc	r0, r5, #103	; 0x67
    1170:	53726f72 	cmnpl	r2, #456	; 0x1c8
    1174:	75746174 	ldrbvc	r6, [r4, #-372]!	; 0x174
    1178:	43520073 	cmpmi	r2, #115	; 0x73
    117c:	53555f43 	cmppl	r5, #268	; 0x10c
    1180:	4b4c4342 	blmi	1311e90 <g_pfnVectors-0x6cee170>
    1184:	666e6f43 	strbtvs	r6, [lr], -r3, asr #30
    1188:	52006769 	andpl	r6, r0, #27525120	; 0x1a40000
    118c:	4c5f4343 	mrrcmi	3, 4, r4, pc, cr3	; <UNPREDICTABLE>
    1190:	6d434953 	stclvs	9, cr4, [r3, #-332]	; 0xfffffeb4
    1194:	43520064 	cmpmi	r2, #100	; 0x64
    1198:	65475f43 	strbvs	r5, [r7, #-3907]	; 0xf43
    119c:	53595374 	cmppl	r9, #116, 6	; 0xd0000001
    11a0:	534b4c43 	movtpl	r4, #48195	; 0xbc43
    11a4:	6372756f 	cmnvs	r2, #465567744	; 0x1bc00000
    11a8:	52450065 	subpl	r0, r5, #101	; 0x65
    11ac:	00524f52 	subseq	r4, r2, r2, asr pc
    11b0:	5f434352 	svcpl	0x00434352
    11b4:	4b4c4350 	blmi	1311efc <g_pfnVectors-0x6cee104>
    11b8:	6e6f4331 	mcrvs	3, 3, r4, cr15, cr1, {1}
    11bc:	00676966 	rsbeq	r6, r7, r6, ror #18
    11c0:	74617473 	strbtvc	r7, [r1], #-1139	; 0x473
    11c4:	65727375 	ldrbvs	r7, [r2, #-885]!	; 0x375
    11c8:	43520067 	cmpmi	r2, #103	; 0x67
    11cc:	50415f43 	subpl	r5, r1, r3, asr #30
    11d0:	65503142 	ldrbvs	r3, [r0, #-322]	; 0x142
    11d4:	68706972 	ldmdavs	r0!, {r1, r4, r5, r6, r8, fp, sp, lr}^
    11d8:	636f6c43 	cmnvs	pc, #17152	; 0x4300
    11dc:	646d436b 	strbtvs	r4, [sp], #-875	; 0x36b
    11e0:	43435200 	movtmi	r5, #12800	; 0x3200
    11e4:	6f6c435f 	svcvs	0x006c435f
    11e8:	00736b63 	rsbseq	r6, r3, r3, ror #22
    11ec:	5f434352 	svcpl	0x00434352
    11f0:	6b636142 	blvs	18d9700 <g_pfnVectors-0x6726900>
    11f4:	65527075 	ldrbvs	r7, [r2, #-117]	; 0x75
    11f8:	43746573 	cmnmi	r4, #482344960	; 0x1cc00000
    11fc:	5200646d 	andpl	r6, r0, #1828716544	; 0x6d000000
    1200:	465f4343 	ldrbmi	r4, [pc], -r3, asr #6
    1204:	0047414c 	subeq	r4, r7, ip, asr #2
    1208:	5f434352 	svcpl	0x00434352
    120c:	534c4c50 	movtpl	r4, #52304	; 0xcc50
    1210:	6372756f 	cmnvs	r2, #465567744	; 0x1bc00000
    1214:	43520065 	cmpmi	r2, #101	; 0x65
    1218:	59535f43 	ldmdbpl	r3, {r0, r1, r6, r8, r9, sl, fp, ip, lr}^
    121c:	4b4c4353 	blmi	1311f70 <g_pfnVectors-0x6cee090>
    1220:	666e6f43 	strbtvs	r6, [lr], -r3, asr #30
    1224:	52006769 	andpl	r6, r0, #27525120	; 0x1a40000
    1228:	475f4343 	ldrbmi	r4, [pc, -r3, asr #6]
    122c:	6c467465 	cfstrdvs	mvd7, [r6], {101}	; 0x65
    1230:	74536761 	ldrbvc	r6, [r3], #-1889	; 0x761
    1234:	73757461 	cmnvc	r5, #1627389952	; 0x61000000
    1238:	43435200 	movtmi	r5, #12800	; 0x3200
    123c:	4354525f 	cmpmi	r4, #-268435451	; 0xf0000005
    1240:	434b4c43 	movtmi	r4, #48195	; 0xbc43
    1244:	69666e6f 	stmdbvs	r6!, {r0, r1, r2, r3, r5, r6, r9, sl, fp, sp, lr}^
    1248:	43520067 	cmpmi	r2, #103	; 0x67
    124c:	53555f43 	cmppl	r5, #268	; 0x10c
    1250:	4b4c4342 	blmi	1311f60 <g_pfnVectors-0x6cee0a0>
    1254:	72756f53 	rsbsvc	r6, r5, #332	; 0x14c
    1258:	52006563 	andpl	r6, r0, #415236096	; 0x18c00000
    125c:	435f4343 	cmpmi	pc, #201326593	; 0xc000001
    1260:	7261656c 	rsbvc	r6, r1, #108, 10	; 0x1b000000
    1264:	67616c46 	strbvs	r6, [r1, -r6, asr #24]!
    1268:	43435200 	movtmi	r5, #12800	; 0x3200
    126c:	5359535f 	cmppl	r9, #2080374785	; 0x7c000001
    1270:	004b4c43 	subeq	r4, fp, r3, asr #24
    1274:	43434441 	movtmi	r4, #13377	; 0x3441
    1278:	465f4b4c 	ldrbmi	r4, [pc], -ip, asr #22
    127c:	75716572 	ldrbvc	r6, [r1, #-1394]!	; 0x572
    1280:	79636e65 	stmdbvc	r3!, {r0, r2, r5, r6, r9, sl, fp, sp, lr}^
    1284:	43435200 	movtmi	r5, #12800	; 0x3200
    1288:	4553485f 	ldrbmi	r4, [r3, #-2143]	; 0x85f
    128c:	666e6f43 	strbtvs	r6, [lr], -r3, asr #30
    1290:	53006769 	movwpl	r6, #1897	; 0x769
    1294:	4c435359 	mcrrmi	3, 5, r5, r3, cr9
    1298:	72465f4b 	subvc	r5, r6, #300	; 0x12c
    129c:	65757165 	ldrbvs	r7, [r5, #-357]!	; 0x165
    12a0:	0079636e 	rsbseq	r6, r9, lr, ror #6
    12a4:	555c3a43 	ldrbpl	r3, [ip, #-2627]	; 0xa43
    12a8:	73726573 	cmnvc	r2, #482344960	; 0x1cc00000
    12ac:	6f70555c 	svcvs	0x0070555c
    12b0:	6e626172 	mcrvs	1, 3, r6, cr2, cr2, {3}
    12b4:	445c6b69 	ldrbmi	r6, [ip], #-2921	; 0xb69
    12b8:	6d75636f 	ldclvs	3, cr6, [r5, #-444]!	; 0xfffffe44
    12bc:	73746e65 	cmnvc	r4, #1616	; 0x650
    12c0:	6f6f435c 	svcvs	0x006f435c
    12c4:	5c786f43 	ldclpl	15, cr6, [r8], #-268	; 0xfffffef4
    12c8:	334d5453 	movtcc	r5, #54355	; 0xd453
    12cc:	30314632 	eorscc	r4, r1, r2, lsr r6
    12d0:	6c425c33 	mcrrvs	12, 3, r5, r2, cr3
    12d4:	5f6b6e69 	svcpl	0x006b6e69
    12d8:	52415355 	subpl	r5, r1, #1409286145	; 0x54000001
    12dc:	745f3154 	ldrbvc	r3, [pc], #-340	; 12e4 <g_pfnVectors-0x7ffed1c>
    12e0:	5c747365 	ldclpl	3, cr7, [r4], #-404	; 0xfffffe6c
    12e4:	5f6d7473 	svcpl	0x006d7473
    12e8:	5c62696c 	stclpl	9, cr6, [r2], #-432	; 0xfffffe50
    12ec:	5c637273 	sfmpl	f7, 2, [r3], #-460	; 0xfffffe34
    12f0:	336d7473 	cmncc	sp, #1929379840	; 0x73000000
    12f4:	30316632 	eorscc	r6, r1, r2, lsr r6
    12f8:	63725f78 	cmnvs	r2, #120, 30	; 0x1e0
    12fc:	00632e63 	rsbeq	r2, r3, r3, ror #28
    1300:	4b4c4350 	blmi	1312048 <g_pfnVectors-0x6cedfb8>
    1304:	72465f32 	subvc	r5, r6, #50, 30	; 0xc8
    1308:	65757165 	ldrbvs	r7, [r5, #-357]!	; 0x165
    130c:	0079636e 	rsbseq	r6, r9, lr, ror #6
    1310:	5f434352 	svcpl	0x00434352
    1314:	6f435449 	svcvs	0x00435449
    1318:	6769666e 	strbvs	r6, [r9, -lr, ror #12]!
    131c:	43435200 	movtmi	r5, #12800	; 0x3200
    1320:	4250415f 	subsmi	r4, r0, #-1073741801	; 0xc0000017
    1324:	72655032 	rsbvc	r5, r5, #50	; 0x32
    1328:	43687069 	cmnmi	r8, #105	; 0x69
    132c:	6b636f6c 	blvs	18dd0e4 <g_pfnVectors-0x6722f1c>
    1330:	00646d43 	rsbeq	r6, r4, r3, asr #26
    1334:	5f434352 	svcpl	0x00434352
    1338:	00455348 	subeq	r5, r5, r8, asr #6
    133c:	5f434352 	svcpl	0x00434352
    1340:	43535953 	cmpmi	r3, #1359872	; 0x14c000
    1344:	6f534b4c 	svcvs	0x00534b4c
    1348:	65637275 	strbvs	r7, [r3, #-629]!	; 0x275
    134c:	4c435000 	marmi	acc0, r5, r3
    1350:	465f314b 	ldrbmi	r3, [pc], -fp, asr #2
    1354:	75716572 	ldrbvc	r6, [r1, #-1394]!	; 0x572
    1358:	79636e65 	stmdbvc	r3!, {r0, r2, r5, r6, r9, sl, fp, sp, lr}^
    135c:	43435200 	movtmi	r5, #12800	; 0x3200
    1360:	45534c5f 	ldrbmi	r4, [r3, #-3167]	; 0xc5f
    1364:	666e6f43 	strbtvs	r6, [lr], -r3, asr #30
    1368:	41006769 	tstmi	r0, r9, ror #14
    136c:	48414250 	stmdami	r1, {r4, r6, r9, lr}^
    1370:	65725042 	ldrbvs	r5, [r2, #-66]!	; 0x42
    1374:	61546373 	cmpvs	r4, r3, ror r3
    1378:	00656c62 	rsbeq	r6, r5, r2, ror #24
    137c:	5f434352 	svcpl	0x00434352
    1380:	43746547 	cmnmi	r4, #297795584	; 0x11c00000
    1384:	6b636f6c 	blvs	18dd13c <g_pfnVectors-0x6722ec4>
    1388:	65724673 	ldrbvs	r4, [r2, #-1651]!	; 0x673
    138c:	43520071 	cmpmi	r2, #113	; 0x71
    1390:	54525f43 	ldrbpl	r5, [r2], #-3907	; 0xf43
    1394:	4b4c4343 	blmi	13120a8 <g_pfnVectors-0x6cedf58>
    1398:	00646d43 	rsbeq	r6, r4, r3, asr #26
    139c:	5f434352 	svcpl	0x00434352
    13a0:	636f6c43 	cmnvs	pc, #17152	; 0x4300
    13a4:	6365536b 	cmnvs	r5, #-1409286143	; 0xac000001
    13a8:	74697275 	strbtvc	r7, [r9], #-629	; 0x275
    13ac:	73795379 	cmnvc	r9, #-469762047	; 0xe4000001
    13b0:	436d6574 	cmnmi	sp, #116, 10	; 0x1d000000
    13b4:	5200646d 	andpl	r6, r0, #1828716544	; 0x6d000000
    13b8:	485f4343 	ldmdami	pc, {r0, r1, r6, r8, r9, lr}^	; <UNPREDICTABLE>
    13bc:	434b4c43 	movtmi	r4, #48195	; 0xbc43
    13c0:	69666e6f 	stmdbvs	r6!, {r0, r1, r2, r3, r5, r6, r9, sl, fp, sp, lr}^
    13c4:	43520067 	cmpmi	r2, #103	; 0x67
    13c8:	53485f43 	movtpl	r5, #36675	; 0x8f43
    13cc:	646d4349 	strbtvs	r4, [sp], #-841	; 0x349
    13d0:	43435200 	movtmi	r5, #12800	; 0x3200
    13d4:	4f434d5f 	svcmi	0x00434d5f
    13d8:	43435200 	movtmi	r5, #12800	; 0x3200
    13dc:	0054495f 	subseq	r4, r4, pc, asr r9
    13e0:	5f434352 	svcpl	0x00434352
    13e4:	756a6441 	strbvc	r6, [sl, #-1089]!	; 0x441
    13e8:	53487473 	movtpl	r7, #33907	; 0x8473
    13ec:	6c614349 	stclvs	3, cr4, [r1], #-292	; 0xfffffedc
    13f0:	61726269 	cmnvs	r2, r9, ror #4
    13f4:	6e6f6974 	mcrvs	9, 3, r6, cr15, cr4, {3}
    13f8:	756c6156 	strbvc	r6, [ip, #-342]!	; 0x156
    13fc:	43520065 	cmpmi	r2, #101	; 0x65
    1400:	48415f43 	stmdami	r1, {r0, r1, r6, r8, r9, sl, fp, ip, lr}^
    1404:	72655042 	rsbvc	r5, r5, #66	; 0x42
    1408:	00687069 	rsbeq	r7, r8, r9, rrx
    140c:	5f434352 	svcpl	0x00434352
    1410:	4b4c4350 	blmi	1312158 <g_pfnVectors-0x6cedea8>
    1414:	6e6f4332 	mcrvs	3, 3, r4, cr15, cr2, {1}
    1418:	00676966 	rsbeq	r6, r7, r6, ror #18
    141c:	50434441 	subpl	r4, r3, r1, asr #8
    1420:	63736572 	cmnvs	r3, #478150656	; 0x1c800000
    1424:	6c626154 	stfvse	f6, [r2], #-336	; 0xfffffeb0
    1428:	6e690065 	cdpvs	0, 6, cr0, cr9, cr5, {3}
    142c:	65676574 	strbvs	r6, [r7, #-1396]!	; 0x574
    1430:	76696472 			; <UNDEFINED> instruction: 0x76696472
    1434:	72656469 	rsbvc	r6, r5, #1761607680	; 0x69000000
    1438:	41535500 	cmpmi	r3, r0, lsl #10
    143c:	435f5452 	cmpmi	pc, #1375731712	; 0x52000000
    1440:	00414850 	subeq	r4, r1, r0, asr r8
    1444:	555c3a43 	ldrbpl	r3, [ip, #-2627]	; 0xa43
    1448:	73726573 	cmnvc	r2, #482344960	; 0x1cc00000
    144c:	6f70555c 	svcvs	0x0070555c
    1450:	6e626172 	mcrvs	1, 3, r6, cr2, cr2, {3}
    1454:	445c6b69 	ldrbmi	r6, [ip], #-2921	; 0xb69
    1458:	6d75636f 	ldclvs	3, cr6, [r5, #-444]!	; 0xfffffe44
    145c:	73746e65 	cmnvc	r4, #1616	; 0x650
    1460:	6f6f435c 	svcvs	0x006f435c
    1464:	5c786f43 	ldclpl	15, cr6, [r8], #-268	; 0xfffffef4
    1468:	334d5453 	movtcc	r5, #54355	; 0xd453
    146c:	30314632 	eorscc	r4, r1, r2, lsr r6
    1470:	6c425c33 	mcrrvs	12, 3, r5, r2, cr3
    1474:	5f6b6e69 	svcpl	0x006b6e69
    1478:	52415355 	subpl	r5, r1, #1409286145	; 0x54000001
    147c:	745f3154 	ldrbvc	r3, [pc], #-340	; 1484 <g_pfnVectors-0x7ffeb7c>
    1480:	5c747365 	ldclpl	3, cr7, [r4], #-404	; 0xfffffe6c
    1484:	5f6d7473 	svcpl	0x006d7473
    1488:	5c62696c 	stclpl	9, cr6, [r2], #-432	; 0xfffffe50
    148c:	5c637273 	sfmpl	f7, 2, [r3], #-460	; 0xfffffe34
    1490:	336d7473 	cmncc	sp, #1929379840	; 0x73000000
    1494:	30316632 	eorscc	r6, r1, r2, lsr r6
    1498:	73755f78 	cmnvc	r5, #120, 30	; 0x1e0
    149c:	2e747261 	cdpcs	2, 7, cr7, cr4, cr1, {3}
    14a0:	53550063 	cmppl	r5, #99	; 0x63
    14a4:	5f545241 	svcpl	0x00545241
    14a8:	50746553 	rsbspl	r6, r4, r3, asr r5
    14ac:	63736572 	cmnvs	r3, #478150656	; 0x1c800000
    14b0:	72656c61 	rsbvc	r6, r5, #24832	; 0x6100
    14b4:	41535500 	cmpmi	r3, r0, lsl #10
    14b8:	495f5452 	ldmdbmi	pc, {r1, r4, r6, sl, ip, lr}^	; <UNPREDICTABLE>
    14bc:	0074696e 	rsbseq	r6, r4, lr, ror #18
    14c0:	52415355 	subpl	r5, r1, #1409286145	; 0x54000001
    14c4:	494c5f54 	stmdbmi	ip, {r2, r4, r6, r8, r9, sl, fp, ip, lr}^
    14c8:	6572424e 	ldrbvs	r4, [r2, #-590]!	; 0x24e
    14cc:	65446b61 	strbvs	r6, [r4, #-2913]	; 0xb61
    14d0:	74636574 	strbtvc	r6, [r3], #-1396	; 0x574
    14d4:	676e654c 	strbvs	r6, [lr, -ip, asr #10]!
    14d8:	55006874 	strpl	r6, [r0, #-2164]	; 0x874
    14dc:	54524153 	ldrbpl	r4, [r2], #-339	; 0x153
    14e0:	656e4f5f 	strbvs	r4, [lr, #-3935]!	; 0xf5f
    14e4:	4d746942 	ldclmi	9, cr6, [r4, #-264]!	; 0xfffffef8
    14e8:	6f687465 	svcvs	0x00687465
    14ec:	646d4364 	strbtvs	r4, [sp], #-868	; 0x364
    14f0:	41535500 	cmpmi	r3, r0, lsl #10
    14f4:	435f5452 	cmpmi	pc, #1375731712	; 0x52000000
    14f8:	6b636f6c 	blvs	18dd2b0 <g_pfnVectors-0x6722d50>
    14fc:	74696e49 	strbtvc	r6, [r9], #-3657	; 0xe49
    1500:	65707954 	ldrbvs	r7, [r0, #-2388]!	; 0x954
    1504:	00666544 	rsbeq	r6, r6, r4, asr #10
    1508:	52415355 	subpl	r5, r1, #1409286145	; 0x54000001
    150c:	6d435f54 	stclvs	15, cr5, [r3, #-336]	; 0xfffffeb0
    1510:	53550064 	cmppl	r5, #100	; 0x64
    1514:	5f545241 	svcpl	0x00545241
    1518:	646e6553 	strbtvs	r6, [lr], #-1363	; 0x553
    151c:	61746144 	cmnvs	r4, r4, asr #2
    1520:	41535500 	cmpmi	r3, r0, lsl #10
    1524:	485f5452 	ldmdami	pc, {r1, r4, r6, sl, ip, lr}^	; <UNPREDICTABLE>
    1528:	44666c61 	strbtmi	r6, [r6], #-3169	; 0xc61
    152c:	656c7075 	strbvs	r7, [ip, #-117]!	; 0x75
    1530:	646d4378 	strbtvs	r4, [sp], #-888	; 0x378
    1534:	41535500 	cmpmi	r3, r0, lsl #10
    1538:	575f5452 			; <UNDEFINED> instruction: 0x575f5452
    153c:	55656b61 	strbpl	r6, [r5, #-2913]!	; 0xb61
    1540:	53550070 	cmppl	r5, #112	; 0x70
    1544:	5f545241 	svcpl	0x00545241
    1548:	43414d44 	movtmi	r4, #7492	; 0x1d44
    154c:	5500646d 	strpl	r6, [r0, #-1133]	; 0x46d
    1550:	54524153 	ldrbpl	r4, [r2], #-339	; 0x153
    1554:	73614c5f 	cmnvc	r1, #24320	; 0x5f00
    1558:	74694274 	strbtvc	r4, [r9], #-628	; 0x274
    155c:	41535500 	cmpmi	r3, r0, lsl #10
    1560:	495f5452 	ldmdbmi	pc, {r1, r4, r6, sl, ip, lr}^	; <UNPREDICTABLE>
    1564:	4d414472 	cfstrdmi	mvd4, [r1, #-456]	; 0xfffffe38
    1568:	0065646f 	rsbeq	r6, r5, pc, ror #8
    156c:	63627061 	cmnvs	r2, #97	; 0x61
    1570:	6b636f6c 	blvs	18dd328 <g_pfnVectors-0x6722cd8>
    1574:	41535500 	cmpmi	r3, r0, lsl #10
    1578:	435f5452 	cmpmi	pc, #1375731712	; 0x52000000
    157c:	7261656c 	rsbvc	r6, r1, #108, 10	; 0x1b000000
    1580:	65505449 	ldrbvs	r5, [r0, #-1097]	; 0x449
    1584:	6e69646e 	cdpvs	4, 6, cr6, cr9, cr14, {3}
    1588:	74694267 	strbtvc	r4, [r9], #-615	; 0x267
    158c:	41535500 	cmpmi	r3, r0, lsl #10
    1590:	475f5452 			; <UNDEFINED> instruction: 0x475f5452
    1594:	64726175 	ldrbtvs	r6, [r2], #-373	; 0x175
    1598:	656d6954 	strbvs	r6, [sp, #-2388]!	; 0x954
    159c:	41535500 	cmpmi	r3, r0, lsl #10
    15a0:	4c5f5452 	cfldrdmi	mvd5, [pc], {82}	; 0x52
    15a4:	72424e49 	subvc	r4, r2, #1168	; 0x490
    15a8:	446b6165 	strbtmi	r6, [fp], #-357	; 0x165
    15ac:	63657465 	cmnvs	r5, #1694498816	; 0x65000000
    15b0:	6e654c74 	mcrvs	12, 3, r4, cr5, cr4, {3}
    15b4:	43687467 	cmnmi	r8, #1728053248	; 0x67000000
    15b8:	69666e6f 	stmdbvs	r6!, {r0, r1, r2, r3, r5, r6, r9, sl, fp, sp, lr}^
    15bc:	53550067 	cmppl	r5, #103	; 0x67
    15c0:	5f545241 	svcpl	0x00545241
    15c4:	47414c46 	strbmi	r4, [r1, -r6, asr #24]
    15c8:	41535500 	cmpmi	r3, r0, lsl #10
    15cc:	445f5452 	ldrbmi	r5, [pc], #-1106	; 15d4 <g_pfnVectors-0x7ffea2c>
    15d0:	696e4965 	stmdbvs	lr!, {r0, r2, r5, r6, r8, fp, lr}^
    15d4:	53550074 	cmppl	r5, #116	; 0x74
    15d8:	5f545241 	svcpl	0x00545241
    15dc:	636f6c43 	cmnvs	pc, #17152	; 0x4300
    15e0:	696e496b 	stmdbvs	lr!, {r0, r1, r3, r5, r6, r8, fp, lr}^
    15e4:	72745374 	rsbsvc	r5, r4, #116, 6	; 0xd0000001
    15e8:	00746375 	rsbseq	r6, r4, r5, ror r3
    15ec:	52415355 	subpl	r5, r1, #1409286145	; 0x54000001
    15f0:	4d445f54 	stclmi	15, cr5, [r4, #-336]	; 0xfffffeb0
    15f4:	71655241 	cmnvc	r5, r1, asr #4
    15f8:	41535500 	cmpmi	r3, r0, lsl #10
    15fc:	435f5452 	cmpmi	pc, #1375731712	; 0x52000000
    1600:	6b636f6c 	blvs	18dd3b8 <g_pfnVectors-0x6722c48>
    1604:	75727453 	ldrbvc	r7, [r2, #-1107]!	; 0x453
    1608:	6e497463 	cdpvs	4, 4, cr7, cr9, cr3, {3}
    160c:	75007469 	strvc	r7, [r0, #-1129]	; 0x469
    1610:	74726173 	ldrbtvc	r6, [r2], #-371	; 0x173
    1614:	73616278 	cmnvc	r1, #120, 4	; 0x80000007
    1618:	53550065 	cmppl	r5, #101	; 0x65
    161c:	5f545241 	svcpl	0x00545241
    1620:	61656c43 	cmnvs	r5, r3, asr #24
    1624:	616c4672 	smcvs	50274	; 0xc462
    1628:	53550067 	cmppl	r5, #103	; 0x67
    162c:	5f545241 	svcpl	0x00545241
    1630:	41746553 	cmnmi	r4, r3, asr r5
    1634:	65726464 	ldrbvs	r6, [r2, #-1124]!	; 0x464
    1638:	55007373 	strpl	r7, [r0, #-883]	; 0x373
    163c:	54524153 	ldrbpl	r4, [r2], #-339	; 0x153
    1640:	7465535f 	strbtvc	r5, [r5], #-863	; 0x35f
    1644:	72617547 	rsbvc	r7, r1, #297795584	; 0x11c00000
    1648:	6d695464 	cfstrdvs	mvd5, [r9, #-400]!	; 0xfffffe70
    164c:	53550065 	cmppl	r5, #101	; 0x65
    1650:	5f545241 	svcpl	0x00545241
    1654:	646e6553 	strbtvs	r6, [lr], #-1363	; 0x553
    1658:	61657242 	cmnvs	r5, r2, asr #4
    165c:	5355006b 	cmppl	r5, #107	; 0x6b
    1660:	5f545241 	svcpl	0x00545241
    1664:	6f435449 	svcvs	0x00435449
    1668:	6769666e 	strbvs	r6, [r9, -lr, ror #12]!
    166c:	41535500 	cmpmi	r3, r0, lsl #10
    1670:	00785452 	rsbseq	r5, r8, r2, asr r4
    1674:	70746962 	rsbsvc	r6, r4, r2, ror #18
    1678:	5500736f 	strpl	r7, [r0, #-879]	; 0x36f
    167c:	54524153 	ldrbpl	r4, [r2], #-339	; 0x153
    1680:	696e495f 	stmdbvs	lr!, {r0, r1, r2, r3, r4, r6, r8, fp, lr}^
    1684:	72745374 	rsbsvc	r5, r4, #116, 6	; 0xd0000001
    1688:	00746375 	rsbseq	r6, r4, r5, ror r3
    168c:	52415355 	subpl	r5, r1, #1409286145	; 0x54000001
    1690:	64415f54 	strbvs	r5, [r1], #-3924	; 0xf54
    1694:	73657264 	cmnvc	r5, #100, 4	; 0x40000006
    1698:	53550073 	cmppl	r5, #115	; 0x73
    169c:	5f545241 	svcpl	0x00545241
    16a0:	7265764f 	rsbvc	r7, r5, #82837504	; 0x4f00000
    16a4:	706d6153 	rsbvc	r6, sp, r3, asr r1
    16a8:	676e696c 	strbvs	r6, [lr, -ip, ror #18]!
    16ac:	646d4338 	strbtvs	r4, [sp], #-824	; 0x338
    16b0:	41535500 	cmpmi	r3, r0, lsl #10
    16b4:	475f5452 			; <UNDEFINED> instruction: 0x475f5452
    16b8:	54497465 	strbpl	r7, [r9], #-1125	; 0x465
    16bc:	74617453 	strbtvc	r7, [r1], #-1107	; 0x453
    16c0:	55007375 	strpl	r7, [r0, #-885]	; 0x375
    16c4:	54524153 	ldrbpl	r4, [r2], #-339	; 0x153
    16c8:	4472495f 	ldrbtmi	r4, [r2], #-2399	; 0x95f
    16cc:	6e6f4341 	cdpvs	3, 6, cr4, cr15, cr1, {2}
    16d0:	00676966 	rsbeq	r6, r7, r6, ror #18
    16d4:	52415355 	subpl	r5, r1, #1409286145	; 0x54000001
    16d8:	6c435f54 	mcrrvs	15, 5, r5, r3, cr4
    16dc:	006b636f 	rsbeq	r6, fp, pc, ror #6
    16e0:	52415355 	subpl	r5, r1, #1409286145	; 0x54000001
    16e4:	65525f54 	ldrbvs	r5, [r2, #-3924]	; 0xf54
    16e8:	76696563 	strbtvc	r6, [r9], -r3, ror #10
    16ec:	61577265 	cmpvs	r7, r5, ror #4
    16f0:	7055656b 	subsvc	r6, r5, fp, ror #10
    16f4:	00646d43 	rsbeq	r6, r4, r3, asr #26
    16f8:	52415355 	subpl	r5, r1, #1409286145	; 0x54000001
    16fc:	72495f54 	subvc	r5, r9, #84, 30	; 0x150
    1700:	6d434144 	stfvse	f4, [r3, #-272]	; 0xfffffef0
    1704:	53550064 	cmppl	r5, #100	; 0x64
    1708:	5f545241 	svcpl	0x00545241
    170c:	434e494c 	movtmi	r4, #59724	; 0xe94c
    1710:	6600646d 	strvs	r6, [r0], -sp, ror #8
    1714:	74636172 	strbtvc	r6, [r3], #-370	; 0x172
    1718:	616e6f69 	cmnvs	lr, r9, ror #30
    171c:	7669646c 	strbtvc	r6, [r9], -ip, ror #8
    1720:	72656469 	rsbvc	r6, r5, #1761607680	; 0x69000000
    1724:	41535500 	cmpmi	r3, r0, lsl #10
    1728:	535f5452 	cmppl	pc, #1375731712	; 0x52000000
    172c:	7472616d 	ldrbtvc	r6, [r2], #-365	; 0x16d
    1730:	64726143 	ldrbtvs	r6, [r2], #-323	; 0x143
    1734:	4b43414e 	blmi	10d1c74 <g_pfnVectors-0x6f2e38c>
    1738:	00646d43 	rsbeq	r6, r4, r3, asr #26
    173c:	52415355 	subpl	r5, r1, #1409286145	; 0x54000001
    1740:	65475f54 	strbvs	r5, [r7, #-3924]	; 0xf54
    1744:	616c4674 	smcvs	50276	; 0xc464
    1748:	61745367 	cmnvs	r4, r7, ror #6
    174c:	00737574 	rsbseq	r7, r3, r4, ror r5
    1750:	52415355 	subpl	r5, r1, #1409286145	; 0x54000001
    1754:	6d535f54 	ldclvs	15, cr5, [r3, #-336]	; 0xfffffeb0
    1758:	43747261 	cmnmi	r4, #268435462	; 0x10000006
    175c:	43647261 	cmnmi	r4, #268435462	; 0x10000006
    1760:	5500646d 	strpl	r6, [r0, #-1133]	; 0x46d
    1764:	54524153 	ldrbpl	r4, [r2], #-339	; 0x153
    1768:	0054495f 	subseq	r4, r4, pc, asr r9
    176c:	5f434352 	svcpl	0x00434352
    1770:	636f6c43 	cmnvs	pc, #17152	; 0x4300
    1774:	7453736b 	ldrbvc	r7, [r3], #-875	; 0x36b
    1778:	73757461 	cmnvc	r5, #1627389952	; 0x61000000
    177c:	41535500 	cmpmi	r3, r0, lsl #10
    1780:	435f5452 	cmpmi	pc, #1375731712	; 0x52000000
    1784:	6b636f6c 	blvs	18dd53c <g_pfnVectors-0x6722ac4>
    1788:	74696e49 	strbtvc	r6, [r9], #-3657	; 0xe49
    178c:	41535500 	cmpmi	r3, r0, lsl #10
    1790:	575f5452 			; <UNDEFINED> instruction: 0x575f5452
    1794:	55656b61 	strbpl	r6, [r5, #-2913]!	; 0xb61
    1798:	6e6f4370 	mcrvs	3, 3, r4, cr15, cr0, {3}
    179c:	00676966 	rsbeq	r6, r7, r6, ror #18
    17a0:	52415355 	subpl	r5, r1, #1409286145	; 0x54000001
    17a4:	65525f54 	ldrbvs	r5, [r2, #-3924]	; 0xf54
    17a8:	76696563 	strbtvc	r6, [r9], -r3, ror #10
    17ac:	74614465 	strbtvc	r4, [r1], #-1125	; 0x465
    17b0:	53550061 	cmppl	r5, #97	; 0x61
    17b4:	5f545241 	svcpl	0x00545241
    17b8:	73657250 	cmnvc	r5, #80, 4
    17bc:	656c6163 	strbvs	r6, [ip, #-355]!	; 0x163
    17c0:	53550072 	cmppl	r5, #114	; 0x72
    17c4:	5f545241 	svcpl	0x00545241
    17c8:	4c4f5043 	mcrrmi	0, 4, r5, pc, cr3
    17cc:	6d746900 	ldclvs	9, cr6, [r4, #-0]
    17d0:	006b7361 	rsbeq	r7, fp, r1, ror #6
    17d4:	72617375 	rsbvc	r7, r1, #-738197503	; 0xd4000001
    17d8:	67657274 			; <UNDEFINED> instruction: 0x67657274
    17dc:	41535500 	cmpmi	r3, r0, lsl #10
    17e0:	535f5452 	cmppl	pc, #1375731712	; 0x52000000
    17e4:	63757274 	cmnvs	r5, #116, 4	; 0x40000007
    17e8:	696e4974 	stmdbvs	lr!, {r2, r4, r5, r6, r8, fp, lr}^
    17ec:	74730074 	ldrbtvc	r0, [r3], #-116	; 0x74
    17f0:	6564725f 	strbvs	r7, [r4, #-607]!	; 0x25f
    17f4:	3a430076 	bcc	10c19d4 <g_pfnVectors-0x6f3e62c>
    17f8:	6573555c 	ldrbvs	r5, [r3, #-1372]!	; 0x55c
    17fc:	555c7372 	ldrbpl	r7, [ip, #-882]	; 0x372
    1800:	61726f70 	cmnvs	r2, r0, ror pc
    1804:	6b696e62 	blvs	1a5d194 <g_pfnVectors-0x65a2e6c>
    1808:	636f445c 	cmnvs	pc, #92, 8	; 0x5c000000
    180c:	6e656d75 	mcrvs	13, 3, r6, cr5, cr5, {3}
    1810:	435c7374 	cmpmi	ip, #116, 6	; 0xd0000001
    1814:	6f436f6f 	svcvs	0x00436f6f
    1818:	54535c78 	ldrbpl	r5, [r3], #-3192	; 0xc78
    181c:	4632334d 	ldrtmi	r3, [r2], -sp, asr #6
    1820:	5c333031 	ldcpl	0, cr3, [r3], #-196	; 0xffffff3c
    1824:	6e696c42 	cdpvs	12, 6, cr6, cr9, cr2, {2}
    1828:	53555f6b 	cmppl	r5, #428	; 0x1ac
    182c:	31545241 	cmpcc	r4, r1, asr #4
    1830:	7365745f 	cmnvc	r5, #1593835520	; 0x5f000000
    1834:	79735c74 	ldmdbvc	r3!, {r2, r4, r5, r6, sl, fp, ip, lr}^
    1838:	6c616373 	stclvs	3, cr6, [r1], #-460	; 0xfffffe34
    183c:	735c736c 	cmpvc	ip, #108, 6	; 0xb0000001
    1840:	61637379 	smcvs	14137	; 0x3739
    1844:	2e736c6c 	cdpcs	12, 7, cr6, cr3, cr12, {3}
    1848:	6f6d0063 	svcvs	0x006d0063
    184c:	745f6564 	ldrbvc	r6, [pc], #-1380	; 1854 <g_pfnVectors-0x7ffe7ac>
    1850:	5f747300 	svcpl	0x00747300
    1854:	6d697463 	cfstrdvs	mvd7, [r9, #-396]!	; 0xfffffe74
    1858:	74730065 	ldrbtvc	r0, [r3], #-101	; 0x65
    185c:	7665645f 			; <UNDEFINED> instruction: 0x7665645f
    1860:	73665f00 	cmnvc	r6, #0, 30
    1864:	00746174 	rsbseq	r6, r4, r4, ror r1
    1868:	6e696c6e 	cdpvs	12, 6, cr6, cr9, cr14, {3}
    186c:	00745f6b 	rsbseq	r5, r4, fp, ror #30
    1870:	625f7473 	subsvs	r7, pc, #1929379840	; 0x73000000
    1874:	69736b6c 	ldmdbvs	r3!, {r2, r3, r5, r6, r8, r9, fp, sp, lr}^
    1878:	5f00657a 	svcpl	0x0000657a
    187c:	74617369 	strbtvc	r7, [r1], #-873	; 0x369
    1880:	73007974 	movwvc	r7, #2420	; 0x974
    1884:	69675f74 	stmdbvs	r7!, {r2, r4, r5, r6, r8, r9, sl, fp, ip, lr}^
    1888:	6e690064 	cdpvs	0, 6, cr0, cr9, cr4, {3}
    188c:	00745f6f 	rsbseq	r5, r4, pc, ror #30
    1890:	646e655f 	strbtvs	r6, [lr], #-1375	; 0x55f
    1894:	5f747300 	svcpl	0x00747300
    1898:	6d697461 	cfstrdvs	mvd7, [r9, #-388]!	; 0xfffffe7c
    189c:	74730065 	ldrbtvc	r0, [r3], #-101	; 0x65
    18a0:	7a69735f 	bvc	1a5e624 <g_pfnVectors-0x65a19dc>
    18a4:	6e690065 	cdpvs	0, 6, cr0, cr9, cr5, {3}
    18a8:	74007263 	strvc	r7, [r0], #-611	; 0x263
    18ac:	5f656d69 	svcpl	0x00656d69
    18b0:	62610074 	rsbvs	r0, r1, #116	; 0x74
    18b4:	0074726f 	rsbseq	r7, r4, pc, ror #4
    18b8:	695f7473 	ldmdbvs	pc, {r0, r1, r4, r5, r6, sl, ip, sp, lr}^	; <UNPREDICTABLE>
    18bc:	73006f6e 	movwvc	r6, #3950	; 0xf6e
    18c0:	6c6e5f74 	stclvs	15, cr5, [lr], #-464	; 0xfffffe30
    18c4:	006b6e69 	rsbeq	r6, fp, r9, ror #28
    18c8:	6d5f7473 	cfldrdvs	mvd7, [pc, #-460]	; 1704 <g_pfnVectors-0x7ffe8fc>
    18cc:	656d6974 	strbvs	r6, [sp, #-2420]!	; 0x974
    18d0:	5f747300 	svcpl	0x00747300
    18d4:	72617073 	rsbvc	r7, r1, #115	; 0x73
    18d8:	5f003265 	svcpl	0x00003265
    18dc:	6b726273 	blvs	1c9a2b0 <g_pfnVectors-0x6365d50>
    18e0:	64616300 	strbtvs	r6, [r1], #-768	; 0x300
    18e4:	745f7264 	ldrbvc	r7, [pc], #-612	; 18ec <g_pfnVectors-0x7ffe714>
    18e8:	5f747300 	svcpl	0x00747300
    18ec:	636f6c62 	cmnvs	pc, #25088	; 0x6200
    18f0:	7300736b 	movwvc	r7, #875	; 0x36b
    18f4:	69755f74 	ldmdbvs	r5!, {r2, r4, r5, r6, r8, r9, sl, fp, ip, lr}^
    18f8:	72700064 	rsbsvc	r0, r0, #100	; 0x64
    18fc:	685f7665 	ldmdavs	pc, {r0, r2, r5, r6, r9, sl, ip, sp, lr}^	; <UNPREDICTABLE>
    1900:	00706165 	rsbseq	r6, r0, r5, ror #2
    1904:	735f7473 	cmpvc	pc, #1929379840	; 0x73000000
    1908:	65726170 	ldrbvs	r6, [r2, #-368]!	; 0x170
    190c:	74730031 	ldrbtvc	r0, [r3], #-49	; 0x31
    1910:	6170735f 	cmnvs	r0, pc, asr r3
    1914:	00336572 	eorseq	r6, r3, r2, ror r5
    1918:	735f7473 	cmpvc	pc, #1929379840	; 0x73000000
    191c:	65726170 	ldrbvs	r6, [r2, #-368]!	; 0x170
    1920:	6c5f0034 	mrrcvs	0, 3, r0, pc, cr4	; <UNPREDICTABLE>
    1924:	6b656573 	blvs	195aef8 <g_pfnVectors-0x66a5108>
    1928:	645f5f00 	ldrbvs	r5, [pc], #-3840	; 1930 <g_pfnVectors-0x7ffe6d0>
    192c:	745f7665 	ldrbvc	r7, [pc], #-1637	; 1934 <g_pfnVectors-0x7ffe6cc>
    1930:	755f5f00 	ldrbvc	r5, [pc, #-3840]	; a38 <g_pfnVectors-0x7fff5c8>
    1934:	745f6469 	ldrbvc	r6, [pc], #-1129	; 193c <g_pfnVectors-0x7ffe6c4>
    1938:	5f747300 	svcpl	0x00747300
    193c:	65646f6d 	strbvs	r6, [r4, #-3949]!	; 0xf6d
    1940:	675f5f00 	ldrbvs	r5, [pc, -r0, lsl #30]
    1944:	745f6469 	ldrbvc	r6, [pc], #-1129	; 194c <g_pfnVectors-0x7ffe6b4>
	...

Disassembly of section .comment:

00000000 <.comment>:
   0:	3a434347 	bcc	10d0d24 <g_pfnVectors-0x6f2f2dc>
   4:	4e472820 	cdpmi	8, 4, cr2, cr7, cr0, {1}
   8:	6f542055 	svcvs	0x00542055
   c:	20736c6f 	rsbscs	r6, r3, pc, ror #24
  10:	20726f66 	rsbscs	r6, r2, r6, ror #30
  14:	204d5241 	subcs	r5, sp, r1, asr #4
  18:	65626d45 	strbvs	r6, [r2, #-3397]!	; 0xd45
  1c:	64656464 	strbtvs	r6, [r5], #-1124	; 0x464
  20:	6f725020 	svcvs	0x00725020
  24:	73736563 	cmnvc	r3, #415236096	; 0x18c00000
  28:	2973726f 	ldmdbcs	r3!, {r0, r1, r2, r3, r5, r6, r9, ip, sp, lr}^
  2c:	382e3420 	stmdacc	lr!, {r5, sl, ip, sp}
  30:	3220332e 	eorcc	r3, r0, #-1207959552	; 0xb8000000
  34:	30343130 	eorscc	r3, r4, r0, lsr r1
  38:	20383232 	eorscs	r3, r8, r2, lsr r2
  3c:	6c657228 	sfmvs	f7, 2, [r5], #-160	; 0xffffff60
  40:	65736165 	ldrbvs	r6, [r3, #-357]!	; 0x165
  44:	415b2029 	cmpmi	fp, r9, lsr #32
  48:	652f4d52 	strvs	r4, [pc, #-3410]!	; fffff2fe <__StackTop+0xdfffa2fe>
  4c:	6465626d 	strbtvs	r6, [r5], #-621	; 0x26d
  50:	2d646564 	cfstr64cs	mvdx6, [r4, #-400]!	; 0xfffffe70
  54:	2d385f34 	ldccs	15, cr5, [r8, #-208]!	; 0xffffff30
  58:	6e617262 	cdpvs	2, 6, cr7, cr1, cr2, {3}
  5c:	72206863 	eorvc	r6, r0, #6488064	; 0x630000
  60:	73697665 	cmnvc	r9, #105906176	; 0x6500000
  64:	206e6f69 	rsbcs	r6, lr, r9, ror #30
  68:	33383032 	teqcc	r8, #50	; 0x32
  6c:	005d3232 	subseq	r3, sp, r2, lsr r2

Disassembly of section .ARM.attributes:

00000000 <.ARM.attributes>:
   0:	00003241 	andeq	r3, r0, r1, asr #4
   4:	61656100 	cmnvs	r5, r0, lsl #2
   8:	01006962 	tsteq	r0, r2, ror #18
   c:	00000028 	andeq	r0, r0, r8, lsr #32
  10:	726f4305 	rsbvc	r4, pc, #335544320	; 0x14000000
  14:	2d786574 	cfldr64cs	mvdx6, [r8, #-464]!	; 0xfffffe30
  18:	0600334d 	streq	r3, [r0], -sp, asr #6
  1c:	094d070a 	stmdbeq	sp, {r1, r3, r8, r9, sl}^
  20:	14041202 	strne	r1, [r4], #-514	; 0x202
  24:	17011501 	strne	r1, [r1, -r1, lsl #10]
  28:	19011803 	stmdbne	r1, {r0, r1, fp, ip}
  2c:	1e011a01 	vmlane.f32	s2, s2, s2
  30:	Address 0x00000030 is out of bounds.


Disassembly of section .debug_frame:

00000000 <.debug_frame>:
       0:	0000000c 	andeq	r0, r0, ip
       4:	ffffffff 			; <UNDEFINED> instruction: 0xffffffff
       8:	7c020001 	stcvc	0, cr0, [r2], {1}
       c:	000d0c0e 	andeq	r0, sp, lr, lsl #24
      10:	00000018 	andeq	r0, r0, r8, lsl r0
      14:	00000000 	andeq	r0, r0, r0
      18:	0800010c 	stmdaeq	r0, {r2, r3, r8}
      1c:	00000068 	andeq	r0, r0, r8, rrx
      20:	40080e41 	andmi	r0, r8, r1, asr #28
      24:	8e400287 	cdphi	2, 4, cr0, cr0, cr7, {4}
      28:	070d4101 	streq	r4, [sp, -r1, lsl #2]
      2c:	00000018 	andeq	r0, r0, r8, lsl r0
	...
      38:	000000d8 	ldrdeq	r0, [r0], -r8
      3c:	40040e41 	andmi	r0, r4, r1, asr #28
      40:	0e410187 	dvfeqd	f0, f1, f7
      44:	070d4118 	smladeq	sp, r8, r1, r4
      48:	00000018 	andeq	r0, r0, r8, lsl r0
      4c:	00000000 	andeq	r0, r0, r0
      50:	08000174 	stmdaeq	r0, {r2, r4, r5, r6, r8}
      54:	0000000a 	andeq	r0, r0, sl
      58:	40080e41 	andmi	r0, r8, r1, asr #28
      5c:	8e400287 	cdphi	2, 4, cr0, cr0, cr7, {4}
      60:	070d4101 	streq	r4, [sp, -r1, lsl #2]
      64:	00000018 	andeq	r0, r0, r8, lsl r0
      68:	00000000 	andeq	r0, r0, r0
      6c:	08000180 	stmdaeq	r0, {r7, r8}
      70:	00000100 	andeq	r0, r0, r0, lsl #2
      74:	40040e41 	andmi	r0, r4, r1, asr #28
      78:	0e410187 	dvfeqd	f0, f1, f7
      7c:	070d4110 	smladeq	sp, r0, r1, r4
      80:	0000000c 	andeq	r0, r0, ip
      84:	ffffffff 			; <UNDEFINED> instruction: 0xffffffff
      88:	7c020001 	stcvc	0, cr0, [r2], {1}
      8c:	000d0c0e 	andeq	r0, sp, lr, lsl #24
      90:	0000001c 	andeq	r0, r0, ip, lsl r0
      94:	00000080 	andeq	r0, r0, r0, lsl #1
      98:	08000280 	stmdaeq	r0, {r7, r9}
      9c:	00000058 	andeq	r0, r0, r8, asr r0
      a0:	40080e41 	andmi	r0, r8, r1, asr #28
      a4:	8e400287 	cdphi	2, 4, cr0, cr0, cr7, {4}
      a8:	100e4101 	andne	r4, lr, r1, lsl #2
      ac:	00070d41 	andeq	r0, r7, r1, asr #26
      b0:	00000018 	andeq	r0, r0, r8, lsl r0
      b4:	00000080 	andeq	r0, r0, r0, lsl #1
      b8:	080002e0 	stmdaeq	r0, {r5, r6, r7, r9}
      bc:	00000006 	andeq	r0, r0, r6
      c0:	40040e41 	andmi	r0, r4, r1, asr #28
      c4:	0d410187 	stfeqe	f0, [r1, #-540]	; 0xfffffde4
      c8:	00000007 	andeq	r0, r0, r7
      cc:	0000000c 	andeq	r0, r0, ip
      d0:	ffffffff 			; <UNDEFINED> instruction: 0xffffffff
      d4:	7c020001 	stcvc	0, cr0, [r2], {1}
      d8:	000d0c0e 	andeq	r0, sp, lr, lsl #24
      dc:	0000001c 	andeq	r0, r0, ip, lsl r0
      e0:	000000cc 	andeq	r0, r0, ip, asr #1
      e4:	00000000 	andeq	r0, r0, r0
      e8:	000000e4 	andeq	r0, r0, r4, ror #1
      ec:	40080e41 	andmi	r0, r8, r1, asr #28
      f0:	8e400287 	cdphi	2, 4, cr0, cr0, cr7, {4}
      f4:	100e4101 	andne	r4, lr, r1, lsl #2
      f8:	00070d41 	andeq	r0, r7, r1, asr #26
      fc:	00000018 	andeq	r0, r0, r8, lsl r0
     100:	000000cc 	andeq	r0, r0, ip, asr #1
     104:	00000000 	andeq	r0, r0, r0
     108:	00000016 	andeq	r0, r0, r6, lsl r0
     10c:	40080e41 	andmi	r0, r8, r1, asr #28
     110:	8e400287 	cdphi	2, 4, cr0, cr0, cr7, {4}
     114:	070d4101 	streq	r4, [sp, -r1, lsl #2]
     118:	00000018 	andeq	r0, r0, r8, lsl r0
     11c:	000000cc 	andeq	r0, r0, ip, asr #1
     120:	080002e8 	stmdaeq	r0, {r3, r5, r6, r7, r9}
     124:	00000176 	andeq	r0, r0, r6, ror r1
     128:	40040e41 	andmi	r0, r4, r1, asr #28
     12c:	0e410187 	dvfeqd	f0, f1, f7
     130:	070d4128 	streq	r4, [sp, -r8, lsr #2]
     134:	00000018 	andeq	r0, r0, r8, lsl r0
     138:	000000cc 	andeq	r0, r0, ip, asr #1
     13c:	00000000 	andeq	r0, r0, r0
     140:	00000026 	andeq	r0, r0, r6, lsr #32
     144:	40040e41 	andmi	r0, r4, r1, asr #28
     148:	0e410187 	dvfeqd	f0, f1, f7
     14c:	070d4110 	smladeq	sp, r0, r1, r4
     150:	00000018 	andeq	r0, r0, r8, lsl r0
     154:	000000cc 	andeq	r0, r0, ip, asr #1
     158:	00000000 	andeq	r0, r0, r0
     15c:	00000034 	andeq	r0, r0, r4, lsr r0
     160:	40040e41 	andmi	r0, r4, r1, asr #28
     164:	0e410187 	dvfeqd	f0, f1, f7
     168:	070d4118 	smladeq	sp, r8, r1, r4
     16c:	00000018 	andeq	r0, r0, r8, lsl r0
     170:	000000cc 	andeq	r0, r0, ip, asr #1
     174:	00000000 	andeq	r0, r0, r0
     178:	0000001a 	andeq	r0, r0, sl, lsl r0
     17c:	40040e41 	andmi	r0, r4, r1, asr #28
     180:	0e410187 	dvfeqd	f0, f1, f7
     184:	070d4110 	smladeq	sp, r0, r1, r4
     188:	00000018 	andeq	r0, r0, r8, lsl r0
     18c:	000000cc 	andeq	r0, r0, ip, asr #1
     190:	00000000 	andeq	r0, r0, r0
     194:	00000034 	andeq	r0, r0, r4, lsr r0
     198:	40040e41 	andmi	r0, r4, r1, asr #28
     19c:	0e410187 	dvfeqd	f0, f1, f7
     1a0:	070d4118 	smladeq	sp, r8, r1, r4
     1a4:	00000018 	andeq	r0, r0, r8, lsl r0
     1a8:	000000cc 	andeq	r0, r0, ip, asr #1
     1ac:	00000000 	andeq	r0, r0, r0
     1b0:	0000001a 	andeq	r0, r0, sl, lsl r0
     1b4:	40040e41 	andmi	r0, r4, r1, asr #28
     1b8:	0e410187 	dvfeqd	f0, f1, f7
     1bc:	070d4110 	smladeq	sp, r0, r1, r4
     1c0:	00000018 	andeq	r0, r0, r8, lsl r0
     1c4:	000000cc 	andeq	r0, r0, ip, asr #1
     1c8:	00000000 	andeq	r0, r0, r0
     1cc:	0000001c 	andeq	r0, r0, ip, lsl r0
     1d0:	40040e41 	andmi	r0, r4, r1, asr #28
     1d4:	0e410187 	dvfeqd	f0, f1, f7
     1d8:	070d4110 	smladeq	sp, r0, r1, r4
     1dc:	00000018 	andeq	r0, r0, r8, lsl r0
     1e0:	000000cc 	andeq	r0, r0, ip, asr #1
     1e4:	00000000 	andeq	r0, r0, r0
     1e8:	0000001c 	andeq	r0, r0, ip, lsl r0
     1ec:	40040e41 	andmi	r0, r4, r1, asr #28
     1f0:	0e410187 	dvfeqd	f0, f1, f7
     1f4:	070d4110 	smladeq	sp, r0, r1, r4
     1f8:	00000018 	andeq	r0, r0, r8, lsl r0
     1fc:	000000cc 	andeq	r0, r0, ip, asr #1
     200:	00000000 	andeq	r0, r0, r0
     204:	0000002e 	andeq	r0, r0, lr, lsr #32
     208:	40040e41 	andmi	r0, r4, r1, asr #28
     20c:	0e410187 	dvfeqd	f0, f1, f7
     210:	070d4110 	smladeq	sp, r0, r1, r4
     214:	00000018 	andeq	r0, r0, r8, lsl r0
     218:	000000cc 	andeq	r0, r0, ip, asr #1
     21c:	08000460 	stmdaeq	r0, {r5, r6, sl}
     220:	00000028 	andeq	r0, r0, r8, lsr #32
     224:	40040e41 	andmi	r0, r4, r1, asr #28
     228:	0e410187 	dvfeqd	f0, f1, f7
     22c:	070d4110 	smladeq	sp, r0, r1, r4
     230:	00000018 	andeq	r0, r0, r8, lsl r0
     234:	000000cc 	andeq	r0, r0, ip, asr #1
     238:	00000000 	andeq	r0, r0, r0
     23c:	0000001c 	andeq	r0, r0, ip, lsl r0
     240:	40040e41 	andmi	r0, r4, r1, asr #28
     244:	0e410187 	dvfeqd	f0, f1, f7
     248:	070d4110 	smladeq	sp, r0, r1, r4
     24c:	00000018 	andeq	r0, r0, r8, lsl r0
     250:	000000cc 	andeq	r0, r0, ip, asr #1
     254:	00000000 	andeq	r0, r0, r0
     258:	00000042 	andeq	r0, r0, r2, asr #32
     25c:	40040e41 	andmi	r0, r4, r1, asr #28
     260:	0e410187 	dvfeqd	f0, f1, f7
     264:	070d4118 	smladeq	sp, r8, r1, r4
     268:	00000018 	andeq	r0, r0, r8, lsl r0
     26c:	000000cc 	andeq	r0, r0, ip, asr #1
     270:	00000000 	andeq	r0, r0, r0
     274:	00000048 	andeq	r0, r0, r8, asr #32
     278:	40040e41 	andmi	r0, r4, r1, asr #28
     27c:	0e410187 	dvfeqd	f0, f1, f7
     280:	070d4118 	smladeq	sp, r8, r1, r4
     284:	00000018 	andeq	r0, r0, r8, lsl r0
     288:	000000cc 	andeq	r0, r0, ip, asr #1
     28c:	00000000 	andeq	r0, r0, r0
     290:	00000020 	andeq	r0, r0, r0, lsr #32
     294:	40040e41 	andmi	r0, r4, r1, asr #28
     298:	0e410187 	dvfeqd	f0, f1, f7
     29c:	070d4110 	smladeq	sp, r0, r1, r4
     2a0:	00000018 	andeq	r0, r0, r8, lsl r0
     2a4:	000000cc 	andeq	r0, r0, ip, asr #1
     2a8:	00000000 	andeq	r0, r0, r0
     2ac:	000000e0 	andeq	r0, r0, r0, ror #1
     2b0:	40040e41 	andmi	r0, r4, r1, asr #28
     2b4:	0e410187 	dvfeqd	f0, f1, f7
     2b8:	070d4120 	streq	r4, [sp, -r0, lsr #2]
     2bc:	0000001c 	andeq	r0, r0, ip, lsl r0
     2c0:	000000cc 	andeq	r0, r0, ip, asr #1
     2c4:	00000000 	andeq	r0, r0, r0
     2c8:	0000007c 	andeq	r0, r0, ip, ror r0
     2cc:	40080e41 	andmi	r0, r8, r1, asr #28
     2d0:	87400284 	strbhi	r0, [r0, -r4, lsl #5]
     2d4:	180e4101 	stmdane	lr, {r0, r8, lr}
     2d8:	00070d41 	andeq	r0, r7, r1, asr #26
     2dc:	00000018 	andeq	r0, r0, r8, lsl r0
     2e0:	000000cc 	andeq	r0, r0, ip, asr #1
     2e4:	00000000 	andeq	r0, r0, r0
     2e8:	0000001c 	andeq	r0, r0, ip, lsl r0
     2ec:	40040e41 	andmi	r0, r4, r1, asr #28
     2f0:	0e410187 	dvfeqd	f0, f1, f7
     2f4:	070d4110 	smladeq	sp, r0, r1, r4
     2f8:	0000000c 	andeq	r0, r0, ip
     2fc:	ffffffff 			; <UNDEFINED> instruction: 0xffffffff
     300:	7c020001 	stcvc	0, cr0, [r2], {1}
     304:	000d0c0e 	andeq	r0, sp, lr, lsl #24
     308:	00000018 	andeq	r0, r0, r8, lsl r0
     30c:	000002f8 	strdeq	r0, [r0], -r8
     310:	08000488 	stmdaeq	r0, {r3, r7, sl}
     314:	00000054 	andeq	r0, r0, r4, asr r0
     318:	40040e41 	andmi	r0, r4, r1, asr #28
     31c:	0e410187 	dvfeqd	f0, f1, f7
     320:	070d4110 	smladeq	sp, r0, r1, r4
     324:	0000001c 	andeq	r0, r0, ip, lsl r0
     328:	000002f8 	strdeq	r0, [r0], -r8
     32c:	080004dc 	stmdaeq	r0, {r2, r3, r4, r6, r7, sl}
     330:	00000044 	andeq	r0, r0, r4, asr #32
     334:	40080e41 	andmi	r0, r8, r1, asr #28
     338:	8e400287 	cdphi	2, 4, cr0, cr0, cr7, {4}
     33c:	100e4101 	andne	r4, lr, r1, lsl #2
     340:	00070d41 	andeq	r0, r7, r1, asr #26
     344:	00000018 	andeq	r0, r0, r8, lsl r0
     348:	000002f8 	strdeq	r0, [r0], -r8
     34c:	08000520 	stmdaeq	r0, {r5, r8, sl}
     350:	0000001c 	andeq	r0, r0, ip, lsl r0
     354:	40040e41 	andmi	r0, r4, r1, asr #28
     358:	0d410187 	stfeqe	f0, [r1, #-540]	; 0xfffffde4
     35c:	00000007 	andeq	r0, r0, r7
     360:	00000018 	andeq	r0, r0, r8, lsl r0
     364:	000002f8 	strdeq	r0, [r0], -r8
     368:	0800053c 	stmdaeq	r0, {r2, r3, r4, r5, r8, sl}
     36c:	00000250 	andeq	r0, r0, r0, asr r2
     370:	40080e41 	andmi	r0, r8, r1, asr #28
     374:	8e400287 	cdphi	2, 4, cr0, cr0, cr7, {4}
     378:	070d4101 	streq	r4, [sp, -r1, lsl #2]
     37c:	0000001c 	andeq	r0, r0, ip, lsl r0
     380:	000002f8 	strdeq	r0, [r0], -r8
     384:	0800078c 	stmdaeq	r0, {r2, r3, r7, r8, r9, sl}
     388:	000000a8 	andeq	r0, r0, r8, lsr #1
     38c:	40080e41 	andmi	r0, r8, r1, asr #28
     390:	8e400287 	cdphi	2, 4, cr0, cr0, cr7, {4}
     394:	180e4101 	stmdane	lr, {r0, r8, lr}
     398:	00070d41 	andeq	r0, r7, r1, asr #26
     39c:	0000001c 	andeq	r0, r0, ip, lsl r0
     3a0:	000002f8 	strdeq	r0, [r0], -r8
     3a4:	08000834 	stmdaeq	r0, {r2, r4, r5, fp}
     3a8:	00000034 	andeq	r0, r0, r4, lsr r0
     3ac:	40080e41 	andmi	r0, r8, r1, asr #28
     3b0:	8e400287 	cdphi	2, 4, cr0, cr0, cr7, {4}
     3b4:	100e4101 	andne	r4, lr, r1, lsl #2
     3b8:	00070d41 	andeq	r0, r7, r1, asr #26
     3bc:	0000001c 	andeq	r0, r0, ip, lsl r0
     3c0:	000002f8 	strdeq	r0, [r0], -r8
     3c4:	08000868 	stmdaeq	r0, {r3, r5, r6, fp}
     3c8:	0000002c 	andeq	r0, r0, ip, lsr #32
     3cc:	40080e41 	andmi	r0, r8, r1, asr #28
     3d0:	8e400287 	cdphi	2, 4, cr0, cr0, cr7, {4}
     3d4:	100e4101 	andne	r4, lr, r1, lsl #2
     3d8:	00070d41 	andeq	r0, r7, r1, asr #26
     3dc:	0000000c 	andeq	r0, r0, ip
     3e0:	ffffffff 			; <UNDEFINED> instruction: 0xffffffff
     3e4:	7c020001 	stcvc	0, cr0, [r2], {1}
     3e8:	000d0c0e 	andeq	r0, sp, lr, lsl #24
     3ec:	00000018 	andeq	r0, r0, r8, lsl r0
     3f0:	000003dc 	ldrdeq	r0, [r0], -ip
     3f4:	00000000 	andeq	r0, r0, r0
     3f8:	0000005c 	andeq	r0, r0, ip, asr r0
     3fc:	40040e41 	andmi	r0, r4, r1, asr #28
     400:	0d410187 	stfeqe	f0, [r1, #-540]	; 0xfffffde4
     404:	00000007 	andeq	r0, r0, r7
     408:	00000018 	andeq	r0, r0, r8, lsl r0
     40c:	000003dc 	ldrdeq	r0, [r0], -ip
     410:	00000000 	andeq	r0, r0, r0
     414:	0000005c 	andeq	r0, r0, ip, asr r0
     418:	40040e41 	andmi	r0, r4, r1, asr #28
     41c:	0e410187 	dvfeqd	f0, f1, f7
     420:	070d4110 	smladeq	sp, r0, r1, r4
     424:	0000001c 	andeq	r0, r0, ip, lsl r0
     428:	000003dc 	ldrdeq	r0, [r0], -ip
     42c:	00000000 	andeq	r0, r0, r0
     430:	00000050 	andeq	r0, r0, r0, asr r0
     434:	40080e41 	andmi	r0, r8, r1, asr #28
     438:	8e400287 	cdphi	2, 4, cr0, cr0, cr7, {4}
     43c:	100e4101 	andne	r4, lr, r1, lsl #2
     440:	00070d41 	andeq	r0, r7, r1, asr #26
     444:	00000018 	andeq	r0, r0, r8, lsl r0
     448:	000003dc 	ldrdeq	r0, [r0], -ip
     44c:	00000000 	andeq	r0, r0, r0
     450:	0000003c 	andeq	r0, r0, ip, lsr r0
     454:	40040e41 	andmi	r0, r4, r1, asr #28
     458:	0e410187 	dvfeqd	f0, f1, f7
     45c:	070d4118 	smladeq	sp, r8, r1, r4
     460:	00000018 	andeq	r0, r0, r8, lsl r0
     464:	000003dc 	ldrdeq	r0, [r0], -ip
     468:	00000000 	andeq	r0, r0, r0
     46c:	00000020 	andeq	r0, r0, r0, lsr #32
     470:	40040e41 	andmi	r0, r4, r1, asr #28
     474:	0e410187 	dvfeqd	f0, f1, f7
     478:	070d4110 	smladeq	sp, r0, r1, r4
     47c:	00000018 	andeq	r0, r0, r8, lsl r0
     480:	000003dc 	ldrdeq	r0, [r0], -ip
     484:	00000000 	andeq	r0, r0, r0
     488:	0000003c 	andeq	r0, r0, ip, lsr r0
     48c:	40040e41 	andmi	r0, r4, r1, asr #28
     490:	0e410187 	dvfeqd	f0, f1, f7
     494:	070d4118 	smladeq	sp, r8, r1, r4
     498:	00000018 	andeq	r0, r0, r8, lsl r0
     49c:	000003dc 	ldrdeq	r0, [r0], -ip
     4a0:	00000000 	andeq	r0, r0, r0
     4a4:	00000020 	andeq	r0, r0, r0, lsr #32
     4a8:	40040e41 	andmi	r0, r4, r1, asr #28
     4ac:	0e410187 	dvfeqd	f0, f1, f7
     4b0:	070d4110 	smladeq	sp, r0, r1, r4
     4b4:	00000018 	andeq	r0, r0, r8, lsl r0
     4b8:	000003dc 	ldrdeq	r0, [r0], -ip
     4bc:	00000000 	andeq	r0, r0, r0
     4c0:	00000038 	andeq	r0, r0, r8, lsr r0
     4c4:	40040e41 	andmi	r0, r4, r1, asr #28
     4c8:	0e410187 	dvfeqd	f0, f1, f7
     4cc:	070d4118 	smladeq	sp, r8, r1, r4
     4d0:	00000018 	andeq	r0, r0, r8, lsl r0
     4d4:	000003dc 	ldrdeq	r0, [r0], -ip
     4d8:	00000000 	andeq	r0, r0, r0
     4dc:	00000020 	andeq	r0, r0, r0, lsr #32
     4e0:	40040e41 	andmi	r0, r4, r1, asr #28
     4e4:	0d410187 	stfeqe	f0, [r1, #-540]	; 0xfffffde4
     4e8:	00000007 	andeq	r0, r0, r7
     4ec:	00000018 	andeq	r0, r0, r8, lsl r0
     4f0:	000003dc 	ldrdeq	r0, [r0], -ip
     4f4:	00000000 	andeq	r0, r0, r0
     4f8:	00000038 	andeq	r0, r0, r8, lsr r0
     4fc:	40040e41 	andmi	r0, r4, r1, asr #28
     500:	0e410187 	dvfeqd	f0, f1, f7
     504:	070d4118 	smladeq	sp, r8, r1, r4
     508:	00000018 	andeq	r0, r0, r8, lsl r0
     50c:	000003dc 	ldrdeq	r0, [r0], -ip
     510:	00000000 	andeq	r0, r0, r0
     514:	00000038 	andeq	r0, r0, r8, lsr r0
     518:	40040e41 	andmi	r0, r4, r1, asr #28
     51c:	0e410187 	dvfeqd	f0, f1, f7
     520:	070d4118 	smladeq	sp, r8, r1, r4
     524:	00000018 	andeq	r0, r0, r8, lsl r0
     528:	000003dc 	ldrdeq	r0, [r0], -ip
     52c:	00000000 	andeq	r0, r0, r0
     530:	00000038 	andeq	r0, r0, r8, lsr r0
     534:	40040e41 	andmi	r0, r4, r1, asr #28
     538:	0e410187 	dvfeqd	f0, f1, f7
     53c:	070d4118 	smladeq	sp, r8, r1, r4
     540:	00000018 	andeq	r0, r0, r8, lsl r0
     544:	000003dc 	ldrdeq	r0, [r0], -ip
     548:	00000000 	andeq	r0, r0, r0
     54c:	00000048 	andeq	r0, r0, r8, asr #32
     550:	40040e41 	andmi	r0, r4, r1, asr #28
     554:	0e410187 	dvfeqd	f0, f1, f7
     558:	070d4110 	smladeq	sp, r0, r1, r4
     55c:	00000018 	andeq	r0, r0, r8, lsl r0
     560:	000003dc 	ldrdeq	r0, [r0], -ip
     564:	00000000 	andeq	r0, r0, r0
     568:	0000001c 	andeq	r0, r0, ip, lsl r0
     56c:	40040e41 	andmi	r0, r4, r1, asr #28
     570:	0e410187 	dvfeqd	f0, f1, f7
     574:	070d4110 	smladeq	sp, r0, r1, r4
     578:	00000018 	andeq	r0, r0, r8, lsl r0
     57c:	000003dc 	ldrdeq	r0, [r0], -ip
     580:	00000000 	andeq	r0, r0, r0
     584:	00000038 	andeq	r0, r0, r8, lsr r0
     588:	40040e41 	andmi	r0, r4, r1, asr #28
     58c:	0e410187 	dvfeqd	f0, f1, f7
     590:	070d4118 	smladeq	sp, r8, r1, r4
     594:	00000018 	andeq	r0, r0, r8, lsl r0
     598:	000003dc 	ldrdeq	r0, [r0], -ip
     59c:	00000000 	andeq	r0, r0, r0
     5a0:	00000040 	andeq	r0, r0, r0, asr #32
     5a4:	40040e41 	andmi	r0, r4, r1, asr #28
     5a8:	0e410187 	dvfeqd	f0, f1, f7
     5ac:	070d4110 	smladeq	sp, r0, r1, r4
     5b0:	00000018 	andeq	r0, r0, r8, lsl r0
     5b4:	000003dc 	ldrdeq	r0, [r0], -ip
     5b8:	00000000 	andeq	r0, r0, r0
     5bc:	00000020 	andeq	r0, r0, r0, lsr #32
     5c0:	40040e41 	andmi	r0, r4, r1, asr #28
     5c4:	0e410187 	dvfeqd	f0, f1, f7
     5c8:	070d4110 	smladeq	sp, r0, r1, r4
     5cc:	00000018 	andeq	r0, r0, r8, lsl r0
     5d0:	000003dc 	ldrdeq	r0, [r0], -ip
     5d4:	00000000 	andeq	r0, r0, r0
     5d8:	00000024 	andeq	r0, r0, r4, lsr #32
     5dc:	40040e41 	andmi	r0, r4, r1, asr #28
     5e0:	0e410187 	dvfeqd	f0, f1, f7
     5e4:	070d4110 	smladeq	sp, r0, r1, r4
     5e8:	00000018 	andeq	r0, r0, r8, lsl r0
     5ec:	000003dc 	ldrdeq	r0, [r0], -ip
     5f0:	00000000 	andeq	r0, r0, r0
     5f4:	00000020 	andeq	r0, r0, r0, lsr #32
     5f8:	40040e41 	andmi	r0, r4, r1, asr #28
     5fc:	0e410187 	dvfeqd	f0, f1, f7
     600:	070d4110 	smladeq	sp, r0, r1, r4
     604:	00000018 	andeq	r0, r0, r8, lsl r0
     608:	000003dc 	ldrdeq	r0, [r0], -ip
     60c:	08000894 	stmdaeq	r0, {r2, r4, r7, fp}
     610:	00000164 	andeq	r0, r0, r4, ror #2
     614:	40040e41 	andmi	r0, r4, r1, asr #28
     618:	0e410187 	dvfeqd	f0, f1, f7
     61c:	070d4120 	streq	r4, [sp, -r0, lsr #2]
     620:	00000018 	andeq	r0, r0, r8, lsl r0
     624:	000003dc 	ldrdeq	r0, [r0], -ip
     628:	00000000 	andeq	r0, r0, r0
     62c:	0000003c 	andeq	r0, r0, ip, lsr r0
     630:	40040e41 	andmi	r0, r4, r1, asr #28
     634:	0e410187 	dvfeqd	f0, f1, f7
     638:	070d4110 	smladeq	sp, r0, r1, r4
     63c:	00000018 	andeq	r0, r0, r8, lsl r0
     640:	000003dc 	ldrdeq	r0, [r0], -ip
     644:	080009f8 	stmdaeq	r0, {r3, r4, r5, r6, r7, r8, fp}
     648:	0000003c 	andeq	r0, r0, ip, lsr r0
     64c:	40040e41 	andmi	r0, r4, r1, asr #28
     650:	0e410187 	dvfeqd	f0, f1, f7
     654:	070d4110 	smladeq	sp, r0, r1, r4
     658:	00000018 	andeq	r0, r0, r8, lsl r0
     65c:	000003dc 	ldrdeq	r0, [r0], -ip
     660:	00000000 	andeq	r0, r0, r0
     664:	0000003c 	andeq	r0, r0, ip, lsr r0
     668:	40040e41 	andmi	r0, r4, r1, asr #28
     66c:	0e410187 	dvfeqd	f0, f1, f7
     670:	070d4110 	smladeq	sp, r0, r1, r4
     674:	00000018 	andeq	r0, r0, r8, lsl r0
     678:	000003dc 	ldrdeq	r0, [r0], -ip
     67c:	00000000 	andeq	r0, r0, r0
     680:	0000003c 	andeq	r0, r0, ip, lsr r0
     684:	40040e41 	andmi	r0, r4, r1, asr #28
     688:	0e410187 	dvfeqd	f0, f1, f7
     68c:	070d4110 	smladeq	sp, r0, r1, r4
     690:	00000018 	andeq	r0, r0, r8, lsl r0
     694:	000003dc 	ldrdeq	r0, [r0], -ip
     698:	00000000 	andeq	r0, r0, r0
     69c:	0000003c 	andeq	r0, r0, ip, lsr r0
     6a0:	40040e41 	andmi	r0, r4, r1, asr #28
     6a4:	0e410187 	dvfeqd	f0, f1, f7
     6a8:	070d4110 	smladeq	sp, r0, r1, r4
     6ac:	00000018 	andeq	r0, r0, r8, lsl r0
     6b0:	000003dc 	ldrdeq	r0, [r0], -ip
     6b4:	00000000 	andeq	r0, r0, r0
     6b8:	00000020 	andeq	r0, r0, r0, lsr #32
     6bc:	40040e41 	andmi	r0, r4, r1, asr #28
     6c0:	0e410187 	dvfeqd	f0, f1, f7
     6c4:	070d4110 	smladeq	sp, r0, r1, r4
     6c8:	00000018 	andeq	r0, r0, r8, lsl r0
     6cc:	000003dc 	ldrdeq	r0, [r0], -ip
     6d0:	00000000 	andeq	r0, r0, r0
     6d4:	00000020 	andeq	r0, r0, r0, lsr #32
     6d8:	40040e41 	andmi	r0, r4, r1, asr #28
     6dc:	0e410187 	dvfeqd	f0, f1, f7
     6e0:	070d4110 	smladeq	sp, r0, r1, r4
     6e4:	00000018 	andeq	r0, r0, r8, lsl r0
     6e8:	000003dc 	ldrdeq	r0, [r0], -ip
     6ec:	00000000 	andeq	r0, r0, r0
     6f0:	00000020 	andeq	r0, r0, r0, lsr #32
     6f4:	40040e41 	andmi	r0, r4, r1, asr #28
     6f8:	0e410187 	dvfeqd	f0, f1, f7
     6fc:	070d4110 	smladeq	sp, r0, r1, r4
     700:	00000018 	andeq	r0, r0, r8, lsl r0
     704:	000003dc 	ldrdeq	r0, [r0], -ip
     708:	00000000 	andeq	r0, r0, r0
     70c:	00000074 	andeq	r0, r0, r4, ror r0
     710:	40040e41 	andmi	r0, r4, r1, asr #28
     714:	0e410187 	dvfeqd	f0, f1, f7
     718:	070d4120 	streq	r4, [sp, -r0, lsr #2]
     71c:	00000018 	andeq	r0, r0, r8, lsl r0
     720:	000003dc 	ldrdeq	r0, [r0], -ip
     724:	00000000 	andeq	r0, r0, r0
     728:	0000001c 	andeq	r0, r0, ip, lsl r0
     72c:	40040e41 	andmi	r0, r4, r1, asr #28
     730:	0d410187 	stfeqe	f0, [r1, #-540]	; 0xfffffde4
     734:	00000007 	andeq	r0, r0, r7
     738:	00000018 	andeq	r0, r0, r8, lsl r0
     73c:	000003dc 	ldrdeq	r0, [r0], -ip
     740:	00000000 	andeq	r0, r0, r0
     744:	00000038 	andeq	r0, r0, r8, lsr r0
     748:	40040e41 	andmi	r0, r4, r1, asr #28
     74c:	0e410187 	dvfeqd	f0, f1, f7
     750:	070d4118 	smladeq	sp, r8, r1, r4
     754:	00000018 	andeq	r0, r0, r8, lsl r0
     758:	000003dc 	ldrdeq	r0, [r0], -ip
     75c:	00000000 	andeq	r0, r0, r0
     760:	00000020 	andeq	r0, r0, r0, lsr #32
     764:	40040e41 	andmi	r0, r4, r1, asr #28
     768:	0e410187 	dvfeqd	f0, f1, f7
     76c:	070d4110 	smladeq	sp, r0, r1, r4
     770:	0000000c 	andeq	r0, r0, ip
     774:	ffffffff 			; <UNDEFINED> instruction: 0xffffffff
     778:	7c020001 	stcvc	0, cr0, [r2], {1}
     77c:	000d0c0e 	andeq	r0, sp, lr, lsl #24
     780:	0000001c 	andeq	r0, r0, ip, lsl r0
     784:	00000770 	andeq	r0, r0, r0, ror r7
     788:	00000000 	andeq	r0, r0, r0
     78c:	000000b8 	strheq	r0, [r0], -r8
     790:	40080e41 	andmi	r0, r8, r1, asr #28
     794:	8e400287 	cdphi	2, 4, cr0, cr0, cr7, {4}
     798:	100e4101 	andne	r4, lr, r1, lsl #2
     79c:	00070d41 	andeq	r0, r7, r1, asr #26
     7a0:	0000001c 	andeq	r0, r0, ip, lsl r0
     7a4:	00000770 	andeq	r0, r0, r0, ror r7
     7a8:	08000a34 	stmdaeq	r0, {r2, r4, r5, r9, fp}
     7ac:	00000174 	andeq	r0, r0, r4, ror r1
     7b0:	40080e41 	andmi	r0, r8, r1, asr #28
     7b4:	8e400287 	cdphi	2, 4, cr0, cr0, cr7, {4}
     7b8:	380e4101 	stmdacc	lr, {r0, r8, lr}
     7bc:	00070d41 	andeq	r0, r7, r1, asr #26
     7c0:	00000018 	andeq	r0, r0, r8, lsl r0
     7c4:	00000770 	andeq	r0, r0, r0, ror r7
     7c8:	00000000 	andeq	r0, r0, r0
     7cc:	00000038 	andeq	r0, r0, r8, lsr r0
     7d0:	40040e41 	andmi	r0, r4, r1, asr #28
     7d4:	0e410187 	dvfeqd	f0, f1, f7
     7d8:	070d4110 	smladeq	sp, r0, r1, r4
     7dc:	00000018 	andeq	r0, r0, r8, lsl r0
     7e0:	00000770 	andeq	r0, r0, r0, ror r7
     7e4:	00000000 	andeq	r0, r0, r0
     7e8:	00000054 	andeq	r0, r0, r4, asr r0
     7ec:	40040e41 	andmi	r0, r4, r1, asr #28
     7f0:	0e410187 	dvfeqd	f0, f1, f7
     7f4:	070d4118 	smladeq	sp, r8, r1, r4
     7f8:	00000018 	andeq	r0, r0, r8, lsl r0
     7fc:	00000770 	andeq	r0, r0, r0, ror r7
     800:	00000000 	andeq	r0, r0, r0
     804:	0000002a 	andeq	r0, r0, sl, lsr #32
     808:	40040e41 	andmi	r0, r4, r1, asr #28
     80c:	0e410187 	dvfeqd	f0, f1, f7
     810:	070d4110 	smladeq	sp, r0, r1, r4
     814:	00000018 	andeq	r0, r0, r8, lsl r0
     818:	00000770 	andeq	r0, r0, r0, ror r7
     81c:	08000ba8 	stmdaeq	r0, {r3, r5, r7, r8, r9, fp}
     820:	0000003e 	andeq	r0, r0, lr, lsr r0
     824:	40040e41 	andmi	r0, r4, r1, asr #28
     828:	0e410187 	dvfeqd	f0, f1, f7
     82c:	070d4110 	smladeq	sp, r0, r1, r4
     830:	00000018 	andeq	r0, r0, r8, lsl r0
     834:	00000770 	andeq	r0, r0, r0, ror r7
     838:	00000000 	andeq	r0, r0, r0
     83c:	0000008e 	andeq	r0, r0, lr, lsl #1
     840:	40040e41 	andmi	r0, r4, r1, asr #28
     844:	0e410187 	dvfeqd	f0, f1, f7
     848:	070d4120 	streq	r4, [sp, -r0, lsr #2]
     84c:	00000018 	andeq	r0, r0, r8, lsl r0
     850:	00000770 	andeq	r0, r0, r0, ror r7
     854:	00000000 	andeq	r0, r0, r0
     858:	00000046 	andeq	r0, r0, r6, asr #32
     85c:	40040e41 	andmi	r0, r4, r1, asr #28
     860:	0e410187 	dvfeqd	f0, f1, f7
     864:	070d4110 	smladeq	sp, r0, r1, r4
     868:	00000018 	andeq	r0, r0, r8, lsl r0
     86c:	00000770 	andeq	r0, r0, r0, ror r7
     870:	00000000 	andeq	r0, r0, r0
     874:	00000038 	andeq	r0, r0, r8, lsr r0
     878:	40040e41 	andmi	r0, r4, r1, asr #28
     87c:	0e410187 	dvfeqd	f0, f1, f7
     880:	070d4110 	smladeq	sp, r0, r1, r4
     884:	00000018 	andeq	r0, r0, r8, lsl r0
     888:	00000770 	andeq	r0, r0, r0, ror r7
     88c:	00000000 	andeq	r0, r0, r0
     890:	00000036 	andeq	r0, r0, r6, lsr r0
     894:	40040e41 	andmi	r0, r4, r1, asr #28
     898:	0e410187 	dvfeqd	f0, f1, f7
     89c:	070d4110 	smladeq	sp, r0, r1, r4
     8a0:	00000018 	andeq	r0, r0, r8, lsl r0
     8a4:	00000770 	andeq	r0, r0, r0, ror r7
     8a8:	00000000 	andeq	r0, r0, r0
     8ac:	0000003e 	andeq	r0, r0, lr, lsr r0
     8b0:	40040e41 	andmi	r0, r4, r1, asr #28
     8b4:	0e410187 	dvfeqd	f0, f1, f7
     8b8:	070d4110 	smladeq	sp, r0, r1, r4
     8bc:	00000018 	andeq	r0, r0, r8, lsl r0
     8c0:	00000770 	andeq	r0, r0, r0, ror r7
     8c4:	00000000 	andeq	r0, r0, r0
     8c8:	00000036 	andeq	r0, r0, r6, lsr r0
     8cc:	40040e41 	andmi	r0, r4, r1, asr #28
     8d0:	0e410187 	dvfeqd	f0, f1, f7
     8d4:	070d4110 	smladeq	sp, r0, r1, r4
     8d8:	00000018 	andeq	r0, r0, r8, lsl r0
     8dc:	00000770 	andeq	r0, r0, r0, ror r7
     8e0:	00000000 	andeq	r0, r0, r0
     8e4:	0000003e 	andeq	r0, r0, lr, lsr r0
     8e8:	40040e41 	andmi	r0, r4, r1, asr #28
     8ec:	0e410187 	dvfeqd	f0, f1, f7
     8f0:	070d4110 	smladeq	sp, r0, r1, r4
     8f4:	00000018 	andeq	r0, r0, r8, lsl r0
     8f8:	00000770 	andeq	r0, r0, r0, ror r7
     8fc:	08000be8 	stmdaeq	r0, {r3, r5, r6, r7, r8, r9, fp}
     900:	00000022 	andeq	r0, r0, r2, lsr #32
     904:	40040e41 	andmi	r0, r4, r1, asr #28
     908:	0e410187 	dvfeqd	f0, f1, f7
     90c:	070d4110 	smladeq	sp, r0, r1, r4
     910:	00000018 	andeq	r0, r0, r8, lsl r0
     914:	00000770 	andeq	r0, r0, r0, ror r7
     918:	08000c0c 	stmdaeq	r0, {r2, r3, sl, fp}
     91c:	00000020 	andeq	r0, r0, r0, lsr #32
     920:	40040e41 	andmi	r0, r4, r1, asr #28
     924:	0e410187 	dvfeqd	f0, f1, f7
     928:	070d4110 	smladeq	sp, r0, r1, r4
     92c:	00000018 	andeq	r0, r0, r8, lsl r0
     930:	00000770 	andeq	r0, r0, r0, ror r7
     934:	00000000 	andeq	r0, r0, r0
     938:	00000022 	andeq	r0, r0, r2, lsr #32
     93c:	40040e41 	andmi	r0, r4, r1, asr #28
     940:	0e410187 	dvfeqd	f0, f1, f7
     944:	070d4110 	smladeq	sp, r0, r1, r4
     948:	00000018 	andeq	r0, r0, r8, lsl r0
     94c:	00000770 	andeq	r0, r0, r0, ror r7
     950:	00000000 	andeq	r0, r0, r0
     954:	0000003a 	andeq	r0, r0, sl, lsr r0
     958:	40040e41 	andmi	r0, r4, r1, asr #28
     95c:	0e410187 	dvfeqd	f0, f1, f7
     960:	070d4110 	smladeq	sp, r0, r1, r4
     964:	00000018 	andeq	r0, r0, r8, lsl r0
     968:	00000770 	andeq	r0, r0, r0, ror r7
     96c:	00000000 	andeq	r0, r0, r0
     970:	00000038 	andeq	r0, r0, r8, lsr r0
     974:	40040e41 	andmi	r0, r4, r1, asr #28
     978:	0e410187 	dvfeqd	f0, f1, f7
     97c:	070d4110 	smladeq	sp, r0, r1, r4
     980:	00000018 	andeq	r0, r0, r8, lsl r0
     984:	00000770 	andeq	r0, r0, r0, ror r7
     988:	00000000 	andeq	r0, r0, r0
     98c:	0000003e 	andeq	r0, r0, lr, lsr r0
     990:	40040e41 	andmi	r0, r4, r1, asr #28
     994:	0e410187 	dvfeqd	f0, f1, f7
     998:	070d4110 	smladeq	sp, r0, r1, r4
     99c:	00000018 	andeq	r0, r0, r8, lsl r0
     9a0:	00000770 	andeq	r0, r0, r0, ror r7
     9a4:	00000000 	andeq	r0, r0, r0
     9a8:	0000003e 	andeq	r0, r0, lr, lsr r0
     9ac:	40040e41 	andmi	r0, r4, r1, asr #28
     9b0:	0e410187 	dvfeqd	f0, f1, f7
     9b4:	070d4110 	smladeq	sp, r0, r1, r4
     9b8:	00000018 	andeq	r0, r0, r8, lsl r0
     9bc:	00000770 	andeq	r0, r0, r0, ror r7
     9c0:	00000000 	andeq	r0, r0, r0
     9c4:	0000003e 	andeq	r0, r0, lr, lsr r0
     9c8:	40040e41 	andmi	r0, r4, r1, asr #28
     9cc:	0e410187 	dvfeqd	f0, f1, f7
     9d0:	070d4110 	smladeq	sp, r0, r1, r4
     9d4:	00000018 	andeq	r0, r0, r8, lsl r0
     9d8:	00000770 	andeq	r0, r0, r0, ror r7
     9dc:	00000000 	andeq	r0, r0, r0
     9e0:	00000042 	andeq	r0, r0, r2, asr #32
     9e4:	40040e41 	andmi	r0, r4, r1, asr #28
     9e8:	0e410187 	dvfeqd	f0, f1, f7
     9ec:	070d4110 	smladeq	sp, r0, r1, r4
     9f0:	00000018 	andeq	r0, r0, r8, lsl r0
     9f4:	00000770 	andeq	r0, r0, r0, ror r7
     9f8:	00000000 	andeq	r0, r0, r0
     9fc:	0000003e 	andeq	r0, r0, lr, lsr r0
     a00:	40040e41 	andmi	r0, r4, r1, asr #28
     a04:	0e410187 	dvfeqd	f0, f1, f7
     a08:	070d4110 	smladeq	sp, r0, r1, r4
     a0c:	00000018 	andeq	r0, r0, r8, lsl r0
     a10:	00000770 	andeq	r0, r0, r0, ror r7
     a14:	00000000 	andeq	r0, r0, r0
     a18:	00000036 	andeq	r0, r0, r6, lsr r0
     a1c:	40040e41 	andmi	r0, r4, r1, asr #28
     a20:	0e410187 	dvfeqd	f0, f1, f7
     a24:	070d4110 	smladeq	sp, r0, r1, r4
     a28:	00000018 	andeq	r0, r0, r8, lsl r0
     a2c:	00000770 	andeq	r0, r0, r0, ror r7
     a30:	00000000 	andeq	r0, r0, r0
     a34:	0000003e 	andeq	r0, r0, lr, lsr r0
     a38:	40040e41 	andmi	r0, r4, r1, asr #28
     a3c:	0e410187 	dvfeqd	f0, f1, f7
     a40:	070d4110 	smladeq	sp, r0, r1, r4
     a44:	00000018 	andeq	r0, r0, r8, lsl r0
     a48:	00000770 	andeq	r0, r0, r0, ror r7
     a4c:	08000c2c 	stmdaeq	r0, {r2, r3, r5, sl, fp}
     a50:	00000038 	andeq	r0, r0, r8, lsr r0
     a54:	40040e41 	andmi	r0, r4, r1, asr #28
     a58:	0e410187 	dvfeqd	f0, f1, f7
     a5c:	070d4118 	smladeq	sp, r8, r1, r4
     a60:	00000018 	andeq	r0, r0, r8, lsl r0
     a64:	00000770 	andeq	r0, r0, r0, ror r7
     a68:	00000000 	andeq	r0, r0, r0
     a6c:	00000020 	andeq	r0, r0, r0, lsr #32
     a70:	40040e41 	andmi	r0, r4, r1, asr #28
     a74:	0e410187 	dvfeqd	f0, f1, f7
     a78:	070d4110 	smladeq	sp, r0, r1, r4
     a7c:	00000018 	andeq	r0, r0, r8, lsl r0
     a80:	00000770 	andeq	r0, r0, r0, ror r7
     a84:	00000000 	andeq	r0, r0, r0
     a88:	000000ae 	andeq	r0, r0, lr, lsr #1
     a8c:	40040e41 	andmi	r0, r4, r1, asr #28
     a90:	0e410187 	dvfeqd	f0, f1, f7
     a94:	070d4120 	streq	r4, [sp, -r0, lsr #2]
     a98:	00000018 	andeq	r0, r0, r8, lsl r0
     a9c:	00000770 	andeq	r0, r0, r0, ror r7
     aa0:	00000000 	andeq	r0, r0, r0
     aa4:	00000038 	andeq	r0, r0, r8, lsr r0
     aa8:	40040e41 	andmi	r0, r4, r1, asr #28
     aac:	0e410187 	dvfeqd	f0, f1, f7
     ab0:	070d4118 	smladeq	sp, r8, r1, r4
     ab4:	0000000c 	andeq	r0, r0, ip
     ab8:	ffffffff 			; <UNDEFINED> instruction: 0xffffffff
     abc:	7c020001 	stcvc	0, cr0, [r2], {1}
     ac0:	000d0c0e 	andeq	r0, sp, lr, lsl #24
     ac4:	00000018 	andeq	r0, r0, r8, lsl r0
     ac8:	00000ab4 			; <UNDEFINED> instruction: 0x00000ab4
     acc:	08000c64 	stmdaeq	r0, {r2, r5, r6, sl, fp}
     ad0:	00000040 	andeq	r0, r0, r0, asr #32
     ad4:	40040e41 	andmi	r0, r4, r1, asr #28
     ad8:	0e410187 	dvfeqd	f0, f1, f7
     adc:	070d4118 	smladeq	sp, r8, r1, r4
     ae0:	00000018 	andeq	r0, r0, r8, lsl r0
     ae4:	00000ab4 			; <UNDEFINED> instruction: 0x00000ab4
     ae8:	00000000 	andeq	r0, r0, r0
     aec:	0000001a 	andeq	r0, r0, sl, lsl r0
     af0:	40040e41 	andmi	r0, r4, r1, asr #28
     af4:	0e410187 	dvfeqd	f0, f1, f7
     af8:	070d4110 	smladeq	sp, r0, r1, r4
     afc:	00000018 	andeq	r0, r0, r8, lsl r0
     b00:	00000ab4 			; <UNDEFINED> instruction: 0x00000ab4
     b04:	08000ca4 	stmdaeq	r0, {r2, r5, r7, sl, fp}
     b08:	00000018 	andeq	r0, r0, r8, lsl r0
     b0c:	40040e41 	andmi	r0, r4, r1, asr #28
     b10:	0e410187 	dvfeqd	f0, f1, f7
     b14:	070d4110 	smladeq	sp, r0, r1, r4
     b18:	00000018 	andeq	r0, r0, r8, lsl r0
     b1c:	00000ab4 			; <UNDEFINED> instruction: 0x00000ab4
     b20:	08000cbc 	stmdaeq	r0, {r2, r3, r4, r5, r7, sl, fp}
     b24:	00000020 	andeq	r0, r0, r0, lsr #32
     b28:	40040e41 	andmi	r0, r4, r1, asr #28
     b2c:	0e410187 	dvfeqd	f0, f1, f7
     b30:	070d4110 	smladeq	sp, r0, r1, r4
     b34:	00000018 	andeq	r0, r0, r8, lsl r0
     b38:	00000ab4 			; <UNDEFINED> instruction: 0x00000ab4
     b3c:	08000cdc 	stmdaeq	r0, {r2, r3, r4, r6, r7, sl, fp}
     b40:	00000016 	andeq	r0, r0, r6, lsl r0
     b44:	40040e41 	andmi	r0, r4, r1, asr #28
     b48:	0e410187 	dvfeqd	f0, f1, f7
     b4c:	070d4110 	smladeq	sp, r0, r1, r4
     b50:	00000018 	andeq	r0, r0, r8, lsl r0
     b54:	00000ab4 			; <UNDEFINED> instruction: 0x00000ab4
     b58:	08000cf4 	stmdaeq	r0, {r2, r4, r5, r6, r7, sl, fp}
     b5c:	0000001a 	andeq	r0, r0, sl, lsl r0
     b60:	40040e41 	andmi	r0, r4, r1, asr #28
     b64:	0e410187 	dvfeqd	f0, f1, f7
     b68:	070d4118 	smladeq	sp, r8, r1, r4
     b6c:	00000020 	andeq	r0, r0, r0, lsr #32
     b70:	00000ab4 			; <UNDEFINED> instruction: 0x00000ab4
     b74:	08000d10 	stmdaeq	r0, {r4, r8, sl, fp}
     b78:	00000050 	andeq	r0, r0, r0, asr r0
     b7c:	400c0e41 	andmi	r0, ip, r1, asr #28
     b80:	87400384 	strbhi	r0, [r0, -r4, lsl #7]
     b84:	018e4002 	orreq	r4, lr, r2
     b88:	41280e41 	teqmi	r8, r1, asr #28
     b8c:	0000070d 	andeq	r0, r0, sp, lsl #14
     b90:	0000001c 	andeq	r0, r0, ip, lsl r0
     b94:	00000ab4 			; <UNDEFINED> instruction: 0x00000ab4
     b98:	08000d60 	stmdaeq	r0, {r5, r6, r8, sl, fp}
     b9c:	00000038 	andeq	r0, r0, r8, lsr r0
     ba0:	40080e41 	andmi	r0, r8, r1, asr #28
     ba4:	8e400287 	cdphi	2, 4, cr0, cr0, cr7, {4}
     ba8:	200e4101 	andcs	r4, lr, r1, lsl #2
     bac:	00070d41 	andeq	r0, r7, r1, asr #26
     bb0:	00000018 	andeq	r0, r0, r8, lsl r0
     bb4:	00000ab4 			; <UNDEFINED> instruction: 0x00000ab4
     bb8:	00000000 	andeq	r0, r0, r0
     bbc:	00000006 	andeq	r0, r0, r6
     bc0:	40040e41 	andmi	r0, r4, r1, asr #28
     bc4:	0d410187 	stfeqe	f0, [r1, #-540]	; 0xfffffde4
     bc8:	00000007 	andeq	r0, r0, r7
     bcc:	0000000c 	andeq	r0, r0, ip
     bd0:	ffffffff 			; <UNDEFINED> instruction: 0xffffffff
     bd4:	7c020001 	stcvc	0, cr0, [r2], {1}
     bd8:	000d0c0e 	andeq	r0, sp, lr, lsl #24
     bdc:	00000024 	andeq	r0, r0, r4, lsr #32
     be0:	00000bcc 	andeq	r0, r0, ip, asr #23
     be4:	00000000 	andeq	r0, r0, r0
     be8:	00000028 	andeq	r0, r0, r8, lsr #32
     bec:	810c0e41 	tsthi	ip, r1, asr #28
     bf0:	83028203 	movwhi	r8, #8707	; 0x2203
     bf4:	200e4101 	andcs	r4, lr, r1, lsl #2
     bf8:	07810880 	streq	r0, [r1, r0, lsl #17]
     bfc:	05840682 	streq	r0, [r4, #1666]	; 0x682
     c00:	0000048e 	andeq	r0, r0, lr, lsl #9
     c04:	00000024 	andeq	r0, r0, r4, lsr #32
     c08:	00000bcc 	andeq	r0, r0, ip, asr #23
     c0c:	08000d98 	stmdaeq	r0, {r3, r4, r7, r8, sl, fp}
     c10:	00000030 	andeq	r0, r0, r0, lsr r0
     c14:	80100e41 	andshi	r0, r0, r1, asr #28
     c18:	82038104 	andhi	r8, r3, #4, 2
     c1c:	42018302 	andmi	r8, r1, #134217728	; 0x8000000
     c20:	0880200e 	stmeq	r0, {r1, r2, r3, sp}
     c24:	06840781 	streq	r0, [r4], r1, lsl #15
     c28:	0000058e 	andeq	r0, r0, lr, lsl #11
     c2c:	0000000c 	andeq	r0, r0, ip
     c30:	ffffffff 			; <UNDEFINED> instruction: 0xffffffff
     c34:	7c020001 	stcvc	0, cr0, [r2], {1}
     c38:	000d0c0e 	andeq	r0, sp, lr, lsl #24
     c3c:	00000018 	andeq	r0, r0, r8, lsl r0
     c40:	00000c2c 	andeq	r0, r0, ip, lsr #24
     c44:	08000dc8 	stmdaeq	r0, {r3, r6, r7, r8, sl, fp}
     c48:	000000c0 	andeq	r0, r0, r0, asr #1
     c4c:	84100e41 	ldrhi	r0, [r0], #-3649	; 0xe41
     c50:	86038504 	strhi	r8, [r3], -r4, lsl #10
     c54:	00018e02 	andeq	r8, r1, r2, lsl #28
     c58:	0000000c 	andeq	r0, r0, ip
     c5c:	00000c2c 	andeq	r0, r0, ip, lsr #24
     c60:	08000e88 	stmdaeq	r0, {r3, r7, r9, sl, fp}
     c64:	00000010 	andeq	r0, r0, r0, lsl r0
     c68:	0000000c 	andeq	r0, r0, ip
     c6c:	ffffffff 			; <UNDEFINED> instruction: 0xffffffff
     c70:	7c020001 	stcvc	0, cr0, [r2], {1}
     c74:	000d0c0e 	andeq	r0, sp, lr, lsl #24
     c78:	00000018 	andeq	r0, r0, r8, lsl r0
     c7c:	00000c68 	andeq	r0, r0, r8, ror #24
     c80:	08000e98 	stmdaeq	r0, {r3, r4, r7, r9, sl, fp}
     c84:	00000058 	andeq	r0, r0, r8, asr r0
     c88:	83100e41 	tsthi	r0, #1040	; 0x410
     c8c:	85038404 	strhi	r8, [r3, #-1028]	; 0x404
     c90:	00018e02 	andeq	r8, r1, r2, lsl #28
     c94:	0000000c 	andeq	r0, r0, ip
     c98:	00000c68 	andeq	r0, r0, r8, ror #24
     c9c:	00000000 	andeq	r0, r0, r0
     ca0:	00000010 	andeq	r0, r0, r0, lsl r0
     ca4:	0000000c 	andeq	r0, r0, ip
     ca8:	ffffffff 			; <UNDEFINED> instruction: 0xffffffff
     cac:	7c020001 	stcvc	0, cr0, [r2], {1}
     cb0:	000d0c0e 	andeq	r0, sp, lr, lsl #24
     cb4:	0000001c 	andeq	r0, r0, ip, lsl r0
     cb8:	00000ca4 	andeq	r0, r0, r4, lsr #25
     cbc:	08000ef0 	stmdaeq	r0, {r4, r5, r6, r7, r9, sl, fp}
     cc0:	00000110 	andeq	r0, r0, r0, lsl r1
     cc4:	84180e42 	ldrhi	r0, [r8], #-3650	; 0xe42
     cc8:	86058506 	strhi	r8, [r5], -r6, lsl #10
     ccc:	88038704 	stmdahi	r3, {r2, r8, r9, sl, pc}
     cd0:	00018e02 	andeq	r8, r1, r2, lsl #28
     cd4:	0000000c 	andeq	r0, r0, ip
     cd8:	ffffffff 			; <UNDEFINED> instruction: 0xffffffff
     cdc:	7c020001 	stcvc	0, cr0, [r2], {1}
     ce0:	000d0c0e 	andeq	r0, sp, lr, lsl #24
     ce4:	00000014 	andeq	r0, r0, r4, lsl r0
     ce8:	00000cd4 	ldrdeq	r0, [r0], -r4
     cec:	08001000 	stmdaeq	r0, {ip}
     cf0:	0000002c 	andeq	r0, r0, ip, lsr #32
     cf4:	84080e42 	strhi	r0, [r8], #-3650	; 0xe42
     cf8:	00018e02 	andeq	r8, r1, r2, lsl #28
     cfc:	0000001c 	andeq	r0, r0, ip, lsl r0
     d00:	00000cd4 	ldrdeq	r0, [r0], -r4
     d04:	0800102c 	stmdaeq	r0, {r2, r3, r5, ip}
     d08:	00000024 	andeq	r0, r0, r4, lsr #32
     d0c:	83180e41 	tsthi	r8, #1040	; 0x410
     d10:	85058406 	strhi	r8, [r5, #-1030]	; 0x406
     d14:	87038604 	strhi	r8, [r3, -r4, lsl #12]
     d18:	00018e02 	andeq	r8, r1, r2, lsl #28
     d1c:	00000018 	andeq	r0, r0, r8, lsl r0
     d20:	00000cd4 	ldrdeq	r0, [r0], -r4
     d24:	00000000 	andeq	r0, r0, r0
     d28:	0000001a 	andeq	r0, r0, sl, lsl r0
     d2c:	83100e41 	tsthi	r0, #1040	; 0x410
     d30:	85038404 	strhi	r8, [r3, #-1028]	; 0x404
     d34:	00018e02 	andeq	r8, r1, r2, lsl #28
     d38:	00000024 	andeq	r0, r0, r4, lsr #32
     d3c:	00000cd4 	ldrdeq	r0, [r0], -r4
     d40:	08001050 	stmdaeq	r0, {r4, r6, ip}
     d44:	00000208 	andeq	r0, r0, r8, lsl #4
     d48:	841c0e42 	ldrhi	r0, [ip], #-3650	; 0xe42
     d4c:	86068507 	strhi	r8, [r6], -r7, lsl #10
     d50:	88048705 	stmdahi	r4, {r0, r2, r8, r9, sl, pc}
     d54:	8e028903 	cdphi	9, 0, cr8, cr2, cr3, {0}
     d58:	900e4101 	andls	r4, lr, r1, lsl #2
     d5c:	00000001 	andeq	r0, r0, r1
     d60:	00000018 	andeq	r0, r0, r8, lsl r0
     d64:	00000cd4 	ldrdeq	r0, [r0], -r4
     d68:	00000000 	andeq	r0, r0, r0
     d6c:	0000001c 	andeq	r0, r0, ip, lsl r0
     d70:	840c0e41 	strhi	r0, [ip], #-3649	; 0xe41
     d74:	8e028503 	cfsh32hi	mvfx8, mvfx2, #3
     d78:	00000001 	andeq	r0, r0, r1
     d7c:	0000000c 	andeq	r0, r0, ip
     d80:	ffffffff 			; <UNDEFINED> instruction: 0xffffffff
     d84:	7c020001 	stcvc	0, cr0, [r2], {1}
     d88:	000d0c0e 	andeq	r0, sp, lr, lsl #24
     d8c:	00000020 	andeq	r0, r0, r0, lsr #32
     d90:	00000d7c 	andeq	r0, r0, ip, ror sp
     d94:	08001258 	stmdaeq	r0, {r3, r4, r6, r9, ip}
     d98:	000000e4 	andeq	r0, r0, r4, ror #1
     d9c:	83200e42 	teqhi	r0, #1056	; 0x420
     da0:	85078408 	strhi	r8, [r7, #-1032]	; 0x408
     da4:	87058606 	strhi	r8, [r5, -r6, lsl #12]
     da8:	89038804 	stmdbhi	r3, {r2, fp, pc}
     dac:	00018e02 	andeq	r8, r1, r2, lsl #28
     db0:	00000028 	andeq	r0, r0, r8, lsr #32
     db4:	00000d7c 	andeq	r0, r0, ip, ror sp
     db8:	0800133c 	stmdaeq	r0, {r2, r3, r4, r5, r8, r9, ip}
     dbc:	00000228 	andeq	r0, r0, r8, lsr #4
     dc0:	80300e42 	eorshi	r0, r0, r2, asr #28
     dc4:	820b810c 	andhi	r8, fp, #12, 2
     dc8:	8409830a 	strhi	r8, [r9], #-778	; 0x30a
     dcc:	86078508 	strhi	r8, [r7], -r8, lsl #10
     dd0:	88058706 	stmdahi	r5, {r1, r2, r8, r9, sl, pc}
     dd4:	8a038904 	bhi	e31ec <g_pfnVectors-0x7f1ce14>
     dd8:	00018e02 	andeq	r8, r1, r2, lsl #28
     ddc:	0000000c 	andeq	r0, r0, ip
     de0:	ffffffff 			; <UNDEFINED> instruction: 0xffffffff
     de4:	7c020001 	stcvc	0, cr0, [r2], {1}
     de8:	000d0c0e 	andeq	r0, sp, lr, lsl #24
     dec:	00000018 	andeq	r0, r0, r8, lsl r0
     df0:	00000ddc 	ldrdeq	r0, [r0], -ip
     df4:	08001564 	stmdaeq	r0, {r2, r5, r6, r8, sl, ip}
     df8:	000000a8 	andeq	r0, r0, r8, lsr #1
     dfc:	84100e41 	ldrhi	r0, [r0], #-3649	; 0xe41
     e00:	86038504 	strhi	r8, [r3], -r4, lsl #10
     e04:	00018e02 	andeq	r8, r1, r2, lsl #28
     e08:	0000000c 	andeq	r0, r0, ip
     e0c:	00000ddc 	ldrdeq	r0, [r0], -ip
     e10:	00000000 	andeq	r0, r0, r0
     e14:	00000014 	andeq	r0, r0, r4, lsl r0
     e18:	0000000c 	andeq	r0, r0, ip
     e1c:	ffffffff 			; <UNDEFINED> instruction: 0xffffffff
     e20:	7c020001 	stcvc	0, cr0, [r2], {1}
     e24:	000d0c0e 	andeq	r0, sp, lr, lsl #24
     e28:	00000018 	andeq	r0, r0, r8, lsl r0
     e2c:	00000e18 	andeq	r0, r0, r8, lsl lr
     e30:	0800160c 	stmdaeq	r0, {r2, r3, r9, sl, ip}
     e34:	000000dc 	ldrdeq	r0, [r0], -ip
     e38:	84100e42 	ldrhi	r0, [r0], #-3650	; 0xe42
     e3c:	86038504 	strhi	r8, [r3], -r4, lsl #10
     e40:	00018e02 	andeq	r8, r1, r2, lsl #28
     e44:	0000000c 	andeq	r0, r0, ip
     e48:	ffffffff 			; <UNDEFINED> instruction: 0xffffffff
     e4c:	7c020001 	stcvc	0, cr0, [r2], {1}
     e50:	000d0c0e 	andeq	r0, sp, lr, lsl #24
     e54:	0000001c 	andeq	r0, r0, ip, lsl r0
     e58:	00000e44 	andeq	r0, r0, r4, asr #28
     e5c:	080016e8 	stmdaeq	r0, {r3, r5, r6, r7, r9, sl, ip}
     e60:	00000106 	andeq	r0, r0, r6, lsl #2
     e64:	84180e43 	ldrhi	r0, [r8], #-3651	; 0xe43
     e68:	86058506 	strhi	r8, [r5], -r6, lsl #10
     e6c:	88038704 	stmdahi	r3, {r2, r8, r9, sl, pc}
     e70:	00018e02 	andeq	r8, r1, r2, lsl #28
     e74:	00000018 	andeq	r0, r0, r8, lsl r0
     e78:	00000e44 	andeq	r0, r0, r4, asr #28
     e7c:	080017f0 	stmdaeq	r0, {r4, r5, r6, r7, r8, r9, sl, ip}
     e80:	00000054 	andeq	r0, r0, r4, asr r0
     e84:	83100e41 	tsthi	r0, #1040	; 0x410
     e88:	85038404 	strhi	r8, [r3, #-1028]	; 0x404
     e8c:	00018e02 	andeq	r8, r1, r2, lsl #28
     e90:	0000000c 	andeq	r0, r0, ip
     e94:	00000e44 	andeq	r0, r0, r4, asr #28
     e98:	08001844 	stmdaeq	r0, {r2, r6, fp, ip}
     e9c:	00000024 	andeq	r0, r0, r4, lsr #32
     ea0:	0000000c 	andeq	r0, r0, ip
     ea4:	ffffffff 			; <UNDEFINED> instruction: 0xffffffff
     ea8:	7c020001 	stcvc	0, cr0, [r2], {1}
     eac:	000d0c0e 	andeq	r0, sp, lr, lsl #24
     eb0:	0000000c 	andeq	r0, r0, ip
     eb4:	00000ea0 	andeq	r0, r0, r0, lsr #29
     eb8:	00000000 	andeq	r0, r0, r0
     ebc:	00000004 	andeq	r0, r0, r4
     ec0:	0000000c 	andeq	r0, r0, ip
     ec4:	00000ea0 	andeq	r0, r0, r0, lsr #29
     ec8:	00000000 	andeq	r0, r0, r0
     ecc:	00000004 	andeq	r0, r0, r4
     ed0:	0000001c 	andeq	r0, r0, ip, lsl r0
     ed4:	00000ea0 	andeq	r0, r0, r0, lsr #29
     ed8:	08001868 	stmdaeq	r0, {r3, r5, r6, fp, ip}
     edc:	00000032 	andeq	r0, r0, r2, lsr r0
     ee0:	83180e41 	tsthi	r8, #1040	; 0x410
     ee4:	85058406 	strhi	r8, [r5, #-1030]	; 0x406
     ee8:	87038604 	strhi	r8, [r3, -r4, lsl #12]
     eec:	00018e02 	andeq	r8, r1, r2, lsl #28
     ef0:	00000014 	andeq	r0, r0, r4, lsl r0
     ef4:	00000ea0 	andeq	r0, r0, r0, lsr #29
     ef8:	0800189c 	stmdaeq	r0, {r2, r3, r4, r7, fp, ip}
     efc:	00000048 	andeq	r0, r0, r8, asr #32
     f00:	84080e42 	strhi	r0, [r8], #-3650	; 0xe42
     f04:	00018e02 	andeq	r8, r1, r2, lsl #28
     f08:	00000018 	andeq	r0, r0, r8, lsl r0
     f0c:	00000ea0 	andeq	r0, r0, r0, lsr #29
     f10:	080018e4 	stmdaeq	r0, {r2, r5, r6, r7, fp, ip}
     f14:	0000002c 	andeq	r0, r0, ip, lsr #32
     f18:	84100e41 	ldrhi	r0, [r0], #-3649	; 0xe41
     f1c:	86038504 	strhi	r8, [r3], -r4, lsl #10
     f20:	00018e02 	andeq	r8, r1, r2, lsl #28
     f24:	0000000c 	andeq	r0, r0, ip
     f28:	00000ea0 	andeq	r0, r0, r0, lsr #29
     f2c:	00000000 	andeq	r0, r0, r0
     f30:	0000000c 	andeq	r0, r0, ip
     f34:	00000014 	andeq	r0, r0, r4, lsl r0
     f38:	00000ea0 	andeq	r0, r0, r0, lsr #29
     f3c:	08001910 	stmdaeq	r0, {r4, r8, fp, ip}
     f40:	00000060 	andeq	r0, r0, r0, rrx
     f44:	84080e42 	strhi	r0, [r8], #-3650	; 0xe42
     f48:	00018e02 	andeq	r8, r1, r2, lsl #28
     f4c:	0000001c 	andeq	r0, r0, ip, lsl r0
     f50:	00000ea0 	andeq	r0, r0, r0, lsr #29
     f54:	08001970 	stmdaeq	r0, {r4, r5, r6, r8, fp, ip}
     f58:	00000074 	andeq	r0, r0, r4, ror r0
     f5c:	83180e41 	tsthi	r8, #1040	; 0x410
     f60:	85058406 	strhi	r8, [r5, #-1030]	; 0x406
     f64:	87038604 	strhi	r8, [r3, -r4, lsl #12]
     f68:	00018e02 	andeq	r8, r1, r2, lsl #28
     f6c:	0000000c 	andeq	r0, r0, ip
     f70:	00000ea0 	andeq	r0, r0, r0, lsr #29
     f74:	00000000 	andeq	r0, r0, r0
     f78:	00000002 	andeq	r0, r0, r2
     f7c:	0000000c 	andeq	r0, r0, ip
     f80:	00000ea0 	andeq	r0, r0, r0, lsr #29
     f84:	00000000 	andeq	r0, r0, r0
     f88:	00000002 	andeq	r0, r0, r2
     f8c:	0000000c 	andeq	r0, r0, ip
     f90:	00000ea0 	andeq	r0, r0, r0, lsr #29
     f94:	00000000 	andeq	r0, r0, r0
     f98:	00000002 	andeq	r0, r0, r2
     f9c:	0000000c 	andeq	r0, r0, ip
     fa0:	00000ea0 	andeq	r0, r0, r0, lsr #29
     fa4:	00000000 	andeq	r0, r0, r0
     fa8:	00000002 	andeq	r0, r0, r2
     fac:	0000000c 	andeq	r0, r0, ip
     fb0:	00000ea0 	andeq	r0, r0, r0, lsr #29
     fb4:	00000000 	andeq	r0, r0, r0
     fb8:	00000014 	andeq	r0, r0, r4, lsl r0
     fbc:	0000000c 	andeq	r0, r0, ip
     fc0:	00000ea0 	andeq	r0, r0, r0, lsr #29
     fc4:	00000000 	andeq	r0, r0, r0
     fc8:	00000014 	andeq	r0, r0, r4, lsl r0
     fcc:	0000000c 	andeq	r0, r0, ip
     fd0:	ffffffff 			; <UNDEFINED> instruction: 0xffffffff
     fd4:	7c020001 	stcvc	0, cr0, [r2], {1}
     fd8:	000d0c0e 	andeq	r0, sp, lr, lsl #24
     fdc:	0000001c 	andeq	r0, r0, ip, lsl r0
     fe0:	00000fcc 	andeq	r0, r0, ip, asr #31
     fe4:	080019e4 	stmdaeq	r0, {r2, r5, r6, r7, r8, fp, ip}
     fe8:	00000038 	andeq	r0, r0, r8, lsr r0
     fec:	84180e42 	ldrhi	r0, [r8], #-3650	; 0xe42
     ff0:	86058506 	strhi	r8, [r5], -r6, lsl #10
     ff4:	88038704 	stmdahi	r3, {r2, r8, r9, sl, pc}
     ff8:	00018e02 	andeq	r8, r1, r2, lsl #28
     ffc:	00000020 	andeq	r0, r0, r0, lsr #32
    1000:	00000fcc 	andeq	r0, r0, ip, asr #31
    1004:	08001a1c 	stmdaeq	r0, {r2, r3, r4, r9, fp, ip}
    1008:	0000003c 	andeq	r0, r0, ip, lsr r0
    100c:	83200e42 	teqhi	r0, #1056	; 0x420
    1010:	85078408 	strhi	r8, [r7, #-1032]	; 0x408
    1014:	87058606 	strhi	r8, [r5, -r6, lsl #12]
    1018:	89038804 	stmdbhi	r3, {r2, fp, pc}
    101c:	00018e02 	andeq	r8, r1, r2, lsl #28
    1020:	0000000c 	andeq	r0, r0, ip
    1024:	ffffffff 			; <UNDEFINED> instruction: 0xffffffff
    1028:	7c020001 	stcvc	0, cr0, [r2], {1}
    102c:	000d0c0e 	andeq	r0, sp, lr, lsl #24
    1030:	0000001c 	andeq	r0, r0, ip, lsl r0
    1034:	00001020 	andeq	r1, r0, r0, lsr #32
    1038:	08001a58 	stmdaeq	r0, {r3, r4, r6, r9, fp, ip}
    103c:	00000098 	muleq	r0, r8, r0
    1040:	84140e41 	ldrhi	r0, [r4], #-3649	; 0xe41
    1044:	86048505 	strhi	r8, [r4], -r5, lsl #10
    1048:	8e028703 	cdphi	7, 0, cr8, cr2, cr3, {0}
    104c:	580e4201 	stmdapl	lr, {r0, r9, lr}
    1050:	0000000c 	andeq	r0, r0, ip
    1054:	ffffffff 			; <UNDEFINED> instruction: 0xffffffff
    1058:	7c020001 	stcvc	0, cr0, [r2], {1}
    105c:	000d0c0e 	andeq	r0, sp, lr, lsl #24
    1060:	0000000c 	andeq	r0, r0, ip
    1064:	00001050 	andeq	r1, r0, r0, asr r0
    1068:	08001af0 	stmdaeq	r0, {r4, r5, r6, r7, r9, fp, ip}
    106c:	00000010 	andeq	r0, r0, r0, lsl r0
    1070:	0000000c 	andeq	r0, r0, ip
    1074:	00001050 	andeq	r1, r0, r0, asr r0
    1078:	00000000 	andeq	r0, r0, r0
    107c:	00000010 	andeq	r0, r0, r0, lsl r0
    1080:	0000000c 	andeq	r0, r0, ip
    1084:	ffffffff 			; <UNDEFINED> instruction: 0xffffffff
    1088:	7c020001 	stcvc	0, cr0, [r2], {1}
    108c:	000d0c0e 	andeq	r0, sp, lr, lsl #24
    1090:	00000014 	andeq	r0, r0, r4, lsl r0
    1094:	00001080 	andeq	r1, r0, r0, lsl #1
    1098:	08001b00 	stmdaeq	r0, {r8, r9, fp, ip}
    109c:	0000001c 	andeq	r0, r0, ip, lsl r0
    10a0:	84080e41 	strhi	r0, [r8], #-3649	; 0xe41
    10a4:	00018e02 	andeq	r8, r1, r2, lsl #28
    10a8:	0000000c 	andeq	r0, r0, ip
    10ac:	ffffffff 			; <UNDEFINED> instruction: 0xffffffff
    10b0:	7c020001 	stcvc	0, cr0, [r2], {1}
    10b4:	000d0c0e 	andeq	r0, sp, lr, lsl #24
    10b8:	0000000c 	andeq	r0, r0, ip
    10bc:	000010a8 	andeq	r1, r0, r8, lsr #1
    10c0:	08001b1c 	stmdaeq	r0, {r2, r3, r4, r8, r9, fp, ip}
    10c4:	00000010 	andeq	r0, r0, r0, lsl r0
    10c8:	0000000c 	andeq	r0, r0, ip
    10cc:	ffffffff 			; <UNDEFINED> instruction: 0xffffffff
    10d0:	7c020001 	stcvc	0, cr0, [r2], {1}
    10d4:	000d0c0e 	andeq	r0, sp, lr, lsl #24
    10d8:	00000018 	andeq	r0, r0, r8, lsl r0
    10dc:	000010c8 	andeq	r1, r0, r8, asr #1
    10e0:	08001b2c 	stmdaeq	r0, {r2, r3, r5, r8, r9, fp, ip}
    10e4:	00000088 	andeq	r0, r0, r8, lsl #1
    10e8:	840c0e41 	strhi	r0, [ip], #-3649	; 0xe41
    10ec:	8e028503 	cfsh32hi	mvfx8, mvfx2, #3
    10f0:	00000001 	andeq	r0, r0, r1
    10f4:	0000000c 	andeq	r0, r0, ip
    10f8:	ffffffff 			; <UNDEFINED> instruction: 0xffffffff
    10fc:	7c020001 	stcvc	0, cr0, [r2], {1}
    1100:	000d0c0e 	andeq	r0, sp, lr, lsl #24
    1104:	00000018 	andeq	r0, r0, r8, lsl r0
    1108:	000010f4 	strdeq	r1, [r0], -r4
    110c:	08001bb4 	stmdaeq	r0, {r2, r4, r5, r7, r8, r9, fp, ip}
    1110:	000000a8 	andeq	r0, r0, r8, lsr #1
    1114:	84100e41 	ldrhi	r0, [r0], #-3649	; 0xe41
    1118:	86038504 	strhi	r8, [r3], -r4, lsl #10
    111c:	00018e02 	andeq	r8, r1, r2, lsl #28
    1120:	0000000c 	andeq	r0, r0, ip
    1124:	ffffffff 			; <UNDEFINED> instruction: 0xffffffff
    1128:	7c020001 	stcvc	0, cr0, [r2], {1}
    112c:	000d0c0e 	andeq	r0, sp, lr, lsl #24
    1130:	0000000c 	andeq	r0, r0, ip
    1134:	00001120 	andeq	r1, r0, r0, lsr #2
    1138:	08001c5c 	stmdaeq	r0, {r2, r3, r4, r6, sl, fp, ip}
    113c:	00000012 	andeq	r0, r0, r2, lsl r0
    1140:	0000001c 	andeq	r0, r0, ip, lsl r0
    1144:	00001120 	andeq	r1, r0, r0, lsr #2
    1148:	08001c70 	stmdaeq	r0, {r4, r5, r6, sl, fp, ip}
    114c:	0000010c 	andeq	r0, r0, ip, lsl #2
    1150:	83180e41 	tsthi	r8, #1040	; 0x410
    1154:	85058406 	strhi	r8, [r5, #-1030]	; 0x406
    1158:	87038604 	strhi	r8, [r3, -r4, lsl #12]
    115c:	00018e02 	andeq	r8, r1, r2, lsl #28
    1160:	0000000c 	andeq	r0, r0, ip
    1164:	ffffffff 			; <UNDEFINED> instruction: 0xffffffff
    1168:	7c020001 	stcvc	0, cr0, [r2], {1}
    116c:	000d0c0e 	andeq	r0, sp, lr, lsl #24
    1170:	00000018 	andeq	r0, r0, r8, lsl r0
    1174:	00001160 	andeq	r1, r0, r0, ror #2
    1178:	08001d7c 	stmdaeq	r0, {r2, r3, r4, r5, r6, r8, sl, fp, ip}
    117c:	00000020 	andeq	r0, r0, r0, lsr #32
    1180:	83100e41 	tsthi	r0, #1040	; 0x410
    1184:	85038404 	strhi	r8, [r3, #-1028]	; 0x404
    1188:	00018e02 	andeq	r8, r1, r2, lsl #28
    118c:	0000000c 	andeq	r0, r0, ip
    1190:	ffffffff 			; <UNDEFINED> instruction: 0xffffffff
    1194:	7c020001 	stcvc	0, cr0, [r2], {1}
    1198:	000d0c0e 	andeq	r0, sp, lr, lsl #24
    119c:	00000014 	andeq	r0, r0, r4, lsl r0
    11a0:	0000118c 	andeq	r1, r0, ip, lsl #3
    11a4:	08001d9c 	stmdaeq	r0, {r2, r3, r4, r7, r8, sl, fp, ip}
    11a8:	00000022 	andeq	r0, r0, r2, lsr #32
    11ac:	84080e41 	strhi	r0, [r8], #-3649	; 0xe41
    11b0:	00018e02 	andeq	r8, r1, r2, lsl #28
    11b4:	0000000c 	andeq	r0, r0, ip
    11b8:	0000118c 	andeq	r1, r0, ip, lsl #3
    11bc:	00000000 	andeq	r0, r0, r0
    11c0:	00000004 	andeq	r0, r0, r4
    11c4:	0000001c 	andeq	r0, r0, ip, lsl r0
    11c8:	0000118c 	andeq	r1, r0, ip, lsl #3
    11cc:	08001dbe 	stmdaeq	r0, {r1, r2, r3, r4, r5, r7, r8, sl, fp, ip}
    11d0:	00000038 	andeq	r0, r0, r8, lsr r0
    11d4:	84180e42 	ldrhi	r0, [r8], #-3650	; 0xe42
    11d8:	86058506 	strhi	r8, [r5], -r6, lsl #10
    11dc:	88038704 	stmdahi	r3, {r2, r8, r9, sl, pc}
    11e0:	00018e02 	andeq	r8, r1, r2, lsl #28
    11e4:	00000014 	andeq	r0, r0, r4, lsl r0
    11e8:	0000118c 	andeq	r1, r0, ip, lsl #3
    11ec:	08001df6 	stmdaeq	r0, {r1, r2, r4, r5, r6, r7, r8, sl, fp, ip}
    11f0:	00000024 	andeq	r0, r0, r4, lsr #32
    11f4:	84080e41 	strhi	r0, [r8], #-3649	; 0xe41
    11f8:	00018e02 	andeq	r8, r1, r2, lsl #28
    11fc:	0000000c 	andeq	r0, r0, ip
    1200:	0000118c 	andeq	r1, r0, ip, lsl #3
    1204:	08001e1a 	stmdaeq	r0, {r1, r3, r4, r9, sl, fp, ip}
    1208:	00000008 	andeq	r0, r0, r8
    120c:	0000000c 	andeq	r0, r0, ip
    1210:	ffffffff 			; <UNDEFINED> instruction: 0xffffffff
    1214:	7c020001 	stcvc	0, cr0, [r2], {1}
    1218:	000d0c0e 	andeq	r0, sp, lr, lsl #24
    121c:	0000000c 	andeq	r0, r0, ip
    1220:	0000120c 	andeq	r1, r0, ip, lsl #4
    1224:	08001e22 	stmdaeq	r0, {r1, r5, r9, sl, fp, ip}
    1228:	00000010 	andeq	r0, r0, r0, lsl r0
    122c:	0000000c 	andeq	r0, r0, ip
    1230:	ffffffff 			; <UNDEFINED> instruction: 0xffffffff
    1234:	7c020001 	stcvc	0, cr0, [r2], {1}
    1238:	000d0c0e 	andeq	r0, sp, lr, lsl #24
    123c:	00000018 	andeq	r0, r0, r8, lsl r0
    1240:	0000122c 	andeq	r1, r0, ip, lsr #4
    1244:	08001e34 	stmdaeq	r0, {r2, r4, r5, r9, sl, fp, ip}
    1248:	00000024 	andeq	r0, r0, r4, lsr #32
    124c:	83100e41 	tsthi	r0, #1040	; 0x410
    1250:	85038404 	strhi	r8, [r3, #-1028]	; 0x404
    1254:	00018e02 	andeq	r8, r1, r2, lsl #28
    1258:	0000000c 	andeq	r0, r0, ip
    125c:	ffffffff 			; <UNDEFINED> instruction: 0xffffffff
    1260:	7c020001 	stcvc	0, cr0, [r2], {1}
    1264:	000d0c0e 	andeq	r0, sp, lr, lsl #24
    1268:	00000018 	andeq	r0, r0, r8, lsl r0
    126c:	00001258 	andeq	r1, r0, r8, asr r2
    1270:	08001e58 	stmdaeq	r0, {r3, r4, r6, r9, sl, fp, ip}
    1274:	00000020 	andeq	r0, r0, r0, lsr #32
    1278:	83100e41 	tsthi	r0, #1040	; 0x410
    127c:	85038404 	strhi	r8, [r3, #-1028]	; 0x404
    1280:	00018e02 	andeq	r8, r1, r2, lsl #28
    1284:	0000000c 	andeq	r0, r0, ip
    1288:	ffffffff 			; <UNDEFINED> instruction: 0xffffffff
    128c:	7c020001 	stcvc	0, cr0, [r2], {1}
    1290:	000d0c0e 	andeq	r0, sp, lr, lsl #24
    1294:	00000018 	andeq	r0, r0, r8, lsl r0
    1298:	00001284 	andeq	r1, r0, r4, lsl #5
    129c:	08001e78 	stmdaeq	r0, {r3, r4, r5, r6, r9, sl, fp, ip}
    12a0:	00000024 	andeq	r0, r0, r4, lsr #32
    12a4:	83100e41 	tsthi	r0, #1040	; 0x410
    12a8:	85038404 	strhi	r8, [r3, #-1028]	; 0x404
    12ac:	00018e02 	andeq	r8, r1, r2, lsl #28
    12b0:	0000000c 	andeq	r0, r0, ip
    12b4:	ffffffff 			; <UNDEFINED> instruction: 0xffffffff
    12b8:	7c020001 	stcvc	0, cr0, [r2], {1}
    12bc:	000d0c0e 	andeq	r0, sp, lr, lsl #24
    12c0:	00000018 	andeq	r0, r0, r8, lsl r0
    12c4:	000012b0 			; <UNDEFINED> instruction: 0x000012b0
    12c8:	08001e9c 	stmdaeq	r0, {r2, r3, r4, r7, r9, sl, fp, ip}
    12cc:	00000020 	andeq	r0, r0, r0, lsr #32
    12d0:	83100e41 	tsthi	r0, #1040	; 0x410
    12d4:	85038404 	strhi	r8, [r3, #-1028]	; 0x404
    12d8:	00018e02 	andeq	r8, r1, r2, lsl #28
    12dc:	0000000c 	andeq	r0, r0, ip
    12e0:	ffffffff 			; <UNDEFINED> instruction: 0xffffffff
    12e4:	7c020001 	stcvc	0, cr0, [r2], {1}
    12e8:	000d0c0e 	andeq	r0, sp, lr, lsl #24
    12ec:	00000018 	andeq	r0, r0, r8, lsl r0
    12f0:	000012dc 	ldrdeq	r1, [r0], -ip
    12f4:	08001ebc 	stmdaeq	r0, {r2, r3, r4, r5, r7, r9, sl, fp, ip}
    12f8:	00000024 	andeq	r0, r0, r4, lsr #32
    12fc:	83100e41 	tsthi	r0, #1040	; 0x410
    1300:	85038404 	strhi	r8, [r3, #-1028]	; 0x404
    1304:	00018e02 	andeq	r8, r1, r2, lsl #28
    1308:	0000000c 	andeq	r0, r0, ip
    130c:	ffffffff 			; <UNDEFINED> instruction: 0xffffffff
    1310:	7c020001 	stcvc	0, cr0, [r2], {1}
    1314:	000d0c0e 	andeq	r0, sp, lr, lsl #24
    1318:	00000018 	andeq	r0, r0, r8, lsl r0
    131c:	00001308 	andeq	r1, r0, r8, lsl #6
    1320:	08001ee0 	stmdaeq	r0, {r5, r6, r7, r9, sl, fp, ip}
    1324:	00000024 	andeq	r0, r0, r4, lsr #32
    1328:	83100e41 	tsthi	r0, #1040	; 0x410
    132c:	85038404 	strhi	r8, [r3, #-1028]	; 0x404
    1330:	00018e02 	andeq	r8, r1, r2, lsl #28
    1334:	0000000c 	andeq	r0, r0, ip
    1338:	ffffffff 			; <UNDEFINED> instruction: 0xffffffff
    133c:	7c020001 	stcvc	0, cr0, [r2], {1}
    1340:	000d0c0e 	andeq	r0, sp, lr, lsl #24
    1344:	00000018 	andeq	r0, r0, r8, lsl r0
    1348:	00001334 	andeq	r1, r0, r4, lsr r3
    134c:	00000000 	andeq	r0, r0, r0
    1350:	0000001a 	andeq	r0, r0, sl, lsl r0
    1354:	83100e41 	tsthi	r0, #1040	; 0x410
    1358:	85038404 	strhi	r8, [r3, #-1028]	; 0x404
    135c:	00018e02 	andeq	r8, r1, r2, lsl #28
    1360:	00000018 	andeq	r0, r0, r8, lsl r0
    1364:	00001334 	andeq	r1, r0, r4, lsr r3
    1368:	00000000 	andeq	r0, r0, r0
    136c:	000000bc 	strheq	r0, [r0], -ip
    1370:	84100e42 	ldrhi	r0, [r0], #-3650	; 0xe42
    1374:	86038504 	strhi	r8, [r3], -r4, lsl #10
    1378:	00018e02 	andeq	r8, r1, r2, lsl #28
