
C:\Users\Uporabnik\Documents\CooCox\STM32F103\Blink_USART1_test\blink/Debug/bin\Blink.elf:     file format elf32-littlearm


Disassembly of section .text:

08000000 <g_pfnVectors>:
 8000000:	200040b8 	strhcs	r4, [r0], -r8
 8000004:	08000281 	stmdaeq	r0, {r0, r7, r9}
 8000008:	080002e1 	stmdaeq	r0, {r0, r5, r6, r7, r9}
 800000c:	080002e1 	stmdaeq	r0, {r0, r5, r6, r7, r9}
 8000010:	080002e1 	stmdaeq	r0, {r0, r5, r6, r7, r9}
 8000014:	080002e1 	stmdaeq	r0, {r0, r5, r6, r7, r9}
 8000018:	080002e1 	stmdaeq	r0, {r0, r5, r6, r7, r9}
	...
 800002c:	080002e1 	stmdaeq	r0, {r0, r5, r6, r7, r9}
 8000030:	080002e1 	stmdaeq	r0, {r0, r5, r6, r7, r9}
 8000034:	00000000 	andeq	r0, r0, r0
 8000038:	080002e1 	stmdaeq	r0, {r0, r5, r6, r7, r9}
 800003c:	08000521 	stmdaeq	r0, {r0, r5, r8, sl}
 8000040:	080002e1 	stmdaeq	r0, {r0, r5, r6, r7, r9}
 8000044:	080002e1 	stmdaeq	r0, {r0, r5, r6, r7, r9}
 8000048:	080002e1 	stmdaeq	r0, {r0, r5, r6, r7, r9}
 800004c:	080002e1 	stmdaeq	r0, {r0, r5, r6, r7, r9}
 8000050:	080002e1 	stmdaeq	r0, {r0, r5, r6, r7, r9}
 8000054:	080002e1 	stmdaeq	r0, {r0, r5, r6, r7, r9}
 8000058:	080002e1 	stmdaeq	r0, {r0, r5, r6, r7, r9}
 800005c:	080002e1 	stmdaeq	r0, {r0, r5, r6, r7, r9}
 8000060:	080002e1 	stmdaeq	r0, {r0, r5, r6, r7, r9}
 8000064:	080002e1 	stmdaeq	r0, {r0, r5, r6, r7, r9}
 8000068:	080002e1 	stmdaeq	r0, {r0, r5, r6, r7, r9}
 800006c:	080002e1 	stmdaeq	r0, {r0, r5, r6, r7, r9}
 8000070:	080002e1 	stmdaeq	r0, {r0, r5, r6, r7, r9}
 8000074:	080002e1 	stmdaeq	r0, {r0, r5, r6, r7, r9}
 8000078:	080002e1 	stmdaeq	r0, {r0, r5, r6, r7, r9}
 800007c:	080002e1 	stmdaeq	r0, {r0, r5, r6, r7, r9}
 8000080:	080002e1 	stmdaeq	r0, {r0, r5, r6, r7, r9}
 8000084:	080002e1 	stmdaeq	r0, {r0, r5, r6, r7, r9}
 8000088:	080002e1 	stmdaeq	r0, {r0, r5, r6, r7, r9}
 800008c:	080002e1 	stmdaeq	r0, {r0, r5, r6, r7, r9}
 8000090:	080002e1 	stmdaeq	r0, {r0, r5, r6, r7, r9}
 8000094:	080002e1 	stmdaeq	r0, {r0, r5, r6, r7, r9}
 8000098:	080002e1 	stmdaeq	r0, {r0, r5, r6, r7, r9}
 800009c:	080002e1 	stmdaeq	r0, {r0, r5, r6, r7, r9}
 80000a0:	080002e1 	stmdaeq	r0, {r0, r5, r6, r7, r9}
 80000a4:	080002e1 	stmdaeq	r0, {r0, r5, r6, r7, r9}
 80000a8:	080002e1 	stmdaeq	r0, {r0, r5, r6, r7, r9}
 80000ac:	080002e1 	stmdaeq	r0, {r0, r5, r6, r7, r9}
 80000b0:	080002e1 	stmdaeq	r0, {r0, r5, r6, r7, r9}
 80000b4:	080002e1 	stmdaeq	r0, {r0, r5, r6, r7, r9}
 80000b8:	080002e1 	stmdaeq	r0, {r0, r5, r6, r7, r9}
 80000bc:	080002e1 	stmdaeq	r0, {r0, r5, r6, r7, r9}
 80000c0:	080002e1 	stmdaeq	r0, {r0, r5, r6, r7, r9}
 80000c4:	080002e1 	stmdaeq	r0, {r0, r5, r6, r7, r9}
 80000c8:	080002e1 	stmdaeq	r0, {r0, r5, r6, r7, r9}
 80000cc:	080002e1 	stmdaeq	r0, {r0, r5, r6, r7, r9}
 80000d0:	080002e1 	stmdaeq	r0, {r0, r5, r6, r7, r9}
 80000d4:	080002e1 	stmdaeq	r0, {r0, r5, r6, r7, r9}
 80000d8:	080002e1 	stmdaeq	r0, {r0, r5, r6, r7, r9}
 80000dc:	080002e1 	stmdaeq	r0, {r0, r5, r6, r7, r9}
 80000e0:	080002e1 	stmdaeq	r0, {r0, r5, r6, r7, r9}
 80000e4:	080002e1 	stmdaeq	r0, {r0, r5, r6, r7, r9}
 80000e8:	080002e1 	stmdaeq	r0, {r0, r5, r6, r7, r9}
	...
 8000108:	f108f85f 			; <UNDEFINED> instruction: 0xf108f85f

0800010c <SystemInit>:
 800010c:	b580      	push	{r7, lr}
 800010e:	af00      	add	r7, sp, #0
 8000110:	4b15      	ldr	r3, [pc, #84]	; (8000168 <SystemInit+0x5c>)
 8000112:	4a15      	ldr	r2, [pc, #84]	; (8000168 <SystemInit+0x5c>)
 8000114:	6812      	ldr	r2, [r2, #0]
 8000116:	f042 0201 	orr.w	r2, r2, #1
 800011a:	601a      	str	r2, [r3, #0]
 800011c:	4a12      	ldr	r2, [pc, #72]	; (8000168 <SystemInit+0x5c>)
 800011e:	4b12      	ldr	r3, [pc, #72]	; (8000168 <SystemInit+0x5c>)
 8000120:	6859      	ldr	r1, [r3, #4]
 8000122:	4b12      	ldr	r3, [pc, #72]	; (800016c <SystemInit+0x60>)
 8000124:	400b      	ands	r3, r1
 8000126:	6053      	str	r3, [r2, #4]
 8000128:	4a0f      	ldr	r2, [pc, #60]	; (8000168 <SystemInit+0x5c>)
 800012a:	4b0f      	ldr	r3, [pc, #60]	; (8000168 <SystemInit+0x5c>)
 800012c:	681b      	ldr	r3, [r3, #0]
 800012e:	f023 7384 	bic.w	r3, r3, #17301504	; 0x1080000
 8000132:	f423 3380 	bic.w	r3, r3, #65536	; 0x10000
 8000136:	6013      	str	r3, [r2, #0]
 8000138:	4b0b      	ldr	r3, [pc, #44]	; (8000168 <SystemInit+0x5c>)
 800013a:	4a0b      	ldr	r2, [pc, #44]	; (8000168 <SystemInit+0x5c>)
 800013c:	6812      	ldr	r2, [r2, #0]
 800013e:	f422 2280 	bic.w	r2, r2, #262144	; 0x40000
 8000142:	601a      	str	r2, [r3, #0]
 8000144:	4b08      	ldr	r3, [pc, #32]	; (8000168 <SystemInit+0x5c>)
 8000146:	4a08      	ldr	r2, [pc, #32]	; (8000168 <SystemInit+0x5c>)
 8000148:	6852      	ldr	r2, [r2, #4]
 800014a:	f422 02fe 	bic.w	r2, r2, #8323072	; 0x7f0000
 800014e:	605a      	str	r2, [r3, #4]
 8000150:	4b05      	ldr	r3, [pc, #20]	; (8000168 <SystemInit+0x5c>)
 8000152:	f44f 021f 	mov.w	r2, #10420224	; 0x9f0000
 8000156:	609a      	str	r2, [r3, #8]
 8000158:	f000 f80c 	bl	8000174 <SetSysClock>
 800015c:	4b04      	ldr	r3, [pc, #16]	; (8000170 <SystemInit+0x64>)
 800015e:	f04f 6200 	mov.w	r2, #134217728	; 0x8000000
 8000162:	609a      	str	r2, [r3, #8]
 8000164:	bd80      	pop	{r7, pc}
 8000166:	bf00      	nop
 8000168:	40021000 	andmi	r1, r2, r0
 800016c:	f8ff0000 			; <UNDEFINED> instruction: 0xf8ff0000
 8000170:	e000ed00 	and	lr, r0, r0, lsl #26

08000174 <SetSysClock>:
 8000174:	b580      	push	{r7, lr}
 8000176:	af00      	add	r7, sp, #0
 8000178:	f000 f802 	bl	8000180 <SetSysClockTo72>
 800017c:	bd80      	pop	{r7, pc}
 800017e:	bf00      	nop

08000180 <SetSysClockTo72>:
 8000180:	b480      	push	{r7}
 8000182:	b083      	sub	sp, #12
 8000184:	af00      	add	r7, sp, #0
 8000186:	2300      	movs	r3, #0
 8000188:	607b      	str	r3, [r7, #4]
 800018a:	2300      	movs	r3, #0
 800018c:	603b      	str	r3, [r7, #0]
 800018e:	4b3a      	ldr	r3, [pc, #232]	; (8000278 <SetSysClockTo72+0xf8>)
 8000190:	4a39      	ldr	r2, [pc, #228]	; (8000278 <SetSysClockTo72+0xf8>)
 8000192:	6812      	ldr	r2, [r2, #0]
 8000194:	f442 3280 	orr.w	r2, r2, #65536	; 0x10000
 8000198:	601a      	str	r2, [r3, #0]
 800019a:	4b37      	ldr	r3, [pc, #220]	; (8000278 <SetSysClockTo72+0xf8>)
 800019c:	681b      	ldr	r3, [r3, #0]
 800019e:	f403 3300 	and.w	r3, r3, #131072	; 0x20000
 80001a2:	603b      	str	r3, [r7, #0]
 80001a4:	687b      	ldr	r3, [r7, #4]
 80001a6:	3301      	adds	r3, #1
 80001a8:	607b      	str	r3, [r7, #4]
 80001aa:	683b      	ldr	r3, [r7, #0]
 80001ac:	2b00      	cmp	r3, #0
 80001ae:	d103      	bne.n	80001b8 <SetSysClockTo72+0x38>
 80001b0:	687b      	ldr	r3, [r7, #4]
 80001b2:	f5b3 6fa0 	cmp.w	r3, #1280	; 0x500
 80001b6:	d1f0      	bne.n	800019a <SetSysClockTo72+0x1a>
 80001b8:	4b2f      	ldr	r3, [pc, #188]	; (8000278 <SetSysClockTo72+0xf8>)
 80001ba:	681b      	ldr	r3, [r3, #0]
 80001bc:	f403 3300 	and.w	r3, r3, #131072	; 0x20000
 80001c0:	2b00      	cmp	r3, #0
 80001c2:	d002      	beq.n	80001ca <SetSysClockTo72+0x4a>
 80001c4:	2301      	movs	r3, #1
 80001c6:	603b      	str	r3, [r7, #0]
 80001c8:	e001      	b.n	80001ce <SetSysClockTo72+0x4e>
 80001ca:	2300      	movs	r3, #0
 80001cc:	603b      	str	r3, [r7, #0]
 80001ce:	683b      	ldr	r3, [r7, #0]
 80001d0:	2b01      	cmp	r3, #1
 80001d2:	d14b      	bne.n	800026c <SetSysClockTo72+0xec>
 80001d4:	4b29      	ldr	r3, [pc, #164]	; (800027c <SetSysClockTo72+0xfc>)
 80001d6:	4a29      	ldr	r2, [pc, #164]	; (800027c <SetSysClockTo72+0xfc>)
 80001d8:	6812      	ldr	r2, [r2, #0]
 80001da:	f042 0210 	orr.w	r2, r2, #16
 80001de:	601a      	str	r2, [r3, #0]
 80001e0:	4b26      	ldr	r3, [pc, #152]	; (800027c <SetSysClockTo72+0xfc>)
 80001e2:	4a26      	ldr	r2, [pc, #152]	; (800027c <SetSysClockTo72+0xfc>)
 80001e4:	6812      	ldr	r2, [r2, #0]
 80001e6:	f022 0203 	bic.w	r2, r2, #3
 80001ea:	601a      	str	r2, [r3, #0]
 80001ec:	4b23      	ldr	r3, [pc, #140]	; (800027c <SetSysClockTo72+0xfc>)
 80001ee:	4a23      	ldr	r2, [pc, #140]	; (800027c <SetSysClockTo72+0xfc>)
 80001f0:	6812      	ldr	r2, [r2, #0]
 80001f2:	f042 0202 	orr.w	r2, r2, #2
 80001f6:	601a      	str	r2, [r3, #0]
 80001f8:	4b1f      	ldr	r3, [pc, #124]	; (8000278 <SetSysClockTo72+0xf8>)
 80001fa:	4a1f      	ldr	r2, [pc, #124]	; (8000278 <SetSysClockTo72+0xf8>)
 80001fc:	6852      	ldr	r2, [r2, #4]
 80001fe:	605a      	str	r2, [r3, #4]
 8000200:	4b1d      	ldr	r3, [pc, #116]	; (8000278 <SetSysClockTo72+0xf8>)
 8000202:	4a1d      	ldr	r2, [pc, #116]	; (8000278 <SetSysClockTo72+0xf8>)
 8000204:	6852      	ldr	r2, [r2, #4]
 8000206:	605a      	str	r2, [r3, #4]
 8000208:	4b1b      	ldr	r3, [pc, #108]	; (8000278 <SetSysClockTo72+0xf8>)
 800020a:	4a1b      	ldr	r2, [pc, #108]	; (8000278 <SetSysClockTo72+0xf8>)
 800020c:	6852      	ldr	r2, [r2, #4]
 800020e:	f442 6280 	orr.w	r2, r2, #1024	; 0x400
 8000212:	605a      	str	r2, [r3, #4]
 8000214:	4b18      	ldr	r3, [pc, #96]	; (8000278 <SetSysClockTo72+0xf8>)
 8000216:	4a18      	ldr	r2, [pc, #96]	; (8000278 <SetSysClockTo72+0xf8>)
 8000218:	6852      	ldr	r2, [r2, #4]
 800021a:	f422 127c 	bic.w	r2, r2, #4128768	; 0x3f0000
 800021e:	605a      	str	r2, [r3, #4]
 8000220:	4b15      	ldr	r3, [pc, #84]	; (8000278 <SetSysClockTo72+0xf8>)
 8000222:	4a15      	ldr	r2, [pc, #84]	; (8000278 <SetSysClockTo72+0xf8>)
 8000224:	6852      	ldr	r2, [r2, #4]
 8000226:	f442 12e8 	orr.w	r2, r2, #1900544	; 0x1d0000
 800022a:	605a      	str	r2, [r3, #4]
 800022c:	4b12      	ldr	r3, [pc, #72]	; (8000278 <SetSysClockTo72+0xf8>)
 800022e:	4a12      	ldr	r2, [pc, #72]	; (8000278 <SetSysClockTo72+0xf8>)
 8000230:	6812      	ldr	r2, [r2, #0]
 8000232:	f042 7280 	orr.w	r2, r2, #16777216	; 0x1000000
 8000236:	601a      	str	r2, [r3, #0]
 8000238:	bf00      	nop
 800023a:	4b0f      	ldr	r3, [pc, #60]	; (8000278 <SetSysClockTo72+0xf8>)
 800023c:	681b      	ldr	r3, [r3, #0]
 800023e:	f003 7300 	and.w	r3, r3, #33554432	; 0x2000000
 8000242:	2b00      	cmp	r3, #0
 8000244:	d0f9      	beq.n	800023a <SetSysClockTo72+0xba>
 8000246:	4b0c      	ldr	r3, [pc, #48]	; (8000278 <SetSysClockTo72+0xf8>)
 8000248:	4a0b      	ldr	r2, [pc, #44]	; (8000278 <SetSysClockTo72+0xf8>)
 800024a:	6852      	ldr	r2, [r2, #4]
 800024c:	f022 0203 	bic.w	r2, r2, #3
 8000250:	605a      	str	r2, [r3, #4]
 8000252:	4b09      	ldr	r3, [pc, #36]	; (8000278 <SetSysClockTo72+0xf8>)
 8000254:	4a08      	ldr	r2, [pc, #32]	; (8000278 <SetSysClockTo72+0xf8>)
 8000256:	6852      	ldr	r2, [r2, #4]
 8000258:	f042 0202 	orr.w	r2, r2, #2
 800025c:	605a      	str	r2, [r3, #4]
 800025e:	bf00      	nop
 8000260:	4b05      	ldr	r3, [pc, #20]	; (8000278 <SetSysClockTo72+0xf8>)
 8000262:	685b      	ldr	r3, [r3, #4]
 8000264:	f003 030c 	and.w	r3, r3, #12
 8000268:	2b08      	cmp	r3, #8
 800026a:	d1f9      	bne.n	8000260 <SetSysClockTo72+0xe0>
 800026c:	370c      	adds	r7, #12
 800026e:	46bd      	mov	sp, r7
 8000270:	f85d 7b04 	ldr.w	r7, [sp], #4
 8000274:	4770      	bx	lr
 8000276:	bf00      	nop
 8000278:	40021000 	andmi	r1, r2, r0
 800027c:	40022000 	andmi	r2, r2, r0

08000280 <Default_Reset_Handler>:
 8000280:	b580      	push	{r7, lr}
 8000282:	b082      	sub	sp, #8
 8000284:	af00      	add	r7, sp, #0
 8000286:	4b11      	ldr	r3, [pc, #68]	; (80002cc <zero_loop+0x1c>)
 8000288:	607b      	str	r3, [r7, #4]
 800028a:	4b11      	ldr	r3, [pc, #68]	; (80002d0 <zero_loop+0x20>)
 800028c:	603b      	str	r3, [r7, #0]
 800028e:	e007      	b.n	80002a0 <Default_Reset_Handler+0x20>
 8000290:	683b      	ldr	r3, [r7, #0]
 8000292:	1d1a      	adds	r2, r3, #4
 8000294:	603a      	str	r2, [r7, #0]
 8000296:	687a      	ldr	r2, [r7, #4]
 8000298:	1d11      	adds	r1, r2, #4
 800029a:	6079      	str	r1, [r7, #4]
 800029c:	6812      	ldr	r2, [r2, #0]
 800029e:	601a      	str	r2, [r3, #0]
 80002a0:	683a      	ldr	r2, [r7, #0]
 80002a2:	4b0c      	ldr	r3, [pc, #48]	; (80002d4 <zero_loop+0x24>)
 80002a4:	429a      	cmp	r2, r3
 80002a6:	d3f3      	bcc.n	8000290 <Default_Reset_Handler+0x10>
 80002a8:	480b      	ldr	r0, [pc, #44]	; (80002d8 <zero_loop+0x28>)
 80002aa:	490c      	ldr	r1, [pc, #48]	; (80002dc <zero_loop+0x2c>)
 80002ac:	f04f 0200 	mov.w	r2, #0

080002b0 <zero_loop>:
 80002b0:	4288      	cmp	r0, r1
 80002b2:	bfb8      	it	lt
 80002b4:	f840 2b04 	strlt.w	r2, [r0], #4
 80002b8:	f6ff affa 	blt.w	80002b0 <zero_loop>
 80002bc:	f7ff ff26 	bl	800010c <SystemInit>
 80002c0:	f000 f93c 	bl	800053c <main>
 80002c4:	3708      	adds	r7, #8
 80002c6:	46bd      	mov	sp, r7
 80002c8:	bd80      	pop	{r7, pc}
 80002ca:	bf00      	nop
 80002cc:	08001fb0 	stmdaeq	r0, {r4, r5, r7, r8, r9, sl, fp, ip}
 80002d0:	20000000 	andcs	r0, r0, r0
 80002d4:	2000008c 	andcs	r0, r0, ip, lsl #1
 80002d8:	2000008c 	andcs	r0, r0, ip, lsl #1
 80002dc:	200000b8 	strhcs	r0, [r0], -r8

080002e0 <ADC1_2_IRQHandler>:
 80002e0:	b480      	push	{r7}
 80002e2:	af00      	add	r7, sp, #0
 80002e4:	e7fe      	b.n	80002e4 <ADC1_2_IRQHandler+0x4>
 80002e6:	bf00      	nop

080002e8 <GPIO_Init>:
 80002e8:	b480      	push	{r7}
 80002ea:	b089      	sub	sp, #36	; 0x24
 80002ec:	af00      	add	r7, sp, #0
 80002ee:	6078      	str	r0, [r7, #4]
 80002f0:	6039      	str	r1, [r7, #0]
 80002f2:	2300      	movs	r3, #0
 80002f4:	61fb      	str	r3, [r7, #28]
 80002f6:	2300      	movs	r3, #0
 80002f8:	613b      	str	r3, [r7, #16]
 80002fa:	2300      	movs	r3, #0
 80002fc:	61bb      	str	r3, [r7, #24]
 80002fe:	2300      	movs	r3, #0
 8000300:	60fb      	str	r3, [r7, #12]
 8000302:	2300      	movs	r3, #0
 8000304:	617b      	str	r3, [r7, #20]
 8000306:	2300      	movs	r3, #0
 8000308:	60bb      	str	r3, [r7, #8]
 800030a:	683b      	ldr	r3, [r7, #0]
 800030c:	78db      	ldrb	r3, [r3, #3]
 800030e:	f003 030f 	and.w	r3, r3, #15
 8000312:	61fb      	str	r3, [r7, #28]
 8000314:	683b      	ldr	r3, [r7, #0]
 8000316:	78db      	ldrb	r3, [r3, #3]
 8000318:	f003 0310 	and.w	r3, r3, #16
 800031c:	2b00      	cmp	r3, #0
 800031e:	d004      	beq.n	800032a <GPIO_Init+0x42>
 8000320:	683b      	ldr	r3, [r7, #0]
 8000322:	789b      	ldrb	r3, [r3, #2]
 8000324:	69fa      	ldr	r2, [r7, #28]
 8000326:	4313      	orrs	r3, r2
 8000328:	61fb      	str	r3, [r7, #28]
 800032a:	683b      	ldr	r3, [r7, #0]
 800032c:	881b      	ldrh	r3, [r3, #0]
 800032e:	b2db      	uxtb	r3, r3
 8000330:	2b00      	cmp	r3, #0
 8000332:	d044      	beq.n	80003be <GPIO_Init+0xd6>
 8000334:	687b      	ldr	r3, [r7, #4]
 8000336:	681b      	ldr	r3, [r3, #0]
 8000338:	617b      	str	r3, [r7, #20]
 800033a:	2300      	movs	r3, #0
 800033c:	61bb      	str	r3, [r7, #24]
 800033e:	e038      	b.n	80003b2 <GPIO_Init+0xca>
 8000340:	69bb      	ldr	r3, [r7, #24]
 8000342:	2201      	movs	r2, #1
 8000344:	fa02 f303 	lsl.w	r3, r2, r3
 8000348:	60fb      	str	r3, [r7, #12]
 800034a:	683b      	ldr	r3, [r7, #0]
 800034c:	881b      	ldrh	r3, [r3, #0]
 800034e:	461a      	mov	r2, r3
 8000350:	68fb      	ldr	r3, [r7, #12]
 8000352:	4013      	ands	r3, r2
 8000354:	613b      	str	r3, [r7, #16]
 8000356:	693a      	ldr	r2, [r7, #16]
 8000358:	68fb      	ldr	r3, [r7, #12]
 800035a:	429a      	cmp	r2, r3
 800035c:	d126      	bne.n	80003ac <GPIO_Init+0xc4>
 800035e:	69bb      	ldr	r3, [r7, #24]
 8000360:	009b      	lsls	r3, r3, #2
 8000362:	60fb      	str	r3, [r7, #12]
 8000364:	68fb      	ldr	r3, [r7, #12]
 8000366:	220f      	movs	r2, #15
 8000368:	fa02 f303 	lsl.w	r3, r2, r3
 800036c:	60bb      	str	r3, [r7, #8]
 800036e:	68bb      	ldr	r3, [r7, #8]
 8000370:	43db      	mvns	r3, r3
 8000372:	697a      	ldr	r2, [r7, #20]
 8000374:	4013      	ands	r3, r2
 8000376:	617b      	str	r3, [r7, #20]
 8000378:	68fb      	ldr	r3, [r7, #12]
 800037a:	69fa      	ldr	r2, [r7, #28]
 800037c:	fa02 f303 	lsl.w	r3, r2, r3
 8000380:	697a      	ldr	r2, [r7, #20]
 8000382:	4313      	orrs	r3, r2
 8000384:	617b      	str	r3, [r7, #20]
 8000386:	683b      	ldr	r3, [r7, #0]
 8000388:	78db      	ldrb	r3, [r3, #3]
 800038a:	2b28      	cmp	r3, #40	; 0x28
 800038c:	d105      	bne.n	800039a <GPIO_Init+0xb2>
 800038e:	69bb      	ldr	r3, [r7, #24]
 8000390:	2201      	movs	r2, #1
 8000392:	409a      	lsls	r2, r3
 8000394:	687b      	ldr	r3, [r7, #4]
 8000396:	615a      	str	r2, [r3, #20]
 8000398:	e008      	b.n	80003ac <GPIO_Init+0xc4>
 800039a:	683b      	ldr	r3, [r7, #0]
 800039c:	78db      	ldrb	r3, [r3, #3]
 800039e:	2b48      	cmp	r3, #72	; 0x48
 80003a0:	d104      	bne.n	80003ac <GPIO_Init+0xc4>
 80003a2:	69bb      	ldr	r3, [r7, #24]
 80003a4:	2201      	movs	r2, #1
 80003a6:	409a      	lsls	r2, r3
 80003a8:	687b      	ldr	r3, [r7, #4]
 80003aa:	611a      	str	r2, [r3, #16]
 80003ac:	69bb      	ldr	r3, [r7, #24]
 80003ae:	3301      	adds	r3, #1
 80003b0:	61bb      	str	r3, [r7, #24]
 80003b2:	69bb      	ldr	r3, [r7, #24]
 80003b4:	2b07      	cmp	r3, #7
 80003b6:	d9c3      	bls.n	8000340 <GPIO_Init+0x58>
 80003b8:	687b      	ldr	r3, [r7, #4]
 80003ba:	697a      	ldr	r2, [r7, #20]
 80003bc:	601a      	str	r2, [r3, #0]
 80003be:	683b      	ldr	r3, [r7, #0]
 80003c0:	881b      	ldrh	r3, [r3, #0]
 80003c2:	2bff      	cmp	r3, #255	; 0xff
 80003c4:	d946      	bls.n	8000454 <GPIO_Init+0x16c>
 80003c6:	687b      	ldr	r3, [r7, #4]
 80003c8:	685b      	ldr	r3, [r3, #4]
 80003ca:	617b      	str	r3, [r7, #20]
 80003cc:	2300      	movs	r3, #0
 80003ce:	61bb      	str	r3, [r7, #24]
 80003d0:	e03a      	b.n	8000448 <GPIO_Init+0x160>
 80003d2:	69bb      	ldr	r3, [r7, #24]
 80003d4:	3308      	adds	r3, #8
 80003d6:	2201      	movs	r2, #1
 80003d8:	fa02 f303 	lsl.w	r3, r2, r3
 80003dc:	60fb      	str	r3, [r7, #12]
 80003de:	683b      	ldr	r3, [r7, #0]
 80003e0:	881b      	ldrh	r3, [r3, #0]
 80003e2:	461a      	mov	r2, r3
 80003e4:	68fb      	ldr	r3, [r7, #12]
 80003e6:	4013      	ands	r3, r2
 80003e8:	613b      	str	r3, [r7, #16]
 80003ea:	693a      	ldr	r2, [r7, #16]
 80003ec:	68fb      	ldr	r3, [r7, #12]
 80003ee:	429a      	cmp	r2, r3
 80003f0:	d127      	bne.n	8000442 <GPIO_Init+0x15a>
 80003f2:	69bb      	ldr	r3, [r7, #24]
 80003f4:	009b      	lsls	r3, r3, #2
 80003f6:	60fb      	str	r3, [r7, #12]
 80003f8:	68fb      	ldr	r3, [r7, #12]
 80003fa:	220f      	movs	r2, #15
 80003fc:	fa02 f303 	lsl.w	r3, r2, r3
 8000400:	60bb      	str	r3, [r7, #8]
 8000402:	68bb      	ldr	r3, [r7, #8]
 8000404:	43db      	mvns	r3, r3
 8000406:	697a      	ldr	r2, [r7, #20]
 8000408:	4013      	ands	r3, r2
 800040a:	617b      	str	r3, [r7, #20]
 800040c:	68fb      	ldr	r3, [r7, #12]
 800040e:	69fa      	ldr	r2, [r7, #28]
 8000410:	fa02 f303 	lsl.w	r3, r2, r3
 8000414:	697a      	ldr	r2, [r7, #20]
 8000416:	4313      	orrs	r3, r2
 8000418:	617b      	str	r3, [r7, #20]
 800041a:	683b      	ldr	r3, [r7, #0]
 800041c:	78db      	ldrb	r3, [r3, #3]
 800041e:	2b28      	cmp	r3, #40	; 0x28
 8000420:	d105      	bne.n	800042e <GPIO_Init+0x146>
 8000422:	69bb      	ldr	r3, [r7, #24]
 8000424:	3308      	adds	r3, #8
 8000426:	2201      	movs	r2, #1
 8000428:	409a      	lsls	r2, r3
 800042a:	687b      	ldr	r3, [r7, #4]
 800042c:	615a      	str	r2, [r3, #20]
 800042e:	683b      	ldr	r3, [r7, #0]
 8000430:	78db      	ldrb	r3, [r3, #3]
 8000432:	2b48      	cmp	r3, #72	; 0x48
 8000434:	d105      	bne.n	8000442 <GPIO_Init+0x15a>
 8000436:	69bb      	ldr	r3, [r7, #24]
 8000438:	3308      	adds	r3, #8
 800043a:	2201      	movs	r2, #1
 800043c:	409a      	lsls	r2, r3
 800043e:	687b      	ldr	r3, [r7, #4]
 8000440:	611a      	str	r2, [r3, #16]
 8000442:	69bb      	ldr	r3, [r7, #24]
 8000444:	3301      	adds	r3, #1
 8000446:	61bb      	str	r3, [r7, #24]
 8000448:	69bb      	ldr	r3, [r7, #24]
 800044a:	2b07      	cmp	r3, #7
 800044c:	d9c1      	bls.n	80003d2 <GPIO_Init+0xea>
 800044e:	687b      	ldr	r3, [r7, #4]
 8000450:	697a      	ldr	r2, [r7, #20]
 8000452:	605a      	str	r2, [r3, #4]
 8000454:	3724      	adds	r7, #36	; 0x24
 8000456:	46bd      	mov	sp, r7
 8000458:	f85d 7b04 	ldr.w	r7, [sp], #4
 800045c:	4770      	bx	lr
 800045e:	bf00      	nop

08000460 <GPIO_ToggleBit>:
 8000460:	b480      	push	{r7}
 8000462:	b083      	sub	sp, #12
 8000464:	af00      	add	r7, sp, #0
 8000466:	6078      	str	r0, [r7, #4]
 8000468:	460b      	mov	r3, r1
 800046a:	807b      	strh	r3, [r7, #2]
 800046c:	4b05      	ldr	r3, [pc, #20]	; (8000484 <GPIO_ToggleBit+0x24>)
 800046e:	4a05      	ldr	r2, [pc, #20]	; (8000484 <GPIO_ToggleBit+0x24>)
 8000470:	68d2      	ldr	r2, [r2, #12]
 8000472:	f482 5200 	eor.w	r2, r2, #8192	; 0x2000
 8000476:	60da      	str	r2, [r3, #12]
 8000478:	370c      	adds	r7, #12
 800047a:	46bd      	mov	sp, r7
 800047c:	f85d 7b04 	ldr.w	r7, [sp], #4
 8000480:	4770      	bx	lr
 8000482:	bf00      	nop
 8000484:	40011000 	andmi	r1, r1, r0

08000488 <NVIC_SetPriority>:
 8000488:	b480      	push	{r7}
 800048a:	b083      	sub	sp, #12
 800048c:	af00      	add	r7, sp, #0
 800048e:	4603      	mov	r3, r0
 8000490:	6039      	str	r1, [r7, #0]
 8000492:	71fb      	strb	r3, [r7, #7]
 8000494:	f997 3007 	ldrsb.w	r3, [r7, #7]
 8000498:	2b00      	cmp	r3, #0
 800049a:	da0b      	bge.n	80004b4 <NVIC_SetPriority+0x2c>
 800049c:	490d      	ldr	r1, [pc, #52]	; (80004d4 <NVIC_SetPriority+0x4c>)
 800049e:	79fb      	ldrb	r3, [r7, #7]
 80004a0:	f003 030f 	and.w	r3, r3, #15
 80004a4:	3b04      	subs	r3, #4
 80004a6:	683a      	ldr	r2, [r7, #0]
 80004a8:	b2d2      	uxtb	r2, r2
 80004aa:	0112      	lsls	r2, r2, #4
 80004ac:	b2d2      	uxtb	r2, r2
 80004ae:	440b      	add	r3, r1
 80004b0:	761a      	strb	r2, [r3, #24]
 80004b2:	e009      	b.n	80004c8 <NVIC_SetPriority+0x40>
 80004b4:	4908      	ldr	r1, [pc, #32]	; (80004d8 <NVIC_SetPriority+0x50>)
 80004b6:	f997 3007 	ldrsb.w	r3, [r7, #7]
 80004ba:	683a      	ldr	r2, [r7, #0]
 80004bc:	b2d2      	uxtb	r2, r2
 80004be:	0112      	lsls	r2, r2, #4
 80004c0:	b2d2      	uxtb	r2, r2
 80004c2:	440b      	add	r3, r1
 80004c4:	f883 2300 	strb.w	r2, [r3, #768]	; 0x300
 80004c8:	370c      	adds	r7, #12
 80004ca:	46bd      	mov	sp, r7
 80004cc:	f85d 7b04 	ldr.w	r7, [sp], #4
 80004d0:	4770      	bx	lr
 80004d2:	bf00      	nop
 80004d4:	e000ed00 	and	lr, r0, r0, lsl #26
 80004d8:	e000e100 	and	lr, r0, r0, lsl #2

080004dc <SysTick_Config>:
 80004dc:	b580      	push	{r7, lr}
 80004de:	b082      	sub	sp, #8
 80004e0:	af00      	add	r7, sp, #0
 80004e2:	6078      	str	r0, [r7, #4]
 80004e4:	687b      	ldr	r3, [r7, #4]
 80004e6:	f1b3 7f80 	cmp.w	r3, #16777216	; 0x1000000
 80004ea:	d301      	bcc.n	80004f0 <SysTick_Config+0x14>
 80004ec:	2301      	movs	r3, #1
 80004ee:	e011      	b.n	8000514 <SysTick_Config+0x38>
 80004f0:	4b0a      	ldr	r3, [pc, #40]	; (800051c <SysTick_Config+0x40>)
 80004f2:	687a      	ldr	r2, [r7, #4]
 80004f4:	f022 427f 	bic.w	r2, r2, #4278190080	; 0xff000000
 80004f8:	3a01      	subs	r2, #1
 80004fa:	605a      	str	r2, [r3, #4]
 80004fc:	f04f 30ff 	mov.w	r0, #4294967295
 8000500:	210f      	movs	r1, #15
 8000502:	f7ff ffc1 	bl	8000488 <NVIC_SetPriority>
 8000506:	4b05      	ldr	r3, [pc, #20]	; (800051c <SysTick_Config+0x40>)
 8000508:	2200      	movs	r2, #0
 800050a:	609a      	str	r2, [r3, #8]
 800050c:	4b03      	ldr	r3, [pc, #12]	; (800051c <SysTick_Config+0x40>)
 800050e:	2207      	movs	r2, #7
 8000510:	601a      	str	r2, [r3, #0]
 8000512:	2300      	movs	r3, #0
 8000514:	4618      	mov	r0, r3
 8000516:	3708      	adds	r7, #8
 8000518:	46bd      	mov	sp, r7
 800051a:	bd80      	pop	{r7, pc}
 800051c:	e000e010 	and	lr, r0, r0, lsl r0

08000520 <SysTick_Handler>:
 8000520:	b480      	push	{r7}
 8000522:	af00      	add	r7, sp, #0
 8000524:	4b04      	ldr	r3, [pc, #16]	; (8000538 <SysTick_Handler+0x18>)
 8000526:	681b      	ldr	r3, [r3, #0]
 8000528:	1c5a      	adds	r2, r3, #1
 800052a:	4b03      	ldr	r3, [pc, #12]	; (8000538 <SysTick_Handler+0x18>)
 800052c:	601a      	str	r2, [r3, #0]
 800052e:	46bd      	mov	sp, r7
 8000530:	f85d 7b04 	ldr.w	r7, [sp], #4
 8000534:	4770      	bx	lr
 8000536:	bf00      	nop
 8000538:	200000ac 	andcs	r0, r0, ip, lsr #1

0800053c <main>:
 800053c:	b580      	push	{r7, lr}
 800053e:	af00      	add	r7, sp, #0
 8000540:	4b86      	ldr	r3, [pc, #536]	; (800075c <main+0x220>)
 8000542:	681a      	ldr	r2, [r3, #0]
 8000544:	4b86      	ldr	r3, [pc, #536]	; (8000760 <main+0x224>)
 8000546:	fba3 1302 	umull	r1, r3, r3, r2
 800054a:	099b      	lsrs	r3, r3, #6
 800054c:	4618      	mov	r0, r3
 800054e:	f7ff ffc5 	bl	80004dc <SysTick_Config>
 8000552:	f000 f91b 	bl	800078c <Init>
 8000556:	4b83      	ldr	r3, [pc, #524]	; (8000764 <main+0x228>)
 8000558:	681b      	ldr	r3, [r3, #0]
 800055a:	685b      	ldr	r3, [r3, #4]
 800055c:	4618      	mov	r0, r3
 800055e:	2100      	movs	r1, #0
 8000560:	2202      	movs	r2, #2
 8000562:	2300      	movs	r3, #0
 8000564:	f000 fcc4 	bl	8000ef0 <setvbuf>
 8000568:	4b7e      	ldr	r3, [pc, #504]	; (8000764 <main+0x228>)
 800056a:	681b      	ldr	r3, [r3, #0]
 800056c:	689b      	ldr	r3, [r3, #8]
 800056e:	4618      	mov	r0, r3
 8000570:	2100      	movs	r1, #0
 8000572:	2202      	movs	r2, #2
 8000574:	2300      	movs	r3, #0
 8000576:	f000 fcbb 	bl	8000ef0 <setvbuf>
 800057a:	4b7a      	ldr	r3, [pc, #488]	; (8000764 <main+0x228>)
 800057c:	681b      	ldr	r3, [r3, #0]
 800057e:	68db      	ldr	r3, [r3, #12]
 8000580:	4618      	mov	r0, r3
 8000582:	2100      	movs	r1, #0
 8000584:	2202      	movs	r2, #2
 8000586:	2300      	movs	r3, #0
 8000588:	f000 fcb2 	bl	8000ef0 <setvbuf>
 800058c:	4876      	ldr	r0, [pc, #472]	; (8000768 <main+0x22c>)
 800058e:	f000 fc7b 	bl	8000e88 <puts>
 8000592:	4b76      	ldr	r3, [pc, #472]	; (800076c <main+0x230>)
 8000594:	681a      	ldr	r2, [r3, #0]
 8000596:	4b76      	ldr	r3, [pc, #472]	; (8000770 <main+0x234>)
 8000598:	601a      	str	r2, [r3, #0]
 800059a:	4b75      	ldr	r3, [pc, #468]	; (8000770 <main+0x234>)
 800059c:	681a      	ldr	r2, [r3, #0]
 800059e:	4b75      	ldr	r3, [pc, #468]	; (8000774 <main+0x238>)
 80005a0:	681b      	ldr	r3, [r3, #0]
 80005a2:	1ad3      	subs	r3, r2, r3
 80005a4:	f5b3 7ffa 	cmp.w	r3, #500	; 0x1f4
 80005a8:	d961      	bls.n	800066e <main+0x132>
 80005aa:	4b71      	ldr	r3, [pc, #452]	; (8000770 <main+0x234>)
 80005ac:	681a      	ldr	r2, [r3, #0]
 80005ae:	4b71      	ldr	r3, [pc, #452]	; (8000774 <main+0x238>)
 80005b0:	601a      	str	r2, [r3, #0]
 80005b2:	4871      	ldr	r0, [pc, #452]	; (8000778 <main+0x23c>)
 80005b4:	f44f 5100 	mov.w	r1, #8192	; 0x2000
 80005b8:	f7ff ff52 	bl	8000460 <GPIO_ToggleBit>
 80005bc:	486f      	ldr	r0, [pc, #444]	; (800077c <main+0x240>)
 80005be:	2161      	movs	r1, #97	; 0x61
 80005c0:	f000 fb12 	bl	8000be8 <USART_SendData>
 80005c4:	4b67      	ldr	r3, [pc, #412]	; (8000764 <main+0x228>)
 80005c6:	681b      	ldr	r3, [r3, #0]
 80005c8:	689b      	ldr	r3, [r3, #8]
 80005ca:	689a      	ldr	r2, [r3, #8]
 80005cc:	3a01      	subs	r2, #1
 80005ce:	609a      	str	r2, [r3, #8]
 80005d0:	689b      	ldr	r3, [r3, #8]
 80005d2:	2b00      	cmp	r3, #0
 80005d4:	da33      	bge.n	800063e <main+0x102>
 80005d6:	4b63      	ldr	r3, [pc, #396]	; (8000764 <main+0x228>)
 80005d8:	681b      	ldr	r3, [r3, #0]
 80005da:	689b      	ldr	r3, [r3, #8]
 80005dc:	689a      	ldr	r2, [r3, #8]
 80005de:	4b61      	ldr	r3, [pc, #388]	; (8000764 <main+0x228>)
 80005e0:	681b      	ldr	r3, [r3, #0]
 80005e2:	689b      	ldr	r3, [r3, #8]
 80005e4:	699b      	ldr	r3, [r3, #24]
 80005e6:	429a      	cmp	r2, r3
 80005e8:	db1e      	blt.n	8000628 <main+0xec>
 80005ea:	4b5e      	ldr	r3, [pc, #376]	; (8000764 <main+0x228>)
 80005ec:	681b      	ldr	r3, [r3, #0]
 80005ee:	689b      	ldr	r3, [r3, #8]
 80005f0:	681b      	ldr	r3, [r3, #0]
 80005f2:	2262      	movs	r2, #98	; 0x62
 80005f4:	701a      	strb	r2, [r3, #0]
 80005f6:	4b5b      	ldr	r3, [pc, #364]	; (8000764 <main+0x228>)
 80005f8:	681b      	ldr	r3, [r3, #0]
 80005fa:	689b      	ldr	r3, [r3, #8]
 80005fc:	681b      	ldr	r3, [r3, #0]
 80005fe:	781b      	ldrb	r3, [r3, #0]
 8000600:	2b0a      	cmp	r3, #10
 8000602:	d006      	beq.n	8000612 <main+0xd6>
 8000604:	4b57      	ldr	r3, [pc, #348]	; (8000764 <main+0x228>)
 8000606:	681b      	ldr	r3, [r3, #0]
 8000608:	689b      	ldr	r3, [r3, #8]
 800060a:	681a      	ldr	r2, [r3, #0]
 800060c:	3201      	adds	r2, #1
 800060e:	601a      	str	r2, [r3, #0]
 8000610:	e021      	b.n	8000656 <main+0x11a>
 8000612:	4b54      	ldr	r3, [pc, #336]	; (8000764 <main+0x228>)
 8000614:	681a      	ldr	r2, [r3, #0]
 8000616:	4b53      	ldr	r3, [pc, #332]	; (8000764 <main+0x228>)
 8000618:	681b      	ldr	r3, [r3, #0]
 800061a:	689b      	ldr	r3, [r3, #8]
 800061c:	4610      	mov	r0, r2
 800061e:	210a      	movs	r1, #10
 8000620:	461a      	mov	r2, r3
 8000622:	f000 ff9f 	bl	8001564 <__swbuf_r>
 8000626:	e016      	b.n	8000656 <main+0x11a>
 8000628:	4b4e      	ldr	r3, [pc, #312]	; (8000764 <main+0x228>)
 800062a:	681a      	ldr	r2, [r3, #0]
 800062c:	4b4d      	ldr	r3, [pc, #308]	; (8000764 <main+0x228>)
 800062e:	681b      	ldr	r3, [r3, #0]
 8000630:	689b      	ldr	r3, [r3, #8]
 8000632:	4610      	mov	r0, r2
 8000634:	2162      	movs	r1, #98	; 0x62
 8000636:	461a      	mov	r2, r3
 8000638:	f000 ff94 	bl	8001564 <__swbuf_r>
 800063c:	e00b      	b.n	8000656 <main+0x11a>
 800063e:	4b49      	ldr	r3, [pc, #292]	; (8000764 <main+0x228>)
 8000640:	681b      	ldr	r3, [r3, #0]
 8000642:	689b      	ldr	r3, [r3, #8]
 8000644:	681b      	ldr	r3, [r3, #0]
 8000646:	2262      	movs	r2, #98	; 0x62
 8000648:	701a      	strb	r2, [r3, #0]
 800064a:	4b46      	ldr	r3, [pc, #280]	; (8000764 <main+0x228>)
 800064c:	681b      	ldr	r3, [r3, #0]
 800064e:	689b      	ldr	r3, [r3, #8]
 8000650:	681a      	ldr	r2, [r3, #0]
 8000652:	3201      	adds	r2, #1
 8000654:	601a      	str	r2, [r3, #0]
 8000656:	4b4a      	ldr	r3, [pc, #296]	; (8000780 <main+0x244>)
 8000658:	781b      	ldrb	r3, [r3, #0]
 800065a:	484a      	ldr	r0, [pc, #296]	; (8000784 <main+0x248>)
 800065c:	4619      	mov	r1, r3
 800065e:	f000 fb9b 	bl	8000d98 <iprintf>
 8000662:	4b47      	ldr	r3, [pc, #284]	; (8000780 <main+0x244>)
 8000664:	781b      	ldrb	r3, [r3, #0]
 8000666:	3301      	adds	r3, #1
 8000668:	b2da      	uxtb	r2, r3
 800066a:	4b45      	ldr	r3, [pc, #276]	; (8000780 <main+0x244>)
 800066c:	701a      	strb	r2, [r3, #0]
 800066e:	4b3d      	ldr	r3, [pc, #244]	; (8000764 <main+0x228>)
 8000670:	681b      	ldr	r3, [r3, #0]
 8000672:	685b      	ldr	r3, [r3, #4]
 8000674:	685a      	ldr	r2, [r3, #4]
 8000676:	3a01      	subs	r2, #1
 8000678:	605a      	str	r2, [r3, #4]
 800067a:	685b      	ldr	r3, [r3, #4]
 800067c:	2b00      	cmp	r3, #0
 800067e:	da0b      	bge.n	8000698 <main+0x15c>
 8000680:	4b38      	ldr	r3, [pc, #224]	; (8000764 <main+0x228>)
 8000682:	681a      	ldr	r2, [r3, #0]
 8000684:	4b37      	ldr	r3, [pc, #220]	; (8000764 <main+0x228>)
 8000686:	681b      	ldr	r3, [r3, #0]
 8000688:	685b      	ldr	r3, [r3, #4]
 800068a:	4610      	mov	r0, r2
 800068c:	4619      	mov	r1, r3
 800068e:	f000 fc03 	bl	8000e98 <__srget_r>
 8000692:	4603      	mov	r3, r0
 8000694:	b2db      	uxtb	r3, r3
 8000696:	e007      	b.n	80006a8 <main+0x16c>
 8000698:	4b32      	ldr	r3, [pc, #200]	; (8000764 <main+0x228>)
 800069a:	681b      	ldr	r3, [r3, #0]
 800069c:	685a      	ldr	r2, [r3, #4]
 800069e:	6813      	ldr	r3, [r2, #0]
 80006a0:	1c59      	adds	r1, r3, #1
 80006a2:	6011      	str	r1, [r2, #0]
 80006a4:	781b      	ldrb	r3, [r3, #0]
 80006a6:	b2db      	uxtb	r3, r3
 80006a8:	4a37      	ldr	r2, [pc, #220]	; (8000788 <main+0x24c>)
 80006aa:	7013      	strb	r3, [r2, #0]
 80006ac:	4b36      	ldr	r3, [pc, #216]	; (8000788 <main+0x24c>)
 80006ae:	781b      	ldrb	r3, [r3, #0]
 80006b0:	b25b      	sxtb	r3, r3
 80006b2:	f1b3 3fff 	cmp.w	r3, #4294967295
 80006b6:	d050      	beq.n	800075a <main+0x21e>
 80006b8:	4b2a      	ldr	r3, [pc, #168]	; (8000764 <main+0x228>)
 80006ba:	681b      	ldr	r3, [r3, #0]
 80006bc:	689b      	ldr	r3, [r3, #8]
 80006be:	689a      	ldr	r2, [r3, #8]
 80006c0:	3a01      	subs	r2, #1
 80006c2:	609a      	str	r2, [r3, #8]
 80006c4:	689b      	ldr	r3, [r3, #8]
 80006c6:	2b00      	cmp	r3, #0
 80006c8:	da38      	bge.n	800073c <main+0x200>
 80006ca:	4b26      	ldr	r3, [pc, #152]	; (8000764 <main+0x228>)
 80006cc:	681b      	ldr	r3, [r3, #0]
 80006ce:	689b      	ldr	r3, [r3, #8]
 80006d0:	689a      	ldr	r2, [r3, #8]
 80006d2:	4b24      	ldr	r3, [pc, #144]	; (8000764 <main+0x228>)
 80006d4:	681b      	ldr	r3, [r3, #0]
 80006d6:	689b      	ldr	r3, [r3, #8]
 80006d8:	699b      	ldr	r3, [r3, #24]
 80006da:	429a      	cmp	r2, r3
 80006dc:	db20      	blt.n	8000720 <main+0x1e4>
 80006de:	4b21      	ldr	r3, [pc, #132]	; (8000764 <main+0x228>)
 80006e0:	681b      	ldr	r3, [r3, #0]
 80006e2:	689b      	ldr	r3, [r3, #8]
 80006e4:	681b      	ldr	r3, [r3, #0]
 80006e6:	4a28      	ldr	r2, [pc, #160]	; (8000788 <main+0x24c>)
 80006e8:	7812      	ldrb	r2, [r2, #0]
 80006ea:	b2d2      	uxtb	r2, r2
 80006ec:	701a      	strb	r2, [r3, #0]
 80006ee:	4b1d      	ldr	r3, [pc, #116]	; (8000764 <main+0x228>)
 80006f0:	681b      	ldr	r3, [r3, #0]
 80006f2:	689b      	ldr	r3, [r3, #8]
 80006f4:	681b      	ldr	r3, [r3, #0]
 80006f6:	781b      	ldrb	r3, [r3, #0]
 80006f8:	2b0a      	cmp	r3, #10
 80006fa:	d006      	beq.n	800070a <main+0x1ce>
 80006fc:	4b19      	ldr	r3, [pc, #100]	; (8000764 <main+0x228>)
 80006fe:	681b      	ldr	r3, [r3, #0]
 8000700:	689b      	ldr	r3, [r3, #8]
 8000702:	681a      	ldr	r2, [r3, #0]
 8000704:	3201      	adds	r2, #1
 8000706:	601a      	str	r2, [r3, #0]
 8000708:	e027      	b.n	800075a <main+0x21e>
 800070a:	4b16      	ldr	r3, [pc, #88]	; (8000764 <main+0x228>)
 800070c:	681a      	ldr	r2, [r3, #0]
 800070e:	4b15      	ldr	r3, [pc, #84]	; (8000764 <main+0x228>)
 8000710:	681b      	ldr	r3, [r3, #0]
 8000712:	689b      	ldr	r3, [r3, #8]
 8000714:	4610      	mov	r0, r2
 8000716:	210a      	movs	r1, #10
 8000718:	461a      	mov	r2, r3
 800071a:	f000 ff23 	bl	8001564 <__swbuf_r>
 800071e:	e01c      	b.n	800075a <main+0x21e>
 8000720:	4b10      	ldr	r3, [pc, #64]	; (8000764 <main+0x228>)
 8000722:	6819      	ldr	r1, [r3, #0]
 8000724:	4b18      	ldr	r3, [pc, #96]	; (8000788 <main+0x24c>)
 8000726:	781b      	ldrb	r3, [r3, #0]
 8000728:	b25a      	sxtb	r2, r3
 800072a:	4b0e      	ldr	r3, [pc, #56]	; (8000764 <main+0x228>)
 800072c:	681b      	ldr	r3, [r3, #0]
 800072e:	689b      	ldr	r3, [r3, #8]
 8000730:	4608      	mov	r0, r1
 8000732:	4611      	mov	r1, r2
 8000734:	461a      	mov	r2, r3
 8000736:	f000 ff15 	bl	8001564 <__swbuf_r>
 800073a:	e72a      	b.n	8000592 <main+0x56>
 800073c:	4b09      	ldr	r3, [pc, #36]	; (8000764 <main+0x228>)
 800073e:	681b      	ldr	r3, [r3, #0]
 8000740:	689b      	ldr	r3, [r3, #8]
 8000742:	681b      	ldr	r3, [r3, #0]
 8000744:	4a10      	ldr	r2, [pc, #64]	; (8000788 <main+0x24c>)
 8000746:	7812      	ldrb	r2, [r2, #0]
 8000748:	b2d2      	uxtb	r2, r2
 800074a:	701a      	strb	r2, [r3, #0]
 800074c:	4b05      	ldr	r3, [pc, #20]	; (8000764 <main+0x228>)
 800074e:	681b      	ldr	r3, [r3, #0]
 8000750:	689b      	ldr	r3, [r3, #8]
 8000752:	681a      	ldr	r2, [r3, #0]
 8000754:	3201      	adds	r2, #1
 8000756:	601a      	str	r2, [r3, #0]
 8000758:	e71b      	b.n	8000592 <main+0x56>
 800075a:	e71a      	b.n	8000592 <main+0x56>
 800075c:	20000000 	andcs	r0, r0, r0
 8000760:	10624dd3 	ldrdne	r4, [r2], #-211	; 0xffffff2d	; <UNPREDICTABLE>
 8000764:	20000088 	andcs	r0, r0, r8, lsl #1
 8000768:	08001f04 	stmdaeq	r0, {r2, r8, r9, sl, fp, ip}
 800076c:	200000ac 	andcs	r0, r0, ip, lsr #1
 8000770:	200000a0 	andcs	r0, r0, r0, lsr #1
 8000774:	2000008c 	andcs	r0, r0, ip, lsl #1
 8000778:	40011000 	andmi	r1, r1, r0
 800077c:	40013800 	andmi	r3, r1, r0, lsl #16
 8000780:	20000090 	mulcs	r0, r0, r0
 8000784:	08001f0c 	stmdaeq	r0, {r2, r3, r8, r9, sl, fp, ip}
 8000788:	200000a4 	andcs	r0, r0, r4, lsr #1

0800078c <Init>:
 800078c:	b580      	push	{r7, lr}
 800078e:	b084      	sub	sp, #16
 8000790:	af00      	add	r7, sp, #0
 8000792:	2010      	movs	r0, #16
 8000794:	2101      	movs	r1, #1
 8000796:	f000 f92f 	bl	80009f8 <RCC_APB2PeriphClockCmd>
 800079a:	4b22      	ldr	r3, [pc, #136]	; (8000824 <Init+0x98>)
 800079c:	f44f 5200 	mov.w	r2, #8192	; 0x2000
 80007a0:	801a      	strh	r2, [r3, #0]
 80007a2:	4b20      	ldr	r3, [pc, #128]	; (8000824 <Init+0x98>)
 80007a4:	2210      	movs	r2, #16
 80007a6:	70da      	strb	r2, [r3, #3]
 80007a8:	4b1e      	ldr	r3, [pc, #120]	; (8000824 <Init+0x98>)
 80007aa:	2203      	movs	r2, #3
 80007ac:	709a      	strb	r2, [r3, #2]
 80007ae:	481e      	ldr	r0, [pc, #120]	; (8000828 <Init+0x9c>)
 80007b0:	491c      	ldr	r1, [pc, #112]	; (8000824 <Init+0x98>)
 80007b2:	f7ff fd99 	bl	80002e8 <GPIO_Init>
 80007b6:	f244 0004 	movw	r0, #16388	; 0x4004
 80007ba:	2101      	movs	r1, #1
 80007bc:	f000 f91c 	bl	80009f8 <RCC_APB2PeriphClockCmd>
 80007c0:	4b18      	ldr	r3, [pc, #96]	; (8000824 <Init+0x98>)
 80007c2:	f44f 7200 	mov.w	r2, #512	; 0x200
 80007c6:	801a      	strh	r2, [r3, #0]
 80007c8:	4b16      	ldr	r3, [pc, #88]	; (8000824 <Init+0x98>)
 80007ca:	2218      	movs	r2, #24
 80007cc:	70da      	strb	r2, [r3, #3]
 80007ce:	4b15      	ldr	r3, [pc, #84]	; (8000824 <Init+0x98>)
 80007d0:	2203      	movs	r2, #3
 80007d2:	709a      	strb	r2, [r3, #2]
 80007d4:	4815      	ldr	r0, [pc, #84]	; (800082c <Init+0xa0>)
 80007d6:	4913      	ldr	r1, [pc, #76]	; (8000824 <Init+0x98>)
 80007d8:	f7ff fd86 	bl	80002e8 <GPIO_Init>
 80007dc:	4b11      	ldr	r3, [pc, #68]	; (8000824 <Init+0x98>)
 80007de:	f44f 6280 	mov.w	r2, #1024	; 0x400
 80007e2:	801a      	strh	r2, [r3, #0]
 80007e4:	4b0f      	ldr	r3, [pc, #60]	; (8000824 <Init+0x98>)
 80007e6:	2204      	movs	r2, #4
 80007e8:	70da      	strb	r2, [r3, #3]
 80007ea:	4810      	ldr	r0, [pc, #64]	; (800082c <Init+0xa0>)
 80007ec:	490d      	ldr	r1, [pc, #52]	; (8000824 <Init+0x98>)
 80007ee:	f7ff fd7b 	bl	80002e8 <GPIO_Init>
 80007f2:	f44f 33e1 	mov.w	r3, #115200	; 0x1c200
 80007f6:	603b      	str	r3, [r7, #0]
 80007f8:	2300      	movs	r3, #0
 80007fa:	80bb      	strh	r3, [r7, #4]
 80007fc:	2300      	movs	r3, #0
 80007fe:	80fb      	strh	r3, [r7, #6]
 8000800:	2300      	movs	r3, #0
 8000802:	813b      	strh	r3, [r7, #8]
 8000804:	2300      	movs	r3, #0
 8000806:	81bb      	strh	r3, [r7, #12]
 8000808:	230c      	movs	r3, #12
 800080a:	817b      	strh	r3, [r7, #10]
 800080c:	463b      	mov	r3, r7
 800080e:	4808      	ldr	r0, [pc, #32]	; (8000830 <Init+0xa4>)
 8000810:	4619      	mov	r1, r3
 8000812:	f000 f90f 	bl	8000a34 <USART_Init>
 8000816:	4806      	ldr	r0, [pc, #24]	; (8000830 <Init+0xa4>)
 8000818:	2101      	movs	r1, #1
 800081a:	f000 f9c5 	bl	8000ba8 <USART_Cmd>
 800081e:	3710      	adds	r7, #16
 8000820:	46bd      	mov	sp, r7
 8000822:	bd80      	pop	{r7, pc}
 8000824:	200000a8 	andcs	r0, r0, r8, lsr #1
 8000828:	40011000 	andmi	r1, r1, r0
 800082c:	40010800 	andmi	r0, r1, r0, lsl #16
 8000830:	40013800 	andmi	r3, r1, r0, lsl #16

08000834 <__io_putchar>:
 8000834:	b580      	push	{r7, lr}
 8000836:	b082      	sub	sp, #8
 8000838:	af00      	add	r7, sp, #0
 800083a:	6078      	str	r0, [r7, #4]
 800083c:	bf00      	nop
 800083e:	4809      	ldr	r0, [pc, #36]	; (8000864 <__io_putchar+0x30>)
 8000840:	2140      	movs	r1, #64	; 0x40
 8000842:	f000 f9f3 	bl	8000c2c <USART_GetFlagStatus>
 8000846:	4603      	mov	r3, r0
 8000848:	2b00      	cmp	r3, #0
 800084a:	d0f8      	beq.n	800083e <__io_putchar+0xa>
 800084c:	687b      	ldr	r3, [r7, #4]
 800084e:	b2db      	uxtb	r3, r3
 8000850:	4804      	ldr	r0, [pc, #16]	; (8000864 <__io_putchar+0x30>)
 8000852:	4619      	mov	r1, r3
 8000854:	f000 f9c8 	bl	8000be8 <USART_SendData>
 8000858:	687b      	ldr	r3, [r7, #4]
 800085a:	4618      	mov	r0, r3
 800085c:	3708      	adds	r7, #8
 800085e:	46bd      	mov	sp, r7
 8000860:	bd80      	pop	{r7, pc}
 8000862:	bf00      	nop
 8000864:	40013800 	andmi	r3, r1, r0, lsl #16

08000868 <__io_getchar>:
 8000868:	b580      	push	{r7, lr}
 800086a:	b082      	sub	sp, #8
 800086c:	af00      	add	r7, sp, #0
 800086e:	6078      	str	r0, [r7, #4]
 8000870:	bf00      	nop
 8000872:	4807      	ldr	r0, [pc, #28]	; (8000890 <__io_getchar+0x28>)
 8000874:	2120      	movs	r1, #32
 8000876:	f000 f9d9 	bl	8000c2c <USART_GetFlagStatus>
 800087a:	4603      	mov	r3, r0
 800087c:	2b00      	cmp	r3, #0
 800087e:	d0f8      	beq.n	8000872 <__io_getchar+0xa>
 8000880:	4803      	ldr	r0, [pc, #12]	; (8000890 <__io_getchar+0x28>)
 8000882:	f000 f9c3 	bl	8000c0c <USART_ReceiveData>
 8000886:	4603      	mov	r3, r0
 8000888:	4618      	mov	r0, r3
 800088a:	3708      	adds	r7, #8
 800088c:	46bd      	mov	sp, r7
 800088e:	bd80      	pop	{r7, pc}
 8000890:	40013800 	andmi	r3, r1, r0, lsl #16

08000894 <RCC_GetClocksFreq>:
 8000894:	b480      	push	{r7}
 8000896:	b087      	sub	sp, #28
 8000898:	af00      	add	r7, sp, #0
 800089a:	6078      	str	r0, [r7, #4]
 800089c:	2300      	movs	r3, #0
 800089e:	617b      	str	r3, [r7, #20]
 80008a0:	2300      	movs	r3, #0
 80008a2:	613b      	str	r3, [r7, #16]
 80008a4:	2300      	movs	r3, #0
 80008a6:	60fb      	str	r3, [r7, #12]
 80008a8:	2300      	movs	r3, #0
 80008aa:	60bb      	str	r3, [r7, #8]
 80008ac:	4b4d      	ldr	r3, [pc, #308]	; (80009e4 <RCC_GetClocksFreq+0x150>)
 80008ae:	685b      	ldr	r3, [r3, #4]
 80008b0:	f003 030c 	and.w	r3, r3, #12
 80008b4:	617b      	str	r3, [r7, #20]
 80008b6:	697b      	ldr	r3, [r7, #20]
 80008b8:	2b04      	cmp	r3, #4
 80008ba:	d007      	beq.n	80008cc <RCC_GetClocksFreq+0x38>
 80008bc:	2b08      	cmp	r3, #8
 80008be:	d009      	beq.n	80008d4 <RCC_GetClocksFreq+0x40>
 80008c0:	2b00      	cmp	r3, #0
 80008c2:	d134      	bne.n	800092e <RCC_GetClocksFreq+0x9a>
 80008c4:	687b      	ldr	r3, [r7, #4]
 80008c6:	4a48      	ldr	r2, [pc, #288]	; (80009e8 <RCC_GetClocksFreq+0x154>)
 80008c8:	601a      	str	r2, [r3, #0]
 80008ca:	e034      	b.n	8000936 <RCC_GetClocksFreq+0xa2>
 80008cc:	687b      	ldr	r3, [r7, #4]
 80008ce:	4a46      	ldr	r2, [pc, #280]	; (80009e8 <RCC_GetClocksFreq+0x154>)
 80008d0:	601a      	str	r2, [r3, #0]
 80008d2:	e030      	b.n	8000936 <RCC_GetClocksFreq+0xa2>
 80008d4:	4b43      	ldr	r3, [pc, #268]	; (80009e4 <RCC_GetClocksFreq+0x150>)
 80008d6:	685b      	ldr	r3, [r3, #4]
 80008d8:	f403 1370 	and.w	r3, r3, #3932160	; 0x3c0000
 80008dc:	613b      	str	r3, [r7, #16]
 80008de:	4b41      	ldr	r3, [pc, #260]	; (80009e4 <RCC_GetClocksFreq+0x150>)
 80008e0:	685b      	ldr	r3, [r3, #4]
 80008e2:	f403 3380 	and.w	r3, r3, #65536	; 0x10000
 80008e6:	60fb      	str	r3, [r7, #12]
 80008e8:	693b      	ldr	r3, [r7, #16]
 80008ea:	0c9b      	lsrs	r3, r3, #18
 80008ec:	3302      	adds	r3, #2
 80008ee:	613b      	str	r3, [r7, #16]
 80008f0:	68fb      	ldr	r3, [r7, #12]
 80008f2:	2b00      	cmp	r3, #0
 80008f4:	d106      	bne.n	8000904 <RCC_GetClocksFreq+0x70>
 80008f6:	693b      	ldr	r3, [r7, #16]
 80008f8:	4a3c      	ldr	r2, [pc, #240]	; (80009ec <RCC_GetClocksFreq+0x158>)
 80008fa:	fb02 f203 	mul.w	r2, r2, r3
 80008fe:	687b      	ldr	r3, [r7, #4]
 8000900:	601a      	str	r2, [r3, #0]
 8000902:	e013      	b.n	800092c <RCC_GetClocksFreq+0x98>
 8000904:	4b37      	ldr	r3, [pc, #220]	; (80009e4 <RCC_GetClocksFreq+0x150>)
 8000906:	685b      	ldr	r3, [r3, #4]
 8000908:	f403 3300 	and.w	r3, r3, #131072	; 0x20000
 800090c:	2b00      	cmp	r3, #0
 800090e:	d006      	beq.n	800091e <RCC_GetClocksFreq+0x8a>
 8000910:	693b      	ldr	r3, [r7, #16]
 8000912:	4a36      	ldr	r2, [pc, #216]	; (80009ec <RCC_GetClocksFreq+0x158>)
 8000914:	fb02 f203 	mul.w	r2, r2, r3
 8000918:	687b      	ldr	r3, [r7, #4]
 800091a:	601a      	str	r2, [r3, #0]
 800091c:	e006      	b.n	800092c <RCC_GetClocksFreq+0x98>
 800091e:	693b      	ldr	r3, [r7, #16]
 8000920:	4a31      	ldr	r2, [pc, #196]	; (80009e8 <RCC_GetClocksFreq+0x154>)
 8000922:	fb02 f203 	mul.w	r2, r2, r3
 8000926:	687b      	ldr	r3, [r7, #4]
 8000928:	601a      	str	r2, [r3, #0]
 800092a:	e004      	b.n	8000936 <RCC_GetClocksFreq+0xa2>
 800092c:	e003      	b.n	8000936 <RCC_GetClocksFreq+0xa2>
 800092e:	687b      	ldr	r3, [r7, #4]
 8000930:	4a2d      	ldr	r2, [pc, #180]	; (80009e8 <RCC_GetClocksFreq+0x154>)
 8000932:	601a      	str	r2, [r3, #0]
 8000934:	bf00      	nop
 8000936:	4b2b      	ldr	r3, [pc, #172]	; (80009e4 <RCC_GetClocksFreq+0x150>)
 8000938:	685b      	ldr	r3, [r3, #4]
 800093a:	f003 03f0 	and.w	r3, r3, #240	; 0xf0
 800093e:	617b      	str	r3, [r7, #20]
 8000940:	697b      	ldr	r3, [r7, #20]
 8000942:	091b      	lsrs	r3, r3, #4
 8000944:	617b      	str	r3, [r7, #20]
 8000946:	4a2a      	ldr	r2, [pc, #168]	; (80009f0 <RCC_GetClocksFreq+0x15c>)
 8000948:	697b      	ldr	r3, [r7, #20]
 800094a:	4413      	add	r3, r2
 800094c:	781b      	ldrb	r3, [r3, #0]
 800094e:	b2db      	uxtb	r3, r3
 8000950:	60bb      	str	r3, [r7, #8]
 8000952:	687b      	ldr	r3, [r7, #4]
 8000954:	681a      	ldr	r2, [r3, #0]
 8000956:	68bb      	ldr	r3, [r7, #8]
 8000958:	40da      	lsrs	r2, r3
 800095a:	687b      	ldr	r3, [r7, #4]
 800095c:	605a      	str	r2, [r3, #4]
 800095e:	4b21      	ldr	r3, [pc, #132]	; (80009e4 <RCC_GetClocksFreq+0x150>)
 8000960:	685b      	ldr	r3, [r3, #4]
 8000962:	f403 63e0 	and.w	r3, r3, #1792	; 0x700
 8000966:	617b      	str	r3, [r7, #20]
 8000968:	697b      	ldr	r3, [r7, #20]
 800096a:	0a1b      	lsrs	r3, r3, #8
 800096c:	617b      	str	r3, [r7, #20]
 800096e:	4a20      	ldr	r2, [pc, #128]	; (80009f0 <RCC_GetClocksFreq+0x15c>)
 8000970:	697b      	ldr	r3, [r7, #20]
 8000972:	4413      	add	r3, r2
 8000974:	781b      	ldrb	r3, [r3, #0]
 8000976:	b2db      	uxtb	r3, r3
 8000978:	60bb      	str	r3, [r7, #8]
 800097a:	687b      	ldr	r3, [r7, #4]
 800097c:	685a      	ldr	r2, [r3, #4]
 800097e:	68bb      	ldr	r3, [r7, #8]
 8000980:	40da      	lsrs	r2, r3
 8000982:	687b      	ldr	r3, [r7, #4]
 8000984:	609a      	str	r2, [r3, #8]
 8000986:	4b17      	ldr	r3, [pc, #92]	; (80009e4 <RCC_GetClocksFreq+0x150>)
 8000988:	685b      	ldr	r3, [r3, #4]
 800098a:	f403 5360 	and.w	r3, r3, #14336	; 0x3800
 800098e:	617b      	str	r3, [r7, #20]
 8000990:	697b      	ldr	r3, [r7, #20]
 8000992:	0adb      	lsrs	r3, r3, #11
 8000994:	617b      	str	r3, [r7, #20]
 8000996:	4a16      	ldr	r2, [pc, #88]	; (80009f0 <RCC_GetClocksFreq+0x15c>)
 8000998:	697b      	ldr	r3, [r7, #20]
 800099a:	4413      	add	r3, r2
 800099c:	781b      	ldrb	r3, [r3, #0]
 800099e:	b2db      	uxtb	r3, r3
 80009a0:	60bb      	str	r3, [r7, #8]
 80009a2:	687b      	ldr	r3, [r7, #4]
 80009a4:	685a      	ldr	r2, [r3, #4]
 80009a6:	68bb      	ldr	r3, [r7, #8]
 80009a8:	40da      	lsrs	r2, r3
 80009aa:	687b      	ldr	r3, [r7, #4]
 80009ac:	60da      	str	r2, [r3, #12]
 80009ae:	4b0d      	ldr	r3, [pc, #52]	; (80009e4 <RCC_GetClocksFreq+0x150>)
 80009b0:	685b      	ldr	r3, [r3, #4]
 80009b2:	f403 4340 	and.w	r3, r3, #49152	; 0xc000
 80009b6:	617b      	str	r3, [r7, #20]
 80009b8:	697b      	ldr	r3, [r7, #20]
 80009ba:	0b9b      	lsrs	r3, r3, #14
 80009bc:	617b      	str	r3, [r7, #20]
 80009be:	4a0d      	ldr	r2, [pc, #52]	; (80009f4 <RCC_GetClocksFreq+0x160>)
 80009c0:	697b      	ldr	r3, [r7, #20]
 80009c2:	4413      	add	r3, r2
 80009c4:	781b      	ldrb	r3, [r3, #0]
 80009c6:	b2db      	uxtb	r3, r3
 80009c8:	60bb      	str	r3, [r7, #8]
 80009ca:	687b      	ldr	r3, [r7, #4]
 80009cc:	68da      	ldr	r2, [r3, #12]
 80009ce:	68bb      	ldr	r3, [r7, #8]
 80009d0:	fbb2 f2f3 	udiv	r2, r2, r3
 80009d4:	687b      	ldr	r3, [r7, #4]
 80009d6:	611a      	str	r2, [r3, #16]
 80009d8:	371c      	adds	r7, #28
 80009da:	46bd      	mov	sp, r7
 80009dc:	f85d 7b04 	ldr.w	r7, [sp], #4
 80009e0:	4770      	bx	lr
 80009e2:	bf00      	nop
 80009e4:	40021000 	andmi	r1, r2, r0
 80009e8:	007a1200 	rsbseq	r1, sl, r0, lsl #4
 80009ec:	003d0900 	eorseq	r0, sp, r0, lsl #18
 80009f0:	20000014 	andcs	r0, r0, r4, lsl r0
 80009f4:	20000024 	andcs	r0, r0, r4, lsr #32

080009f8 <RCC_APB2PeriphClockCmd>:
 80009f8:	b480      	push	{r7}
 80009fa:	b083      	sub	sp, #12
 80009fc:	af00      	add	r7, sp, #0
 80009fe:	6078      	str	r0, [r7, #4]
 8000a00:	460b      	mov	r3, r1
 8000a02:	70fb      	strb	r3, [r7, #3]
 8000a04:	78fb      	ldrb	r3, [r7, #3]
 8000a06:	2b00      	cmp	r3, #0
 8000a08:	d006      	beq.n	8000a18 <RCC_APB2PeriphClockCmd+0x20>
 8000a0a:	4b09      	ldr	r3, [pc, #36]	; (8000a30 <RCC_APB2PeriphClockCmd+0x38>)
 8000a0c:	4a08      	ldr	r2, [pc, #32]	; (8000a30 <RCC_APB2PeriphClockCmd+0x38>)
 8000a0e:	6991      	ldr	r1, [r2, #24]
 8000a10:	687a      	ldr	r2, [r7, #4]
 8000a12:	430a      	orrs	r2, r1
 8000a14:	619a      	str	r2, [r3, #24]
 8000a16:	e006      	b.n	8000a26 <RCC_APB2PeriphClockCmd+0x2e>
 8000a18:	4b05      	ldr	r3, [pc, #20]	; (8000a30 <RCC_APB2PeriphClockCmd+0x38>)
 8000a1a:	4a05      	ldr	r2, [pc, #20]	; (8000a30 <RCC_APB2PeriphClockCmd+0x38>)
 8000a1c:	6991      	ldr	r1, [r2, #24]
 8000a1e:	687a      	ldr	r2, [r7, #4]
 8000a20:	43d2      	mvns	r2, r2
 8000a22:	400a      	ands	r2, r1
 8000a24:	619a      	str	r2, [r3, #24]
 8000a26:	370c      	adds	r7, #12
 8000a28:	46bd      	mov	sp, r7
 8000a2a:	f85d 7b04 	ldr.w	r7, [sp], #4
 8000a2e:	4770      	bx	lr
 8000a30:	40021000 	andmi	r1, r2, r0

08000a34 <USART_Init>:
 8000a34:	b580      	push	{r7, lr}
 8000a36:	b08c      	sub	sp, #48	; 0x30
 8000a38:	af00      	add	r7, sp, #0
 8000a3a:	6078      	str	r0, [r7, #4]
 8000a3c:	6039      	str	r1, [r7, #0]
 8000a3e:	2300      	movs	r3, #0
 8000a40:	62fb      	str	r3, [r7, #44]	; 0x2c
 8000a42:	2300      	movs	r3, #0
 8000a44:	62bb      	str	r3, [r7, #40]	; 0x28
 8000a46:	2300      	movs	r3, #0
 8000a48:	627b      	str	r3, [r7, #36]	; 0x24
 8000a4a:	2300      	movs	r3, #0
 8000a4c:	623b      	str	r3, [r7, #32]
 8000a4e:	2300      	movs	r3, #0
 8000a50:	61fb      	str	r3, [r7, #28]
 8000a52:	687b      	ldr	r3, [r7, #4]
 8000a54:	61fb      	str	r3, [r7, #28]
 8000a56:	687b      	ldr	r3, [r7, #4]
 8000a58:	8a1b      	ldrh	r3, [r3, #16]
 8000a5a:	b29b      	uxth	r3, r3
 8000a5c:	62fb      	str	r3, [r7, #44]	; 0x2c
 8000a5e:	6afa      	ldr	r2, [r7, #44]	; 0x2c
 8000a60:	f64c 73ff 	movw	r3, #53247	; 0xcfff
 8000a64:	4013      	ands	r3, r2
 8000a66:	62fb      	str	r3, [r7, #44]	; 0x2c
 8000a68:	683b      	ldr	r3, [r7, #0]
 8000a6a:	88db      	ldrh	r3, [r3, #6]
 8000a6c:	6afa      	ldr	r2, [r7, #44]	; 0x2c
 8000a6e:	4313      	orrs	r3, r2
 8000a70:	62fb      	str	r3, [r7, #44]	; 0x2c
 8000a72:	6afb      	ldr	r3, [r7, #44]	; 0x2c
 8000a74:	b29a      	uxth	r2, r3
 8000a76:	687b      	ldr	r3, [r7, #4]
 8000a78:	821a      	strh	r2, [r3, #16]
 8000a7a:	687b      	ldr	r3, [r7, #4]
 8000a7c:	899b      	ldrh	r3, [r3, #12]
 8000a7e:	b29b      	uxth	r3, r3
 8000a80:	62fb      	str	r3, [r7, #44]	; 0x2c
 8000a82:	6afa      	ldr	r2, [r7, #44]	; 0x2c
 8000a84:	f64e 13f3 	movw	r3, #59891	; 0xe9f3
 8000a88:	4013      	ands	r3, r2
 8000a8a:	62fb      	str	r3, [r7, #44]	; 0x2c
 8000a8c:	683b      	ldr	r3, [r7, #0]
 8000a8e:	889a      	ldrh	r2, [r3, #4]
 8000a90:	683b      	ldr	r3, [r7, #0]
 8000a92:	891b      	ldrh	r3, [r3, #8]
 8000a94:	4313      	orrs	r3, r2
 8000a96:	b29a      	uxth	r2, r3
 8000a98:	683b      	ldr	r3, [r7, #0]
 8000a9a:	895b      	ldrh	r3, [r3, #10]
 8000a9c:	4313      	orrs	r3, r2
 8000a9e:	b29b      	uxth	r3, r3
 8000aa0:	6afa      	ldr	r2, [r7, #44]	; 0x2c
 8000aa2:	4313      	orrs	r3, r2
 8000aa4:	62fb      	str	r3, [r7, #44]	; 0x2c
 8000aa6:	6afb      	ldr	r3, [r7, #44]	; 0x2c
 8000aa8:	b29a      	uxth	r2, r3
 8000aaa:	687b      	ldr	r3, [r7, #4]
 8000aac:	819a      	strh	r2, [r3, #12]
 8000aae:	687b      	ldr	r3, [r7, #4]
 8000ab0:	8a9b      	ldrh	r3, [r3, #20]
 8000ab2:	b29b      	uxth	r3, r3
 8000ab4:	62fb      	str	r3, [r7, #44]	; 0x2c
 8000ab6:	6afa      	ldr	r2, [r7, #44]	; 0x2c
 8000ab8:	f64f 43ff 	movw	r3, #64767	; 0xfcff
 8000abc:	4013      	ands	r3, r2
 8000abe:	62fb      	str	r3, [r7, #44]	; 0x2c
 8000ac0:	683b      	ldr	r3, [r7, #0]
 8000ac2:	899b      	ldrh	r3, [r3, #12]
 8000ac4:	6afa      	ldr	r2, [r7, #44]	; 0x2c
 8000ac6:	4313      	orrs	r3, r2
 8000ac8:	62fb      	str	r3, [r7, #44]	; 0x2c
 8000aca:	6afb      	ldr	r3, [r7, #44]	; 0x2c
 8000acc:	b29a      	uxth	r2, r3
 8000ace:	687b      	ldr	r3, [r7, #4]
 8000ad0:	829a      	strh	r2, [r3, #20]
 8000ad2:	f107 0308 	add.w	r3, r7, #8
 8000ad6:	4618      	mov	r0, r3
 8000ad8:	f7ff fedc 	bl	8000894 <RCC_GetClocksFreq>
 8000adc:	69fa      	ldr	r2, [r7, #28]
 8000ade:	4b30      	ldr	r3, [pc, #192]	; (8000ba0 <USART_Init+0x16c>)
 8000ae0:	429a      	cmp	r2, r3
 8000ae2:	d102      	bne.n	8000aea <USART_Init+0xb6>
 8000ae4:	697b      	ldr	r3, [r7, #20]
 8000ae6:	62bb      	str	r3, [r7, #40]	; 0x28
 8000ae8:	e001      	b.n	8000aee <USART_Init+0xba>
 8000aea:	693b      	ldr	r3, [r7, #16]
 8000aec:	62bb      	str	r3, [r7, #40]	; 0x28
 8000aee:	687b      	ldr	r3, [r7, #4]
 8000af0:	899b      	ldrh	r3, [r3, #12]
 8000af2:	b29b      	uxth	r3, r3
 8000af4:	b29b      	uxth	r3, r3
 8000af6:	b21b      	sxth	r3, r3
 8000af8:	2b00      	cmp	r3, #0
 8000afa:	da0c      	bge.n	8000b16 <USART_Init+0xe2>
 8000afc:	6aba      	ldr	r2, [r7, #40]	; 0x28
 8000afe:	4613      	mov	r3, r2
 8000b00:	009b      	lsls	r3, r3, #2
 8000b02:	4413      	add	r3, r2
 8000b04:	009a      	lsls	r2, r3, #2
 8000b06:	441a      	add	r2, r3
 8000b08:	683b      	ldr	r3, [r7, #0]
 8000b0a:	681b      	ldr	r3, [r3, #0]
 8000b0c:	005b      	lsls	r3, r3, #1
 8000b0e:	fbb2 f3f3 	udiv	r3, r2, r3
 8000b12:	627b      	str	r3, [r7, #36]	; 0x24
 8000b14:	e00b      	b.n	8000b2e <USART_Init+0xfa>
 8000b16:	6aba      	ldr	r2, [r7, #40]	; 0x28
 8000b18:	4613      	mov	r3, r2
 8000b1a:	009b      	lsls	r3, r3, #2
 8000b1c:	4413      	add	r3, r2
 8000b1e:	009a      	lsls	r2, r3, #2
 8000b20:	441a      	add	r2, r3
 8000b22:	683b      	ldr	r3, [r7, #0]
 8000b24:	681b      	ldr	r3, [r3, #0]
 8000b26:	009b      	lsls	r3, r3, #2
 8000b28:	fbb2 f3f3 	udiv	r3, r2, r3
 8000b2c:	627b      	str	r3, [r7, #36]	; 0x24
 8000b2e:	6a7a      	ldr	r2, [r7, #36]	; 0x24
 8000b30:	4b1c      	ldr	r3, [pc, #112]	; (8000ba4 <USART_Init+0x170>)
 8000b32:	fba3 1302 	umull	r1, r3, r3, r2
 8000b36:	095b      	lsrs	r3, r3, #5
 8000b38:	011b      	lsls	r3, r3, #4
 8000b3a:	62fb      	str	r3, [r7, #44]	; 0x2c
 8000b3c:	6afb      	ldr	r3, [r7, #44]	; 0x2c
 8000b3e:	091b      	lsrs	r3, r3, #4
 8000b40:	2264      	movs	r2, #100	; 0x64
 8000b42:	fb02 f303 	mul.w	r3, r2, r3
 8000b46:	6a7a      	ldr	r2, [r7, #36]	; 0x24
 8000b48:	1ad3      	subs	r3, r2, r3
 8000b4a:	623b      	str	r3, [r7, #32]
 8000b4c:	687b      	ldr	r3, [r7, #4]
 8000b4e:	899b      	ldrh	r3, [r3, #12]
 8000b50:	b29b      	uxth	r3, r3
 8000b52:	b29b      	uxth	r3, r3
 8000b54:	b21b      	sxth	r3, r3
 8000b56:	2b00      	cmp	r3, #0
 8000b58:	da0d      	bge.n	8000b76 <USART_Init+0x142>
 8000b5a:	6a3b      	ldr	r3, [r7, #32]
 8000b5c:	00db      	lsls	r3, r3, #3
 8000b5e:	f103 0232 	add.w	r2, r3, #50	; 0x32
 8000b62:	4b10      	ldr	r3, [pc, #64]	; (8000ba4 <USART_Init+0x170>)
 8000b64:	fba3 1302 	umull	r1, r3, r3, r2
 8000b68:	095b      	lsrs	r3, r3, #5
 8000b6a:	f003 0307 	and.w	r3, r3, #7
 8000b6e:	6afa      	ldr	r2, [r7, #44]	; 0x2c
 8000b70:	4313      	orrs	r3, r2
 8000b72:	62fb      	str	r3, [r7, #44]	; 0x2c
 8000b74:	e00c      	b.n	8000b90 <USART_Init+0x15c>
 8000b76:	6a3b      	ldr	r3, [r7, #32]
 8000b78:	011b      	lsls	r3, r3, #4
 8000b7a:	f103 0232 	add.w	r2, r3, #50	; 0x32
 8000b7e:	4b09      	ldr	r3, [pc, #36]	; (8000ba4 <USART_Init+0x170>)
 8000b80:	fba3 1302 	umull	r1, r3, r3, r2
 8000b84:	095b      	lsrs	r3, r3, #5
 8000b86:	f003 030f 	and.w	r3, r3, #15
 8000b8a:	6afa      	ldr	r2, [r7, #44]	; 0x2c
 8000b8c:	4313      	orrs	r3, r2
 8000b8e:	62fb      	str	r3, [r7, #44]	; 0x2c
 8000b90:	6afb      	ldr	r3, [r7, #44]	; 0x2c
 8000b92:	b29a      	uxth	r2, r3
 8000b94:	687b      	ldr	r3, [r7, #4]
 8000b96:	811a      	strh	r2, [r3, #8]
 8000b98:	3730      	adds	r7, #48	; 0x30
 8000b9a:	46bd      	mov	sp, r7
 8000b9c:	bd80      	pop	{r7, pc}
 8000b9e:	bf00      	nop
 8000ba0:	40013800 	andmi	r3, r1, r0, lsl #16
 8000ba4:	51eb851f 	mvnpl	r8, pc, lsl r5

08000ba8 <USART_Cmd>:
 8000ba8:	b480      	push	{r7}
 8000baa:	b083      	sub	sp, #12
 8000bac:	af00      	add	r7, sp, #0
 8000bae:	6078      	str	r0, [r7, #4]
 8000bb0:	460b      	mov	r3, r1
 8000bb2:	70fb      	strb	r3, [r7, #3]
 8000bb4:	78fb      	ldrb	r3, [r7, #3]
 8000bb6:	2b00      	cmp	r3, #0
 8000bb8:	d008      	beq.n	8000bcc <USART_Cmd+0x24>
 8000bba:	687b      	ldr	r3, [r7, #4]
 8000bbc:	899b      	ldrh	r3, [r3, #12]
 8000bbe:	b29b      	uxth	r3, r3
 8000bc0:	f443 5300 	orr.w	r3, r3, #8192	; 0x2000
 8000bc4:	b29a      	uxth	r2, r3
 8000bc6:	687b      	ldr	r3, [r7, #4]
 8000bc8:	819a      	strh	r2, [r3, #12]
 8000bca:	e007      	b.n	8000bdc <USART_Cmd+0x34>
 8000bcc:	687b      	ldr	r3, [r7, #4]
 8000bce:	899b      	ldrh	r3, [r3, #12]
 8000bd0:	b29b      	uxth	r3, r3
 8000bd2:	f423 5300 	bic.w	r3, r3, #8192	; 0x2000
 8000bd6:	b29a      	uxth	r2, r3
 8000bd8:	687b      	ldr	r3, [r7, #4]
 8000bda:	819a      	strh	r2, [r3, #12]
 8000bdc:	370c      	adds	r7, #12
 8000bde:	46bd      	mov	sp, r7
 8000be0:	f85d 7b04 	ldr.w	r7, [sp], #4
 8000be4:	4770      	bx	lr
 8000be6:	bf00      	nop

08000be8 <USART_SendData>:
 8000be8:	b480      	push	{r7}
 8000bea:	b083      	sub	sp, #12
 8000bec:	af00      	add	r7, sp, #0
 8000bee:	6078      	str	r0, [r7, #4]
 8000bf0:	460b      	mov	r3, r1
 8000bf2:	807b      	strh	r3, [r7, #2]
 8000bf4:	887b      	ldrh	r3, [r7, #2]
 8000bf6:	f3c3 0308 	ubfx	r3, r3, #0, #9
 8000bfa:	b29a      	uxth	r2, r3
 8000bfc:	687b      	ldr	r3, [r7, #4]
 8000bfe:	809a      	strh	r2, [r3, #4]
 8000c00:	370c      	adds	r7, #12
 8000c02:	46bd      	mov	sp, r7
 8000c04:	f85d 7b04 	ldr.w	r7, [sp], #4
 8000c08:	4770      	bx	lr
 8000c0a:	bf00      	nop

08000c0c <USART_ReceiveData>:
 8000c0c:	b480      	push	{r7}
 8000c0e:	b083      	sub	sp, #12
 8000c10:	af00      	add	r7, sp, #0
 8000c12:	6078      	str	r0, [r7, #4]
 8000c14:	687b      	ldr	r3, [r7, #4]
 8000c16:	889b      	ldrh	r3, [r3, #4]
 8000c18:	b29b      	uxth	r3, r3
 8000c1a:	f3c3 0308 	ubfx	r3, r3, #0, #9
 8000c1e:	b29b      	uxth	r3, r3
 8000c20:	4618      	mov	r0, r3
 8000c22:	370c      	adds	r7, #12
 8000c24:	46bd      	mov	sp, r7
 8000c26:	f85d 7b04 	ldr.w	r7, [sp], #4
 8000c2a:	4770      	bx	lr

08000c2c <USART_GetFlagStatus>:
 8000c2c:	b480      	push	{r7}
 8000c2e:	b085      	sub	sp, #20
 8000c30:	af00      	add	r7, sp, #0
 8000c32:	6078      	str	r0, [r7, #4]
 8000c34:	460b      	mov	r3, r1
 8000c36:	807b      	strh	r3, [r7, #2]
 8000c38:	2300      	movs	r3, #0
 8000c3a:	73fb      	strb	r3, [r7, #15]
 8000c3c:	687b      	ldr	r3, [r7, #4]
 8000c3e:	881b      	ldrh	r3, [r3, #0]
 8000c40:	b29a      	uxth	r2, r3
 8000c42:	887b      	ldrh	r3, [r7, #2]
 8000c44:	4013      	ands	r3, r2
 8000c46:	b29b      	uxth	r3, r3
 8000c48:	2b00      	cmp	r3, #0
 8000c4a:	d002      	beq.n	8000c52 <USART_GetFlagStatus+0x26>
 8000c4c:	2301      	movs	r3, #1
 8000c4e:	73fb      	strb	r3, [r7, #15]
 8000c50:	e001      	b.n	8000c56 <USART_GetFlagStatus+0x2a>
 8000c52:	2300      	movs	r3, #0
 8000c54:	73fb      	strb	r3, [r7, #15]
 8000c56:	7bfb      	ldrb	r3, [r7, #15]
 8000c58:	4618      	mov	r0, r3
 8000c5a:	3714      	adds	r7, #20
 8000c5c:	46bd      	mov	sp, r7
 8000c5e:	f85d 7b04 	ldr.w	r7, [sp], #4
 8000c62:	4770      	bx	lr

08000c64 <_sbrk>:
 8000c64:	b480      	push	{r7}
 8000c66:	b085      	sub	sp, #20
 8000c68:	af00      	add	r7, sp, #0
 8000c6a:	6078      	str	r0, [r7, #4]
 8000c6c:	4b0b      	ldr	r3, [pc, #44]	; (8000c9c <_sbrk+0x38>)
 8000c6e:	681b      	ldr	r3, [r3, #0]
 8000c70:	2b00      	cmp	r3, #0
 8000c72:	d102      	bne.n	8000c7a <_sbrk+0x16>
 8000c74:	4b09      	ldr	r3, [pc, #36]	; (8000c9c <_sbrk+0x38>)
 8000c76:	4a0a      	ldr	r2, [pc, #40]	; (8000ca0 <_sbrk+0x3c>)
 8000c78:	601a      	str	r2, [r3, #0]
 8000c7a:	4b08      	ldr	r3, [pc, #32]	; (8000c9c <_sbrk+0x38>)
 8000c7c:	681b      	ldr	r3, [r3, #0]
 8000c7e:	60fb      	str	r3, [r7, #12]
 8000c80:	4b06      	ldr	r3, [pc, #24]	; (8000c9c <_sbrk+0x38>)
 8000c82:	681a      	ldr	r2, [r3, #0]
 8000c84:	687b      	ldr	r3, [r7, #4]
 8000c86:	441a      	add	r2, r3
 8000c88:	4b04      	ldr	r3, [pc, #16]	; (8000c9c <_sbrk+0x38>)
 8000c8a:	601a      	str	r2, [r3, #0]
 8000c8c:	68fb      	ldr	r3, [r7, #12]
 8000c8e:	4618      	mov	r0, r3
 8000c90:	3714      	adds	r7, #20
 8000c92:	46bd      	mov	sp, r7
 8000c94:	f85d 7b04 	ldr.w	r7, [sp], #4
 8000c98:	4770      	bx	lr
 8000c9a:	bf00      	nop
 8000c9c:	20000094 	mulcs	r0, r4, r0
 8000ca0:	200000b8 	strhcs	r0, [r0], -r8

08000ca4 <_close>:
 8000ca4:	b480      	push	{r7}
 8000ca6:	b083      	sub	sp, #12
 8000ca8:	af00      	add	r7, sp, #0
 8000caa:	6078      	str	r0, [r7, #4]
 8000cac:	f04f 33ff 	mov.w	r3, #4294967295
 8000cb0:	4618      	mov	r0, r3
 8000cb2:	370c      	adds	r7, #12
 8000cb4:	46bd      	mov	sp, r7
 8000cb6:	f85d 7b04 	ldr.w	r7, [sp], #4
 8000cba:	4770      	bx	lr

08000cbc <_fstat>:
 8000cbc:	b480      	push	{r7}
 8000cbe:	b083      	sub	sp, #12
 8000cc0:	af00      	add	r7, sp, #0
 8000cc2:	6078      	str	r0, [r7, #4]
 8000cc4:	6039      	str	r1, [r7, #0]
 8000cc6:	683b      	ldr	r3, [r7, #0]
 8000cc8:	f44f 5200 	mov.w	r2, #8192	; 0x2000
 8000ccc:	605a      	str	r2, [r3, #4]
 8000cce:	2300      	movs	r3, #0
 8000cd0:	4618      	mov	r0, r3
 8000cd2:	370c      	adds	r7, #12
 8000cd4:	46bd      	mov	sp, r7
 8000cd6:	f85d 7b04 	ldr.w	r7, [sp], #4
 8000cda:	4770      	bx	lr

08000cdc <_isatty>:
 8000cdc:	b480      	push	{r7}
 8000cde:	b083      	sub	sp, #12
 8000ce0:	af00      	add	r7, sp, #0
 8000ce2:	6078      	str	r0, [r7, #4]
 8000ce4:	2301      	movs	r3, #1
 8000ce6:	4618      	mov	r0, r3
 8000ce8:	370c      	adds	r7, #12
 8000cea:	46bd      	mov	sp, r7
 8000cec:	f85d 7b04 	ldr.w	r7, [sp], #4
 8000cf0:	4770      	bx	lr
 8000cf2:	bf00      	nop

08000cf4 <_lseek>:
 8000cf4:	b480      	push	{r7}
 8000cf6:	b085      	sub	sp, #20
 8000cf8:	af00      	add	r7, sp, #0
 8000cfa:	60f8      	str	r0, [r7, #12]
 8000cfc:	60b9      	str	r1, [r7, #8]
 8000cfe:	607a      	str	r2, [r7, #4]
 8000d00:	2300      	movs	r3, #0
 8000d02:	4618      	mov	r0, r3
 8000d04:	3714      	adds	r7, #20
 8000d06:	46bd      	mov	sp, r7
 8000d08:	f85d 7b04 	ldr.w	r7, [sp], #4
 8000d0c:	4770      	bx	lr
 8000d0e:	bf00      	nop

08000d10 <_read>:
 8000d10:	b590      	push	{r4, r7, lr}
 8000d12:	b087      	sub	sp, #28
 8000d14:	af00      	add	r7, sp, #0
 8000d16:	60f8      	str	r0, [r7, #12]
 8000d18:	60b9      	str	r1, [r7, #8]
 8000d1a:	607a      	str	r2, [r7, #4]
 8000d1c:	2300      	movs	r3, #0
 8000d1e:	617b      	str	r3, [r7, #20]
 8000d20:	e00a      	b.n	8000d38 <_read+0x28>
 8000d22:	68bc      	ldr	r4, [r7, #8]
 8000d24:	1c63      	adds	r3, r4, #1
 8000d26:	60bb      	str	r3, [r7, #8]
 8000d28:	f7ff fd9e 	bl	8000868 <__io_getchar>
 8000d2c:	4603      	mov	r3, r0
 8000d2e:	b2db      	uxtb	r3, r3
 8000d30:	7023      	strb	r3, [r4, #0]
 8000d32:	697b      	ldr	r3, [r7, #20]
 8000d34:	3301      	adds	r3, #1
 8000d36:	617b      	str	r3, [r7, #20]
 8000d38:	4808      	ldr	r0, [pc, #32]	; (8000d5c <_read+0x4c>)
 8000d3a:	2120      	movs	r1, #32
 8000d3c:	f7ff ff76 	bl	8000c2c <USART_GetFlagStatus>
 8000d40:	4603      	mov	r3, r0
 8000d42:	2b01      	cmp	r3, #1
 8000d44:	d0ed      	beq.n	8000d22 <_read+0x12>
 8000d46:	697b      	ldr	r3, [r7, #20]
 8000d48:	2b00      	cmp	r3, #0
 8000d4a:	d102      	bne.n	8000d52 <_read+0x42>
 8000d4c:	f04f 33ff 	mov.w	r3, #4294967295
 8000d50:	617b      	str	r3, [r7, #20]
 8000d52:	697b      	ldr	r3, [r7, #20]
 8000d54:	4618      	mov	r0, r3
 8000d56:	371c      	adds	r7, #28
 8000d58:	46bd      	mov	sp, r7
 8000d5a:	bd90      	pop	{r4, r7, pc}
 8000d5c:	40013800 	andmi	r3, r1, r0, lsl #16

08000d60 <_write>:
 8000d60:	b580      	push	{r7, lr}
 8000d62:	b086      	sub	sp, #24
 8000d64:	af00      	add	r7, sp, #0
 8000d66:	60f8      	str	r0, [r7, #12]
 8000d68:	60b9      	str	r1, [r7, #8]
 8000d6a:	607a      	str	r2, [r7, #4]
 8000d6c:	2300      	movs	r3, #0
 8000d6e:	617b      	str	r3, [r7, #20]
 8000d70:	e009      	b.n	8000d86 <_write+0x26>
 8000d72:	68bb      	ldr	r3, [r7, #8]
 8000d74:	1c5a      	adds	r2, r3, #1
 8000d76:	60ba      	str	r2, [r7, #8]
 8000d78:	781b      	ldrb	r3, [r3, #0]
 8000d7a:	4618      	mov	r0, r3
 8000d7c:	f7ff fd5a 	bl	8000834 <__io_putchar>
 8000d80:	697b      	ldr	r3, [r7, #20]
 8000d82:	3301      	adds	r3, #1
 8000d84:	617b      	str	r3, [r7, #20]
 8000d86:	697a      	ldr	r2, [r7, #20]
 8000d88:	687b      	ldr	r3, [r7, #4]
 8000d8a:	429a      	cmp	r2, r3
 8000d8c:	dbf1      	blt.n	8000d72 <_write+0x12>
 8000d8e:	687b      	ldr	r3, [r7, #4]
 8000d90:	4618      	mov	r0, r3
 8000d92:	3718      	adds	r7, #24
 8000d94:	46bd      	mov	sp, r7
 8000d96:	bd80      	pop	{r7, pc}

08000d98 <iprintf>:
 8000d98:	b40f      	push	{r0, r1, r2, r3}
 8000d9a:	4b0a      	ldr	r3, [pc, #40]	; (8000dc4 <iprintf+0x2c>)
 8000d9c:	b513      	push	{r0, r1, r4, lr}
 8000d9e:	681c      	ldr	r4, [r3, #0]
 8000da0:	b124      	cbz	r4, 8000dac <iprintf+0x14>
 8000da2:	69a3      	ldr	r3, [r4, #24]
 8000da4:	b913      	cbnz	r3, 8000dac <iprintf+0x14>
 8000da6:	4620      	mov	r0, r4
 8000da8:	f000 fdb2 	bl	8001910 <__sinit>
 8000dac:	ab05      	add	r3, sp, #20
 8000dae:	4620      	mov	r0, r4
 8000db0:	68a1      	ldr	r1, [r4, #8]
 8000db2:	9a04      	ldr	r2, [sp, #16]
 8000db4:	9301      	str	r3, [sp, #4]
 8000db6:	f000 f94b 	bl	8001050 <_vfiprintf_r>
 8000dba:	b002      	add	sp, #8
 8000dbc:	e8bd 4010 	ldmia.w	sp!, {r4, lr}
 8000dc0:	b004      	add	sp, #16
 8000dc2:	4770      	bx	lr
 8000dc4:	20000088 	andcs	r0, r0, r8, lsl #1

08000dc8 <_puts_r>:
 8000dc8:	b570      	push	{r4, r5, r6, lr}
 8000dca:	460e      	mov	r6, r1
 8000dcc:	4605      	mov	r5, r0
 8000dce:	b118      	cbz	r0, 8000dd8 <_puts_r+0x10>
 8000dd0:	6983      	ldr	r3, [r0, #24]
 8000dd2:	b90b      	cbnz	r3, 8000dd8 <_puts_r+0x10>
 8000dd4:	f000 fd9c 	bl	8001910 <__sinit>
 8000dd8:	68ac      	ldr	r4, [r5, #8]
 8000dda:	89a3      	ldrh	r3, [r4, #12]
 8000ddc:	0719      	lsls	r1, r3, #28
 8000dde:	d501      	bpl.n	8000de4 <_puts_r+0x1c>
 8000de0:	6923      	ldr	r3, [r4, #16]
 8000de2:	b983      	cbnz	r3, 8000e06 <_puts_r+0x3e>
 8000de4:	4628      	mov	r0, r5
 8000de6:	4621      	mov	r1, r4
 8000de8:	f000 fc10 	bl	800160c <__swsetup_r>
 8000dec:	b158      	cbz	r0, 8000e06 <_puts_r+0x3e>
 8000dee:	f04f 30ff 	mov.w	r0, #4294967295
 8000df2:	bd70      	pop	{r4, r5, r6, pc}
 8000df4:	2b00      	cmp	r3, #0
 8000df6:	db0e      	blt.n	8000e16 <_puts_r+0x4e>
 8000df8:	6823      	ldr	r3, [r4, #0]
 8000dfa:	f816 2c01 	ldrb.w	r2, [r6, #-1]
 8000dfe:	701a      	strb	r2, [r3, #0]
 8000e00:	6823      	ldr	r3, [r4, #0]
 8000e02:	3301      	adds	r3, #1
 8000e04:	6023      	str	r3, [r4, #0]
 8000e06:	68a3      	ldr	r3, [r4, #8]
 8000e08:	f816 2b01 	ldrb.w	r2, [r6], #1
 8000e0c:	3b01      	subs	r3, #1
 8000e0e:	60a3      	str	r3, [r4, #8]
 8000e10:	2a00      	cmp	r2, #0
 8000e12:	d1ef      	bne.n	8000df4 <_puts_r+0x2c>
 8000e14:	e017      	b.n	8000e46 <_puts_r+0x7e>
 8000e16:	69a2      	ldr	r2, [r4, #24]
 8000e18:	4293      	cmp	r3, r2
 8000e1a:	db09      	blt.n	8000e30 <_puts_r+0x68>
 8000e1c:	6823      	ldr	r3, [r4, #0]
 8000e1e:	f816 2c01 	ldrb.w	r2, [r6, #-1]
 8000e22:	701a      	strb	r2, [r3, #0]
 8000e24:	6823      	ldr	r3, [r4, #0]
 8000e26:	7819      	ldrb	r1, [r3, #0]
 8000e28:	290a      	cmp	r1, #10
 8000e2a:	d1ea      	bne.n	8000e02 <_puts_r+0x3a>
 8000e2c:	4628      	mov	r0, r5
 8000e2e:	e002      	b.n	8000e36 <_puts_r+0x6e>
 8000e30:	f816 1c01 	ldrb.w	r1, [r6, #-1]
 8000e34:	4628      	mov	r0, r5
 8000e36:	4622      	mov	r2, r4
 8000e38:	f000 fb94 	bl	8001564 <__swbuf_r>
 8000e3c:	f1b0 32ff 	subs.w	r2, r0, #4294967295
 8000e40:	4250      	negs	r0, r2
 8000e42:	4150      	adcs	r0, r2
 8000e44:	e7d2      	b.n	8000dec <_puts_r+0x24>
 8000e46:	2b00      	cmp	r3, #0
 8000e48:	da16      	bge.n	8000e78 <_puts_r+0xb0>
 8000e4a:	69a2      	ldr	r2, [r4, #24]
 8000e4c:	4293      	cmp	r3, r2
 8000e4e:	db08      	blt.n	8000e62 <_puts_r+0x9a>
 8000e50:	6823      	ldr	r3, [r4, #0]
 8000e52:	220a      	movs	r2, #10
 8000e54:	701a      	strb	r2, [r3, #0]
 8000e56:	6823      	ldr	r3, [r4, #0]
 8000e58:	7819      	ldrb	r1, [r3, #0]
 8000e5a:	4291      	cmp	r1, r2
 8000e5c:	d110      	bne.n	8000e80 <_puts_r+0xb8>
 8000e5e:	4628      	mov	r0, r5
 8000e60:	e001      	b.n	8000e66 <_puts_r+0x9e>
 8000e62:	4628      	mov	r0, r5
 8000e64:	210a      	movs	r1, #10
 8000e66:	4622      	mov	r2, r4
 8000e68:	f000 fb7c 	bl	8001564 <__swbuf_r>
 8000e6c:	f1b0 33ff 	subs.w	r3, r0, #4294967295
 8000e70:	4258      	negs	r0, r3
 8000e72:	4158      	adcs	r0, r3
 8000e74:	b130      	cbz	r0, 8000e84 <_puts_r+0xbc>
 8000e76:	e7ba      	b.n	8000dee <_puts_r+0x26>
 8000e78:	6823      	ldr	r3, [r4, #0]
 8000e7a:	220a      	movs	r2, #10
 8000e7c:	701a      	strb	r2, [r3, #0]
 8000e7e:	6823      	ldr	r3, [r4, #0]
 8000e80:	3301      	adds	r3, #1
 8000e82:	6023      	str	r3, [r4, #0]
 8000e84:	200a      	movs	r0, #10
 8000e86:	bd70      	pop	{r4, r5, r6, pc}

08000e88 <puts>:
 8000e88:	4b02      	ldr	r3, [pc, #8]	; (8000e94 <puts+0xc>)
 8000e8a:	4601      	mov	r1, r0
 8000e8c:	6818      	ldr	r0, [r3, #0]
 8000e8e:	f7ff bf9b 	b.w	8000dc8 <_puts_r>
 8000e92:	bf00      	nop
 8000e94:	20000088 	andcs	r0, r0, r8, lsl #1

08000e98 <__srget_r>:
 8000e98:	b538      	push	{r3, r4, r5, lr}
 8000e9a:	460c      	mov	r4, r1
 8000e9c:	4605      	mov	r5, r0
 8000e9e:	b118      	cbz	r0, 8000ea8 <__srget_r+0x10>
 8000ea0:	6983      	ldr	r3, [r0, #24]
 8000ea2:	b90b      	cbnz	r3, 8000ea8 <__srget_r+0x10>
 8000ea4:	f000 fd34 	bl	8001910 <__sinit>
 8000ea8:	4b0e      	ldr	r3, [pc, #56]	; (8000ee4 <__srget_r+0x4c>)
 8000eaa:	429c      	cmp	r4, r3
 8000eac:	d101      	bne.n	8000eb2 <__srget_r+0x1a>
 8000eae:	686c      	ldr	r4, [r5, #4]
 8000eb0:	e008      	b.n	8000ec4 <__srget_r+0x2c>
 8000eb2:	4b0d      	ldr	r3, [pc, #52]	; (8000ee8 <__srget_r+0x50>)
 8000eb4:	429c      	cmp	r4, r3
 8000eb6:	d101      	bne.n	8000ebc <__srget_r+0x24>
 8000eb8:	68ac      	ldr	r4, [r5, #8]
 8000eba:	e003      	b.n	8000ec4 <__srget_r+0x2c>
 8000ebc:	4b0b      	ldr	r3, [pc, #44]	; (8000eec <__srget_r+0x54>)
 8000ebe:	429c      	cmp	r4, r3
 8000ec0:	bf08      	it	eq
 8000ec2:	68ec      	ldreq	r4, [r5, #12]
 8000ec4:	4628      	mov	r0, r5
 8000ec6:	4621      	mov	r1, r4
 8000ec8:	f000 fed2 	bl	8001c70 <__srefill_r>
 8000ecc:	b938      	cbnz	r0, 8000ede <__srget_r+0x46>
 8000ece:	6863      	ldr	r3, [r4, #4]
 8000ed0:	3b01      	subs	r3, #1
 8000ed2:	6063      	str	r3, [r4, #4]
 8000ed4:	6823      	ldr	r3, [r4, #0]
 8000ed6:	1c5a      	adds	r2, r3, #1
 8000ed8:	6022      	str	r2, [r4, #0]
 8000eda:	7818      	ldrb	r0, [r3, #0]
 8000edc:	bd38      	pop	{r3, r4, r5, pc}
 8000ede:	f04f 30ff 	mov.w	r0, #4294967295
 8000ee2:	bd38      	pop	{r3, r4, r5, pc}
 8000ee4:	08001f50 	stmdaeq	r0, {r4, r6, r8, r9, sl, fp, ip}
 8000ee8:	08001f70 	stmdaeq	r0, {r4, r5, r6, r8, r9, sl, fp, ip}
 8000eec:	08001f90 	stmdaeq	r0, {r4, r7, r8, r9, sl, fp, ip}

08000ef0 <setvbuf>:
 8000ef0:	e92d 41f0 	stmdb	sp!, {r4, r5, r6, r7, r8, lr}
 8000ef4:	461e      	mov	r6, r3
 8000ef6:	4b3d      	ldr	r3, [pc, #244]	; (8000fec <setvbuf+0xfc>)
 8000ef8:	4604      	mov	r4, r0
 8000efa:	681d      	ldr	r5, [r3, #0]
 8000efc:	460f      	mov	r7, r1
 8000efe:	4690      	mov	r8, r2
 8000f00:	b125      	cbz	r5, 8000f0c <setvbuf+0x1c>
 8000f02:	69ab      	ldr	r3, [r5, #24]
 8000f04:	b913      	cbnz	r3, 8000f0c <setvbuf+0x1c>
 8000f06:	4628      	mov	r0, r5
 8000f08:	f000 fd02 	bl	8001910 <__sinit>
 8000f0c:	4b38      	ldr	r3, [pc, #224]	; (8000ff0 <setvbuf+0x100>)
 8000f0e:	429c      	cmp	r4, r3
 8000f10:	d101      	bne.n	8000f16 <setvbuf+0x26>
 8000f12:	686c      	ldr	r4, [r5, #4]
 8000f14:	e008      	b.n	8000f28 <setvbuf+0x38>
 8000f16:	4b37      	ldr	r3, [pc, #220]	; (8000ff4 <setvbuf+0x104>)
 8000f18:	429c      	cmp	r4, r3
 8000f1a:	d101      	bne.n	8000f20 <setvbuf+0x30>
 8000f1c:	68ac      	ldr	r4, [r5, #8]
 8000f1e:	e003      	b.n	8000f28 <setvbuf+0x38>
 8000f20:	4b35      	ldr	r3, [pc, #212]	; (8000ff8 <setvbuf+0x108>)
 8000f22:	429c      	cmp	r4, r3
 8000f24:	bf08      	it	eq
 8000f26:	68ec      	ldreq	r4, [r5, #12]
 8000f28:	f1b8 0f02 	cmp.w	r8, #2
 8000f2c:	d859      	bhi.n	8000fe2 <setvbuf+0xf2>
 8000f2e:	2e00      	cmp	r6, #0
 8000f30:	db57      	blt.n	8000fe2 <setvbuf+0xf2>
 8000f32:	4628      	mov	r0, r5
 8000f34:	4621      	mov	r1, r4
 8000f36:	f000 fc5b 	bl	80017f0 <_fflush_r>
 8000f3a:	2300      	movs	r3, #0
 8000f3c:	6063      	str	r3, [r4, #4]
 8000f3e:	61a3      	str	r3, [r4, #24]
 8000f40:	89a3      	ldrh	r3, [r4, #12]
 8000f42:	061b      	lsls	r3, r3, #24
 8000f44:	d503      	bpl.n	8000f4e <setvbuf+0x5e>
 8000f46:	4628      	mov	r0, r5
 8000f48:	6921      	ldr	r1, [r4, #16]
 8000f4a:	f000 fdef 	bl	8001b2c <_free_r>
 8000f4e:	89a3      	ldrh	r3, [r4, #12]
 8000f50:	f1b8 0f02 	cmp.w	r8, #2
 8000f54:	f023 0383 	bic.w	r3, r3, #131	; 0x83
 8000f58:	81a3      	strh	r3, [r4, #12]
 8000f5a:	d012      	beq.n	8000f82 <setvbuf+0x92>
 8000f5c:	bb37      	cbnz	r7, 8000fac <setvbuf+0xbc>
 8000f5e:	2e00      	cmp	r6, #0
 8000f60:	bf08      	it	eq
 8000f62:	f44f 6680 	moveq.w	r6, #1024	; 0x400
 8000f66:	4630      	mov	r0, r6
 8000f68:	f000 fdc2 	bl	8001af0 <malloc>
 8000f6c:	4607      	mov	r7, r0
 8000f6e:	b9c8      	cbnz	r0, 8000fa4 <setvbuf+0xb4>
 8000f70:	f44f 6080 	mov.w	r0, #1024	; 0x400
 8000f74:	f000 fdbc 	bl	8001af0 <malloc>
 8000f78:	4607      	mov	r7, r0
 8000f7a:	b988      	cbnz	r0, 8000fa0 <setvbuf+0xb0>
 8000f7c:	f04f 30ff 	mov.w	r0, #4294967295
 8000f80:	e000      	b.n	8000f84 <setvbuf+0x94>
 8000f82:	2000      	movs	r0, #0
 8000f84:	89a3      	ldrh	r3, [r4, #12]
 8000f86:	f043 0302 	orr.w	r3, r3, #2
 8000f8a:	81a3      	strh	r3, [r4, #12]
 8000f8c:	2300      	movs	r3, #0
 8000f8e:	60a3      	str	r3, [r4, #8]
 8000f90:	f104 0347 	add.w	r3, r4, #71	; 0x47
 8000f94:	6023      	str	r3, [r4, #0]
 8000f96:	6123      	str	r3, [r4, #16]
 8000f98:	2301      	movs	r3, #1
 8000f9a:	6163      	str	r3, [r4, #20]
 8000f9c:	e8bd 81f0 	ldmia.w	sp!, {r4, r5, r6, r7, r8, pc}
 8000fa0:	f44f 6680 	mov.w	r6, #1024	; 0x400
 8000fa4:	89a3      	ldrh	r3, [r4, #12]
 8000fa6:	f043 0380 	orr.w	r3, r3, #128	; 0x80
 8000faa:	81a3      	strh	r3, [r4, #12]
 8000fac:	f1b8 0f01 	cmp.w	r8, #1
 8000fb0:	d105      	bne.n	8000fbe <setvbuf+0xce>
 8000fb2:	89a3      	ldrh	r3, [r4, #12]
 8000fb4:	f043 0301 	orr.w	r3, r3, #1
 8000fb8:	81a3      	strh	r3, [r4, #12]
 8000fba:	4273      	negs	r3, r6
 8000fbc:	61a3      	str	r3, [r4, #24]
 8000fbe:	4b0f      	ldr	r3, [pc, #60]	; (8000ffc <setvbuf+0x10c>)
 8000fc0:	62ab      	str	r3, [r5, #40]	; 0x28
 8000fc2:	89a3      	ldrh	r3, [r4, #12]
 8000fc4:	6027      	str	r7, [r4, #0]
 8000fc6:	f003 0008 	and.w	r0, r3, #8
 8000fca:	b280      	uxth	r0, r0
 8000fcc:	6127      	str	r7, [r4, #16]
 8000fce:	6166      	str	r6, [r4, #20]
 8000fd0:	b148      	cbz	r0, 8000fe6 <setvbuf+0xf6>
 8000fd2:	f013 0f03 	tst.w	r3, #3
 8000fd6:	bf18      	it	ne
 8000fd8:	2600      	movne	r6, #0
 8000fda:	60a6      	str	r6, [r4, #8]
 8000fdc:	2000      	movs	r0, #0
 8000fde:	e8bd 81f0 	ldmia.w	sp!, {r4, r5, r6, r7, r8, pc}
 8000fe2:	f04f 30ff 	mov.w	r0, #4294967295
 8000fe6:	e8bd 81f0 	ldmia.w	sp!, {r4, r5, r6, r7, r8, pc}
 8000fea:	bf00      	nop
 8000fec:	20000088 	andcs	r0, r0, r8, lsl #1
 8000ff0:	08001f50 	stmdaeq	r0, {r4, r6, r8, r9, sl, fp, ip}
 8000ff4:	08001f70 	stmdaeq	r0, {r4, r5, r6, r8, r9, sl, fp, ip}
 8000ff8:	08001f90 	stmdaeq	r0, {r4, r7, r8, r9, sl, fp, ip}
 8000ffc:	08001869 	stmdaeq	r0, {r0, r3, r5, r6, fp, ip}

08001000 <__sfputc_r>:
 8001000:	6893      	ldr	r3, [r2, #8]
 8001002:	b510      	push	{r4, lr}
 8001004:	3b01      	subs	r3, #1
 8001006:	2b00      	cmp	r3, #0
 8001008:	6093      	str	r3, [r2, #8]
 800100a:	da05      	bge.n	8001018 <__sfputc_r+0x18>
 800100c:	6994      	ldr	r4, [r2, #24]
 800100e:	42a3      	cmp	r3, r4
 8001010:	db08      	blt.n	8001024 <__sfputc_r+0x24>
 8001012:	b2cb      	uxtb	r3, r1
 8001014:	2b0a      	cmp	r3, #10
 8001016:	d005      	beq.n	8001024 <__sfputc_r+0x24>
 8001018:	6813      	ldr	r3, [r2, #0]
 800101a:	1c58      	adds	r0, r3, #1
 800101c:	6010      	str	r0, [r2, #0]
 800101e:	7019      	strb	r1, [r3, #0]
 8001020:	b2c8      	uxtb	r0, r1
 8001022:	bd10      	pop	{r4, pc}
 8001024:	e8bd 4010 	ldmia.w	sp!, {r4, lr}
 8001028:	f000 ba9c 	b.w	8001564 <__swbuf_r>

0800102c <__sfputs_r>:
 800102c:	b5f8      	push	{r3, r4, r5, r6, r7, lr}
 800102e:	4605      	mov	r5, r0
 8001030:	460e      	mov	r6, r1
 8001032:	4614      	mov	r4, r2
 8001034:	18d7      	adds	r7, r2, r3
 8001036:	42bc      	cmp	r4, r7
 8001038:	d008      	beq.n	800104c <__sfputs_r+0x20>
 800103a:	4628      	mov	r0, r5
 800103c:	f814 1b01 	ldrb.w	r1, [r4], #1
 8001040:	4632      	mov	r2, r6
 8001042:	f7ff ffdd 	bl	8001000 <__sfputc_r>
 8001046:	1c43      	adds	r3, r0, #1
 8001048:	d1f5      	bne.n	8001036 <__sfputs_r+0xa>
 800104a:	e000      	b.n	800104e <__sfputs_r+0x22>
 800104c:	2000      	movs	r0, #0
 800104e:	bdf8      	pop	{r3, r4, r5, r6, r7, pc}

08001050 <_vfiprintf_r>:
 8001050:	e92d 43f0 	stmdb	sp!, {r4, r5, r6, r7, r8, r9, lr}
 8001054:	b09d      	sub	sp, #116	; 0x74
 8001056:	460d      	mov	r5, r1
 8001058:	4617      	mov	r7, r2
 800105a:	9303      	str	r3, [sp, #12]
 800105c:	4606      	mov	r6, r0
 800105e:	b118      	cbz	r0, 8001068 <_vfiprintf_r+0x18>
 8001060:	6983      	ldr	r3, [r0, #24]
 8001062:	b90b      	cbnz	r3, 8001068 <_vfiprintf_r+0x18>
 8001064:	f000 fc54 	bl	8001910 <__sinit>
 8001068:	4b73      	ldr	r3, [pc, #460]	; (8001238 <_vfiprintf_r+0x1e8>)
 800106a:	429d      	cmp	r5, r3
 800106c:	d101      	bne.n	8001072 <_vfiprintf_r+0x22>
 800106e:	6875      	ldr	r5, [r6, #4]
 8001070:	e008      	b.n	8001084 <_vfiprintf_r+0x34>
 8001072:	4b72      	ldr	r3, [pc, #456]	; (800123c <_vfiprintf_r+0x1ec>)
 8001074:	429d      	cmp	r5, r3
 8001076:	d101      	bne.n	800107c <_vfiprintf_r+0x2c>
 8001078:	68b5      	ldr	r5, [r6, #8]
 800107a:	e003      	b.n	8001084 <_vfiprintf_r+0x34>
 800107c:	4b70      	ldr	r3, [pc, #448]	; (8001240 <_vfiprintf_r+0x1f0>)
 800107e:	429d      	cmp	r5, r3
 8001080:	bf08      	it	eq
 8001082:	68f5      	ldreq	r5, [r6, #12]
 8001084:	89ab      	ldrh	r3, [r5, #12]
 8001086:	0718      	lsls	r0, r3, #28
 8001088:	d50a      	bpl.n	80010a0 <_vfiprintf_r+0x50>
 800108a:	692b      	ldr	r3, [r5, #16]
 800108c:	b143      	cbz	r3, 80010a0 <_vfiprintf_r+0x50>
 800108e:	2300      	movs	r3, #0
 8001090:	9309      	str	r3, [sp, #36]	; 0x24
 8001092:	2320      	movs	r3, #32
 8001094:	f88d 3029 	strb.w	r3, [sp, #41]	; 0x29
 8001098:	2330      	movs	r3, #48	; 0x30
 800109a:	f88d 302a 	strb.w	r3, [sp, #42]	; 0x2a
 800109e:	e038      	b.n	8001112 <_vfiprintf_r+0xc2>
 80010a0:	4630      	mov	r0, r6
 80010a2:	4629      	mov	r1, r5
 80010a4:	f000 fab2 	bl	800160c <__swsetup_r>
 80010a8:	2800      	cmp	r0, #0
 80010aa:	d0f0      	beq.n	800108e <_vfiprintf_r+0x3e>
 80010ac:	f04f 30ff 	mov.w	r0, #4294967295
 80010b0:	e0be      	b.n	8001230 <_vfiprintf_r+0x1e0>
 80010b2:	9a03      	ldr	r2, [sp, #12]
 80010b4:	1d11      	adds	r1, r2, #4
 80010b6:	6812      	ldr	r2, [r2, #0]
 80010b8:	9103      	str	r1, [sp, #12]
 80010ba:	2a00      	cmp	r2, #0
 80010bc:	db70      	blt.n	80011a0 <_vfiprintf_r+0x150>
 80010be:	9207      	str	r2, [sp, #28]
 80010c0:	3401      	adds	r4, #1
 80010c2:	7823      	ldrb	r3, [r4, #0]
 80010c4:	2b2e      	cmp	r3, #46	; 0x2e
 80010c6:	d07d      	beq.n	80011c4 <_vfiprintf_r+0x174>
 80010c8:	4f5e      	ldr	r7, [pc, #376]	; (8001244 <_vfiprintf_r+0x1f4>)
 80010ca:	7821      	ldrb	r1, [r4, #0]
 80010cc:	4638      	mov	r0, r7
 80010ce:	2203      	movs	r2, #3
 80010d0:	f000 fd16 	bl	8001b00 <memchr>
 80010d4:	b130      	cbz	r0, 80010e4 <_vfiprintf_r+0x94>
 80010d6:	1bc7      	subs	r7, r0, r7
 80010d8:	2040      	movs	r0, #64	; 0x40
 80010da:	40b8      	lsls	r0, r7
 80010dc:	9b04      	ldr	r3, [sp, #16]
 80010de:	3401      	adds	r4, #1
 80010e0:	4303      	orrs	r3, r0
 80010e2:	9304      	str	r3, [sp, #16]
 80010e4:	7821      	ldrb	r1, [r4, #0]
 80010e6:	4858      	ldr	r0, [pc, #352]	; (8001248 <_vfiprintf_r+0x1f8>)
 80010e8:	2206      	movs	r2, #6
 80010ea:	1c67      	adds	r7, r4, #1
 80010ec:	f88d 1028 	strb.w	r1, [sp, #40]	; 0x28
 80010f0:	f000 fd06 	bl	8001b00 <memchr>
 80010f4:	2800      	cmp	r0, #0
 80010f6:	f000 8089 	beq.w	800120c <_vfiprintf_r+0x1bc>
 80010fa:	4b54      	ldr	r3, [pc, #336]	; (800124c <_vfiprintf_r+0x1fc>)
 80010fc:	2b00      	cmp	r3, #0
 80010fe:	d17c      	bne.n	80011fa <_vfiprintf_r+0x1aa>
 8001100:	9b03      	ldr	r3, [sp, #12]
 8001102:	3307      	adds	r3, #7
 8001104:	f023 0307 	bic.w	r3, r3, #7
 8001108:	3308      	adds	r3, #8
 800110a:	9303      	str	r3, [sp, #12]
 800110c:	9b09      	ldr	r3, [sp, #36]	; 0x24
 800110e:	4443      	add	r3, r8
 8001110:	9309      	str	r3, [sp, #36]	; 0x24
 8001112:	463b      	mov	r3, r7
 8001114:	461c      	mov	r4, r3
 8001116:	f813 2b01 	ldrb.w	r2, [r3], #1
 800111a:	b91a      	cbnz	r2, 8001124 <_vfiprintf_r+0xd4>
 800111c:	ebb4 0907 	subs.w	r9, r4, r7
 8001120:	d00e      	beq.n	8001140 <_vfiprintf_r+0xf0>
 8001122:	e002      	b.n	800112a <_vfiprintf_r+0xda>
 8001124:	2a25      	cmp	r2, #37	; 0x25
 8001126:	d1f5      	bne.n	8001114 <_vfiprintf_r+0xc4>
 8001128:	e7f8      	b.n	800111c <_vfiprintf_r+0xcc>
 800112a:	4630      	mov	r0, r6
 800112c:	4629      	mov	r1, r5
 800112e:	463a      	mov	r2, r7
 8001130:	464b      	mov	r3, r9
 8001132:	f7ff ff7b 	bl	800102c <__sfputs_r>
 8001136:	3001      	adds	r0, #1
 8001138:	d075      	beq.n	8001226 <_vfiprintf_r+0x1d6>
 800113a:	9b09      	ldr	r3, [sp, #36]	; 0x24
 800113c:	444b      	add	r3, r9
 800113e:	9309      	str	r3, [sp, #36]	; 0x24
 8001140:	7823      	ldrb	r3, [r4, #0]
 8001142:	2b00      	cmp	r3, #0
 8001144:	d06f      	beq.n	8001226 <_vfiprintf_r+0x1d6>
 8001146:	2300      	movs	r3, #0
 8001148:	f04f 32ff 	mov.w	r2, #4294967295
 800114c:	9304      	str	r3, [sp, #16]
 800114e:	9307      	str	r3, [sp, #28]
 8001150:	9205      	str	r2, [sp, #20]
 8001152:	9306      	str	r3, [sp, #24]
 8001154:	f88d 3053 	strb.w	r3, [sp, #83]	; 0x53
 8001158:	931a      	str	r3, [sp, #104]	; 0x68
 800115a:	f104 0901 	add.w	r9, r4, #1
 800115e:	4f3c      	ldr	r7, [pc, #240]	; (8001250 <_vfiprintf_r+0x200>)
 8001160:	464c      	mov	r4, r9
 8001162:	4638      	mov	r0, r7
 8001164:	7821      	ldrb	r1, [r4, #0]
 8001166:	2205      	movs	r2, #5
 8001168:	f000 fcca 	bl	8001b00 <memchr>
 800116c:	f109 0901 	add.w	r9, r9, #1
 8001170:	9b04      	ldr	r3, [sp, #16]
 8001172:	b128      	cbz	r0, 8001180 <_vfiprintf_r+0x130>
 8001174:	1bc7      	subs	r7, r0, r7
 8001176:	2001      	movs	r0, #1
 8001178:	40b8      	lsls	r0, r7
 800117a:	4303      	orrs	r3, r0
 800117c:	9304      	str	r3, [sp, #16]
 800117e:	e7ee      	b.n	800115e <_vfiprintf_r+0x10e>
 8001180:	06d9      	lsls	r1, r3, #27
 8001182:	bf44      	itt	mi
 8001184:	2220      	movmi	r2, #32
 8001186:	f88d 2053 	strbmi.w	r2, [sp, #83]	; 0x53
 800118a:	071a      	lsls	r2, r3, #28
 800118c:	bf44      	itt	mi
 800118e:	222b      	movmi	r2, #43	; 0x2b
 8001190:	f88d 2053 	strbmi.w	r2, [sp, #83]	; 0x53
 8001194:	7822      	ldrb	r2, [r4, #0]
 8001196:	2a2a      	cmp	r2, #42	; 0x2a
 8001198:	d08b      	beq.n	80010b2 <_vfiprintf_r+0x62>
 800119a:	9b07      	ldr	r3, [sp, #28]
 800119c:	4621      	mov	r1, r4
 800119e:	e005      	b.n	80011ac <_vfiprintf_r+0x15c>
 80011a0:	4252      	negs	r2, r2
 80011a2:	f043 0302 	orr.w	r3, r3, #2
 80011a6:	9207      	str	r2, [sp, #28]
 80011a8:	9304      	str	r3, [sp, #16]
 80011aa:	e789      	b.n	80010c0 <_vfiprintf_r+0x70>
 80011ac:	460c      	mov	r4, r1
 80011ae:	7822      	ldrb	r2, [r4, #0]
 80011b0:	3101      	adds	r1, #1
 80011b2:	3a30      	subs	r2, #48	; 0x30
 80011b4:	2a09      	cmp	r2, #9
 80011b6:	d803      	bhi.n	80011c0 <_vfiprintf_r+0x170>
 80011b8:	200a      	movs	r0, #10
 80011ba:	fb00 2303 	mla	r3, r0, r3, r2
 80011be:	e7f5      	b.n	80011ac <_vfiprintf_r+0x15c>
 80011c0:	9307      	str	r3, [sp, #28]
 80011c2:	e77e      	b.n	80010c2 <_vfiprintf_r+0x72>
 80011c4:	7863      	ldrb	r3, [r4, #1]
 80011c6:	2b2a      	cmp	r3, #42	; 0x2a
 80011c8:	d109      	bne.n	80011de <_vfiprintf_r+0x18e>
 80011ca:	9b03      	ldr	r3, [sp, #12]
 80011cc:	3402      	adds	r4, #2
 80011ce:	1d1a      	adds	r2, r3, #4
 80011d0:	681b      	ldr	r3, [r3, #0]
 80011d2:	9203      	str	r2, [sp, #12]
 80011d4:	2b00      	cmp	r3, #0
 80011d6:	bfb8      	it	lt
 80011d8:	f04f 33ff 	movlt.w	r3, #4294967295
 80011dc:	e00b      	b.n	80011f6 <_vfiprintf_r+0x1a6>
 80011de:	1c61      	adds	r1, r4, #1
 80011e0:	2300      	movs	r3, #0
 80011e2:	460c      	mov	r4, r1
 80011e4:	7822      	ldrb	r2, [r4, #0]
 80011e6:	3101      	adds	r1, #1
 80011e8:	3a30      	subs	r2, #48	; 0x30
 80011ea:	2a09      	cmp	r2, #9
 80011ec:	d803      	bhi.n	80011f6 <_vfiprintf_r+0x1a6>
 80011ee:	200a      	movs	r0, #10
 80011f0:	fb00 2303 	mla	r3, r0, r3, r2
 80011f4:	e7f5      	b.n	80011e2 <_vfiprintf_r+0x192>
 80011f6:	9305      	str	r3, [sp, #20]
 80011f8:	e766      	b.n	80010c8 <_vfiprintf_r+0x78>
 80011fa:	ab03      	add	r3, sp, #12
 80011fc:	9300      	str	r3, [sp, #0]
 80011fe:	4630      	mov	r0, r6
 8001200:	a904      	add	r1, sp, #16
 8001202:	462a      	mov	r2, r5
 8001204:	4b13      	ldr	r3, [pc, #76]	; (8001254 <_vfiprintf_r+0x204>)
 8001206:	f3af 8000 	nop.w
 800120a:	e007      	b.n	800121c <_vfiprintf_r+0x1cc>
 800120c:	ab03      	add	r3, sp, #12
 800120e:	9300      	str	r3, [sp, #0]
 8001210:	4630      	mov	r0, r6
 8001212:	a904      	add	r1, sp, #16
 8001214:	462a      	mov	r2, r5
 8001216:	4b0f      	ldr	r3, [pc, #60]	; (8001254 <_vfiprintf_r+0x204>)
 8001218:	f000 f890 	bl	800133c <_printf_i>
 800121c:	f1b0 3fff 	cmp.w	r0, #4294967295
 8001220:	4680      	mov	r8, r0
 8001222:	f47f af73 	bne.w	800110c <_vfiprintf_r+0xbc>
 8001226:	89ab      	ldrh	r3, [r5, #12]
 8001228:	065b      	lsls	r3, r3, #25
 800122a:	f53f af3f 	bmi.w	80010ac <_vfiprintf_r+0x5c>
 800122e:	9809      	ldr	r0, [sp, #36]	; 0x24
 8001230:	b01d      	add	sp, #116	; 0x74
 8001232:	e8bd 83f0 	ldmia.w	sp!, {r4, r5, r6, r7, r8, r9, pc}
 8001236:	bf00      	nop
 8001238:	08001f50 	stmdaeq	r0, {r4, r6, r8, r9, sl, fp, ip}
 800123c:	08001f70 	stmdaeq	r0, {r4, r5, r6, r8, r9, sl, fp, ip}
 8001240:	08001f90 	stmdaeq	r0, {r4, r7, r8, r9, sl, fp, ip}
 8001244:	08001f22 	stmdaeq	r0, {r1, r5, r8, r9, sl, fp, ip}
 8001248:	08001f26 	stmdaeq	r0, {r1, r2, r5, r8, r9, sl, fp, ip}
 800124c:	00000000 	andeq	r0, r0, r0
 8001250:	08001f1c 	stmdaeq	r0, {r2, r3, r4, r8, r9, sl, fp, ip}
 8001254:	0800102d 	stmdaeq	r0, {r0, r2, r3, r5, ip}

08001258 <_printf_common>:
 8001258:	e92d 43f8 	stmdb	sp!, {r3, r4, r5, r6, r7, r8, r9, lr}
 800125c:	4615      	mov	r5, r2
 800125e:	461f      	mov	r7, r3
 8001260:	688a      	ldr	r2, [r1, #8]
 8001262:	690b      	ldr	r3, [r1, #16]
 8001264:	4606      	mov	r6, r0
 8001266:	429a      	cmp	r2, r3
 8001268:	bfa8      	it	ge
 800126a:	4613      	movge	r3, r2
 800126c:	602b      	str	r3, [r5, #0]
 800126e:	f891 2043 	ldrb.w	r2, [r1, #67]	; 0x43
 8001272:	460c      	mov	r4, r1
 8001274:	f8dd 8020 	ldr.w	r8, [sp, #32]
 8001278:	b10a      	cbz	r2, 800127e <_printf_common+0x26>
 800127a:	3301      	adds	r3, #1
 800127c:	602b      	str	r3, [r5, #0]
 800127e:	6823      	ldr	r3, [r4, #0]
 8001280:	0699      	lsls	r1, r3, #26
 8001282:	d502      	bpl.n	800128a <_printf_common+0x32>
 8001284:	682b      	ldr	r3, [r5, #0]
 8001286:	3302      	adds	r3, #2
 8001288:	602b      	str	r3, [r5, #0]
 800128a:	6823      	ldr	r3, [r4, #0]
 800128c:	f013 0906 	ands.w	r9, r3, #6
 8001290:	d01d      	beq.n	80012ce <_printf_common+0x76>
 8001292:	f894 3043 	ldrb.w	r3, [r4, #67]	; 0x43
 8001296:	6822      	ldr	r2, [r4, #0]
 8001298:	3300      	adds	r3, #0
 800129a:	bf18      	it	ne
 800129c:	2301      	movne	r3, #1
 800129e:	0692      	lsls	r2, r2, #26
 80012a0:	d51f      	bpl.n	80012e2 <_printf_common+0x8a>
 80012a2:	18e1      	adds	r1, r4, r3
 80012a4:	2030      	movs	r0, #48	; 0x30
 80012a6:	f881 0043 	strb.w	r0, [r1, #67]	; 0x43
 80012aa:	1c5a      	adds	r2, r3, #1
 80012ac:	f894 1045 	ldrb.w	r1, [r4, #69]	; 0x45
 80012b0:	4422      	add	r2, r4
 80012b2:	3302      	adds	r3, #2
 80012b4:	f882 1043 	strb.w	r1, [r2, #67]	; 0x43
 80012b8:	e013      	b.n	80012e2 <_printf_common+0x8a>
 80012ba:	4630      	mov	r0, r6
 80012bc:	4639      	mov	r1, r7
 80012be:	f104 0219 	add.w	r2, r4, #25
 80012c2:	2301      	movs	r3, #1
 80012c4:	47c0      	blx	r8
 80012c6:	3001      	adds	r0, #1
 80012c8:	d007      	beq.n	80012da <_printf_common+0x82>
 80012ca:	f109 0901 	add.w	r9, r9, #1
 80012ce:	68e2      	ldr	r2, [r4, #12]
 80012d0:	682b      	ldr	r3, [r5, #0]
 80012d2:	1ad3      	subs	r3, r2, r3
 80012d4:	4599      	cmp	r9, r3
 80012d6:	dbf0      	blt.n	80012ba <_printf_common+0x62>
 80012d8:	e7db      	b.n	8001292 <_printf_common+0x3a>
 80012da:	f04f 30ff 	mov.w	r0, #4294967295
 80012de:	e8bd 83f8 	ldmia.w	sp!, {r3, r4, r5, r6, r7, r8, r9, pc}
 80012e2:	4630      	mov	r0, r6
 80012e4:	4639      	mov	r1, r7
 80012e6:	f104 0243 	add.w	r2, r4, #67	; 0x43
 80012ea:	47c0      	blx	r8
 80012ec:	3001      	adds	r0, #1
 80012ee:	d0f4      	beq.n	80012da <_printf_common+0x82>
 80012f0:	6823      	ldr	r3, [r4, #0]
 80012f2:	682a      	ldr	r2, [r5, #0]
 80012f4:	f003 0306 	and.w	r3, r3, #6
 80012f8:	68e1      	ldr	r1, [r4, #12]
 80012fa:	2b04      	cmp	r3, #4
 80012fc:	bf08      	it	eq
 80012fe:	ebc2 0501 	rsbeq	r5, r2, r1
 8001302:	6923      	ldr	r3, [r4, #16]
 8001304:	68a2      	ldr	r2, [r4, #8]
 8001306:	bf0c      	ite	eq
 8001308:	ea25 75e5 	biceq.w	r5, r5, r5, asr #31
 800130c:	2500      	movne	r5, #0
 800130e:	429a      	cmp	r2, r3
 8001310:	bfc4      	itt	gt
 8001312:	ebc3 0302 	rsbgt	r3, r3, r2
 8001316:	18ed      	addgt	r5, r5, r3
 8001318:	f04f 0900 	mov.w	r9, #0
 800131c:	45a9      	cmp	r9, r5
 800131e:	da0a      	bge.n	8001336 <_printf_common+0xde>
 8001320:	4630      	mov	r0, r6
 8001322:	4639      	mov	r1, r7
 8001324:	f104 021a 	add.w	r2, r4, #26
 8001328:	2301      	movs	r3, #1
 800132a:	47c0      	blx	r8
 800132c:	3001      	adds	r0, #1
 800132e:	d0d4      	beq.n	80012da <_printf_common+0x82>
 8001330:	f109 0901 	add.w	r9, r9, #1
 8001334:	e7f2      	b.n	800131c <_printf_common+0xc4>
 8001336:	2000      	movs	r0, #0
 8001338:	e8bd 83f8 	ldmia.w	sp!, {r3, r4, r5, r6, r7, r8, r9, pc}

0800133c <_printf_i>:
 800133c:	e92d 47ff 	stmdb	sp!, {r0, r1, r2, r3, r4, r5, r6, r7, r8, r9, sl, lr}
 8001340:	7e0e      	ldrb	r6, [r1, #24]
 8001342:	4680      	mov	r8, r0
 8001344:	2e6e      	cmp	r6, #110	; 0x6e
 8001346:	460c      	mov	r4, r1
 8001348:	4691      	mov	r9, r2
 800134a:	469a      	mov	sl, r3
 800134c:	9d0c      	ldr	r5, [sp, #48]	; 0x30
 800134e:	f101 0043 	add.w	r0, r1, #67	; 0x43
 8001352:	f000 80a5 	beq.w	80014a0 <_printf_i+0x164>
 8001356:	d811      	bhi.n	800137c <_printf_i+0x40>
 8001358:	2e63      	cmp	r6, #99	; 0x63
 800135a:	d022      	beq.n	80013a2 <_printf_i+0x66>
 800135c:	d809      	bhi.n	8001372 <_printf_i+0x36>
 800135e:	2e00      	cmp	r6, #0
 8001360:	f000 80af 	beq.w	80014c2 <_printf_i+0x186>
 8001364:	2e58      	cmp	r6, #88	; 0x58
 8001366:	f040 80bf 	bne.w	80014e8 <_printf_i+0x1ac>
 800136a:	f881 6045 	strb.w	r6, [r1, #69]	; 0x45
 800136e:	4a7b      	ldr	r2, [pc, #492]	; (800155c <_printf_i+0x220>)
 8001370:	e04f      	b.n	8001412 <_printf_i+0xd6>
 8001372:	2e64      	cmp	r6, #100	; 0x64
 8001374:	d01e      	beq.n	80013b4 <_printf_i+0x78>
 8001376:	2e69      	cmp	r6, #105	; 0x69
 8001378:	d01c      	beq.n	80013b4 <_printf_i+0x78>
 800137a:	e0b5      	b.n	80014e8 <_printf_i+0x1ac>
 800137c:	2e73      	cmp	r6, #115	; 0x73
 800137e:	f000 80a4 	beq.w	80014ca <_printf_i+0x18e>
 8001382:	d809      	bhi.n	8001398 <_printf_i+0x5c>
 8001384:	2e6f      	cmp	r6, #111	; 0x6f
 8001386:	d02b      	beq.n	80013e0 <_printf_i+0xa4>
 8001388:	2e70      	cmp	r6, #112	; 0x70
 800138a:	f040 80ad 	bne.w	80014e8 <_printf_i+0x1ac>
 800138e:	680b      	ldr	r3, [r1, #0]
 8001390:	f043 0320 	orr.w	r3, r3, #32
 8001394:	600b      	str	r3, [r1, #0]
 8001396:	e038      	b.n	800140a <_printf_i+0xce>
 8001398:	2e75      	cmp	r6, #117	; 0x75
 800139a:	d021      	beq.n	80013e0 <_printf_i+0xa4>
 800139c:	2e78      	cmp	r6, #120	; 0x78
 800139e:	d034      	beq.n	800140a <_printf_i+0xce>
 80013a0:	e0a2      	b.n	80014e8 <_printf_i+0x1ac>
 80013a2:	682b      	ldr	r3, [r5, #0]
 80013a4:	f101 0742 	add.w	r7, r1, #66	; 0x42
 80013a8:	1d1a      	adds	r2, r3, #4
 80013aa:	681b      	ldr	r3, [r3, #0]
 80013ac:	602a      	str	r2, [r5, #0]
 80013ae:	f881 3042 	strb.w	r3, [r1, #66]	; 0x42
 80013b2:	e09d      	b.n	80014f0 <_printf_i+0x1b4>
 80013b4:	6822      	ldr	r2, [r4, #0]
 80013b6:	682b      	ldr	r3, [r5, #0]
 80013b8:	f012 0f80 	tst.w	r2, #128	; 0x80
 80013bc:	d003      	beq.n	80013c6 <_printf_i+0x8a>
 80013be:	1d1a      	adds	r2, r3, #4
 80013c0:	602a      	str	r2, [r5, #0]
 80013c2:	681d      	ldr	r5, [r3, #0]
 80013c4:	e005      	b.n	80013d2 <_printf_i+0x96>
 80013c6:	0651      	lsls	r1, r2, #25
 80013c8:	d5f9      	bpl.n	80013be <_printf_i+0x82>
 80013ca:	1d1a      	adds	r2, r3, #4
 80013cc:	602a      	str	r2, [r5, #0]
 80013ce:	f9b3 5000 	ldrsh.w	r5, [r3]
 80013d2:	2d00      	cmp	r5, #0
 80013d4:	da39      	bge.n	800144a <_printf_i+0x10e>
 80013d6:	232d      	movs	r3, #45	; 0x2d
 80013d8:	426d      	negs	r5, r5
 80013da:	f884 3043 	strb.w	r3, [r4, #67]	; 0x43
 80013de:	e034      	b.n	800144a <_printf_i+0x10e>
 80013e0:	6822      	ldr	r2, [r4, #0]
 80013e2:	682b      	ldr	r3, [r5, #0]
 80013e4:	f012 0f80 	tst.w	r2, #128	; 0x80
 80013e8:	d003      	beq.n	80013f2 <_printf_i+0xb6>
 80013ea:	1d1a      	adds	r2, r3, #4
 80013ec:	602a      	str	r2, [r5, #0]
 80013ee:	681d      	ldr	r5, [r3, #0]
 80013f0:	e004      	b.n	80013fc <_printf_i+0xc0>
 80013f2:	0652      	lsls	r2, r2, #25
 80013f4:	d5f9      	bpl.n	80013ea <_printf_i+0xae>
 80013f6:	1d1a      	adds	r2, r3, #4
 80013f8:	602a      	str	r2, [r5, #0]
 80013fa:	881d      	ldrh	r5, [r3, #0]
 80013fc:	7e23      	ldrb	r3, [r4, #24]
 80013fe:	4a57      	ldr	r2, [pc, #348]	; (800155c <_printf_i+0x220>)
 8001400:	2b6f      	cmp	r3, #111	; 0x6f
 8001402:	bf14      	ite	ne
 8001404:	230a      	movne	r3, #10
 8001406:	2308      	moveq	r3, #8
 8001408:	e01b      	b.n	8001442 <_printf_i+0x106>
 800140a:	2378      	movs	r3, #120	; 0x78
 800140c:	4a54      	ldr	r2, [pc, #336]	; (8001560 <_printf_i+0x224>)
 800140e:	f884 3045 	strb.w	r3, [r4, #69]	; 0x45
 8001412:	6823      	ldr	r3, [r4, #0]
 8001414:	6829      	ldr	r1, [r5, #0]
 8001416:	f013 0f80 	tst.w	r3, #128	; 0x80
 800141a:	f101 0604 	add.w	r6, r1, #4
 800141e:	602e      	str	r6, [r5, #0]
 8001420:	d001      	beq.n	8001426 <_printf_i+0xea>
 8001422:	680d      	ldr	r5, [r1, #0]
 8001424:	e002      	b.n	800142c <_printf_i+0xf0>
 8001426:	065f      	lsls	r7, r3, #25
 8001428:	d5fb      	bpl.n	8001422 <_printf_i+0xe6>
 800142a:	880d      	ldrh	r5, [r1, #0]
 800142c:	07de      	lsls	r6, r3, #31
 800142e:	bf44      	itt	mi
 8001430:	f043 0320 	orrmi.w	r3, r3, #32
 8001434:	6023      	strmi	r3, [r4, #0]
 8001436:	b91d      	cbnz	r5, 8001440 <_printf_i+0x104>
 8001438:	6823      	ldr	r3, [r4, #0]
 800143a:	f023 0320 	bic.w	r3, r3, #32
 800143e:	6023      	str	r3, [r4, #0]
 8001440:	2310      	movs	r3, #16
 8001442:	2100      	movs	r1, #0
 8001444:	f884 1043 	strb.w	r1, [r4, #67]	; 0x43
 8001448:	e001      	b.n	800144e <_printf_i+0x112>
 800144a:	4a44      	ldr	r2, [pc, #272]	; (800155c <_printf_i+0x220>)
 800144c:	230a      	movs	r3, #10
 800144e:	6866      	ldr	r6, [r4, #4]
 8001450:	2e00      	cmp	r6, #0
 8001452:	60a6      	str	r6, [r4, #8]
 8001454:	db03      	blt.n	800145e <_printf_i+0x122>
 8001456:	6821      	ldr	r1, [r4, #0]
 8001458:	f021 0104 	bic.w	r1, r1, #4
 800145c:	6021      	str	r1, [r4, #0]
 800145e:	b905      	cbnz	r5, 8001462 <_printf_i+0x126>
 8001460:	b16e      	cbz	r6, 800147e <_printf_i+0x142>
 8001462:	f104 0142 	add.w	r1, r4, #66	; 0x42
 8001466:	fbb5 f6f3 	udiv	r6, r5, r3
 800146a:	fb03 5516 	mls	r5, r3, r6, r5
 800146e:	5d55      	ldrb	r5, [r2, r5]
 8001470:	460f      	mov	r7, r1
 8001472:	f801 5901 	strb.w	r5, [r1], #-1
 8001476:	4635      	mov	r5, r6
 8001478:	2e00      	cmp	r6, #0
 800147a:	d1f4      	bne.n	8001466 <_printf_i+0x12a>
 800147c:	e000      	b.n	8001480 <_printf_i+0x144>
 800147e:	4607      	mov	r7, r0
 8001480:	2b08      	cmp	r3, #8
 8001482:	d10a      	bne.n	800149a <_printf_i+0x15e>
 8001484:	6823      	ldr	r3, [r4, #0]
 8001486:	07dd      	lsls	r5, r3, #31
 8001488:	d507      	bpl.n	800149a <_printf_i+0x15e>
 800148a:	6862      	ldr	r2, [r4, #4]
 800148c:	6923      	ldr	r3, [r4, #16]
 800148e:	429a      	cmp	r2, r3
 8001490:	dc03      	bgt.n	800149a <_printf_i+0x15e>
 8001492:	2330      	movs	r3, #48	; 0x30
 8001494:	f807 3c01 	strb.w	r3, [r7, #-1]
 8001498:	3f01      	subs	r7, #1
 800149a:	1bc0      	subs	r0, r0, r7
 800149c:	6120      	str	r0, [r4, #16]
 800149e:	e02c      	b.n	80014fa <_printf_i+0x1be>
 80014a0:	6809      	ldr	r1, [r1, #0]
 80014a2:	682b      	ldr	r3, [r5, #0]
 80014a4:	f011 0f80 	tst.w	r1, #128	; 0x80
 80014a8:	6962      	ldr	r2, [r4, #20]
 80014aa:	d004      	beq.n	80014b6 <_printf_i+0x17a>
 80014ac:	1d19      	adds	r1, r3, #4
 80014ae:	6029      	str	r1, [r5, #0]
 80014b0:	681b      	ldr	r3, [r3, #0]
 80014b2:	601a      	str	r2, [r3, #0]
 80014b4:	e005      	b.n	80014c2 <_printf_i+0x186>
 80014b6:	0649      	lsls	r1, r1, #25
 80014b8:	d5f8      	bpl.n	80014ac <_printf_i+0x170>
 80014ba:	1d19      	adds	r1, r3, #4
 80014bc:	6029      	str	r1, [r5, #0]
 80014be:	681b      	ldr	r3, [r3, #0]
 80014c0:	801a      	strh	r2, [r3, #0]
 80014c2:	2300      	movs	r3, #0
 80014c4:	6123      	str	r3, [r4, #16]
 80014c6:	4607      	mov	r7, r0
 80014c8:	e017      	b.n	80014fa <_printf_i+0x1be>
 80014ca:	682b      	ldr	r3, [r5, #0]
 80014cc:	1d1a      	adds	r2, r3, #4
 80014ce:	602a      	str	r2, [r5, #0]
 80014d0:	681f      	ldr	r7, [r3, #0]
 80014d2:	4638      	mov	r0, r7
 80014d4:	f000 fca5 	bl	8001e22 <strlen>
 80014d8:	6863      	ldr	r3, [r4, #4]
 80014da:	6120      	str	r0, [r4, #16]
 80014dc:	4298      	cmp	r0, r3
 80014de:	bf88      	it	hi
 80014e0:	6123      	strhi	r3, [r4, #16]
 80014e2:	6923      	ldr	r3, [r4, #16]
 80014e4:	6063      	str	r3, [r4, #4]
 80014e6:	e005      	b.n	80014f4 <_printf_i+0x1b8>
 80014e8:	f104 0742 	add.w	r7, r4, #66	; 0x42
 80014ec:	f884 6042 	strb.w	r6, [r4, #66]	; 0x42
 80014f0:	2301      	movs	r3, #1
 80014f2:	6123      	str	r3, [r4, #16]
 80014f4:	2300      	movs	r3, #0
 80014f6:	f884 3043 	strb.w	r3, [r4, #67]	; 0x43
 80014fa:	f8cd a000 	str.w	sl, [sp]
 80014fe:	4640      	mov	r0, r8
 8001500:	4621      	mov	r1, r4
 8001502:	aa03      	add	r2, sp, #12
 8001504:	464b      	mov	r3, r9
 8001506:	f7ff fea7 	bl	8001258 <_printf_common>
 800150a:	3001      	adds	r0, #1
 800150c:	d102      	bne.n	8001514 <_printf_i+0x1d8>
 800150e:	f04f 30ff 	mov.w	r0, #4294967295
 8001512:	e01f      	b.n	8001554 <_printf_i+0x218>
 8001514:	4640      	mov	r0, r8
 8001516:	4649      	mov	r1, r9
 8001518:	463a      	mov	r2, r7
 800151a:	6923      	ldr	r3, [r4, #16]
 800151c:	47d0      	blx	sl
 800151e:	3001      	adds	r0, #1
 8001520:	d0f5      	beq.n	800150e <_printf_i+0x1d2>
 8001522:	6823      	ldr	r3, [r4, #0]
 8001524:	079b      	lsls	r3, r3, #30
 8001526:	d405      	bmi.n	8001534 <_printf_i+0x1f8>
 8001528:	68e0      	ldr	r0, [r4, #12]
 800152a:	9b03      	ldr	r3, [sp, #12]
 800152c:	4298      	cmp	r0, r3
 800152e:	bfb8      	it	lt
 8001530:	4618      	movlt	r0, r3
 8001532:	e00f      	b.n	8001554 <_printf_i+0x218>
 8001534:	2500      	movs	r5, #0
 8001536:	68e2      	ldr	r2, [r4, #12]
 8001538:	9b03      	ldr	r3, [sp, #12]
 800153a:	1ad3      	subs	r3, r2, r3
 800153c:	429d      	cmp	r5, r3
 800153e:	daf3      	bge.n	8001528 <_printf_i+0x1ec>
 8001540:	4640      	mov	r0, r8
 8001542:	4649      	mov	r1, r9
 8001544:	f104 0219 	add.w	r2, r4, #25
 8001548:	2301      	movs	r3, #1
 800154a:	47d0      	blx	sl
 800154c:	3001      	adds	r0, #1
 800154e:	d0de      	beq.n	800150e <_printf_i+0x1d2>
 8001550:	3501      	adds	r5, #1
 8001552:	e7f0      	b.n	8001536 <_printf_i+0x1fa>
 8001554:	b004      	add	sp, #16
 8001556:	e8bd 87f0 	ldmia.w	sp!, {r4, r5, r6, r7, r8, r9, sl, pc}
 800155a:	bf00      	nop
 800155c:	08001f2d 	stmdaeq	r0, {r0, r2, r3, r5, r8, r9, sl, fp, ip}
 8001560:	08001f3e 	stmdaeq	r0, {r1, r2, r3, r4, r5, r8, r9, sl, fp, ip}

08001564 <__swbuf_r>:
 8001564:	b570      	push	{r4, r5, r6, lr}
 8001566:	460e      	mov	r6, r1
 8001568:	4614      	mov	r4, r2
 800156a:	4605      	mov	r5, r0
 800156c:	b118      	cbz	r0, 8001576 <__swbuf_r+0x12>
 800156e:	6983      	ldr	r3, [r0, #24]
 8001570:	b90b      	cbnz	r3, 8001576 <__swbuf_r+0x12>
 8001572:	f000 f9cd 	bl	8001910 <__sinit>
 8001576:	4b22      	ldr	r3, [pc, #136]	; (8001600 <__swbuf_r+0x9c>)
 8001578:	429c      	cmp	r4, r3
 800157a:	d101      	bne.n	8001580 <__swbuf_r+0x1c>
 800157c:	686c      	ldr	r4, [r5, #4]
 800157e:	e008      	b.n	8001592 <__swbuf_r+0x2e>
 8001580:	4b20      	ldr	r3, [pc, #128]	; (8001604 <__swbuf_r+0xa0>)
 8001582:	429c      	cmp	r4, r3
 8001584:	d101      	bne.n	800158a <__swbuf_r+0x26>
 8001586:	68ac      	ldr	r4, [r5, #8]
 8001588:	e003      	b.n	8001592 <__swbuf_r+0x2e>
 800158a:	4b1f      	ldr	r3, [pc, #124]	; (8001608 <__swbuf_r+0xa4>)
 800158c:	429c      	cmp	r4, r3
 800158e:	bf08      	it	eq
 8001590:	68ec      	ldreq	r4, [r5, #12]
 8001592:	69a3      	ldr	r3, [r4, #24]
 8001594:	60a3      	str	r3, [r4, #8]
 8001596:	89a3      	ldrh	r3, [r4, #12]
 8001598:	071a      	lsls	r2, r3, #28
 800159a:	d509      	bpl.n	80015b0 <__swbuf_r+0x4c>
 800159c:	6923      	ldr	r3, [r4, #16]
 800159e:	b13b      	cbz	r3, 80015b0 <__swbuf_r+0x4c>
 80015a0:	6923      	ldr	r3, [r4, #16]
 80015a2:	6820      	ldr	r0, [r4, #0]
 80015a4:	b2f6      	uxtb	r6, r6
 80015a6:	1ac0      	subs	r0, r0, r3
 80015a8:	6963      	ldr	r3, [r4, #20]
 80015aa:	4298      	cmp	r0, r3
 80015ac:	db0f      	blt.n	80015ce <__swbuf_r+0x6a>
 80015ae:	e008      	b.n	80015c2 <__swbuf_r+0x5e>
 80015b0:	4628      	mov	r0, r5
 80015b2:	4621      	mov	r1, r4
 80015b4:	f000 f82a 	bl	800160c <__swsetup_r>
 80015b8:	2800      	cmp	r0, #0
 80015ba:	d0f1      	beq.n	80015a0 <__swbuf_r+0x3c>
 80015bc:	f04f 30ff 	mov.w	r0, #4294967295
 80015c0:	bd70      	pop	{r4, r5, r6, pc}
 80015c2:	4628      	mov	r0, r5
 80015c4:	4621      	mov	r1, r4
 80015c6:	f000 f913 	bl	80017f0 <_fflush_r>
 80015ca:	2800      	cmp	r0, #0
 80015cc:	d1f6      	bne.n	80015bc <__swbuf_r+0x58>
 80015ce:	68a3      	ldr	r3, [r4, #8]
 80015d0:	3001      	adds	r0, #1
 80015d2:	3b01      	subs	r3, #1
 80015d4:	60a3      	str	r3, [r4, #8]
 80015d6:	6823      	ldr	r3, [r4, #0]
 80015d8:	1c5a      	adds	r2, r3, #1
 80015da:	6022      	str	r2, [r4, #0]
 80015dc:	701e      	strb	r6, [r3, #0]
 80015de:	6963      	ldr	r3, [r4, #20]
 80015e0:	4298      	cmp	r0, r3
 80015e2:	d004      	beq.n	80015ee <__swbuf_r+0x8a>
 80015e4:	89a3      	ldrh	r3, [r4, #12]
 80015e6:	07db      	lsls	r3, r3, #31
 80015e8:	d507      	bpl.n	80015fa <__swbuf_r+0x96>
 80015ea:	2e0a      	cmp	r6, #10
 80015ec:	d105      	bne.n	80015fa <__swbuf_r+0x96>
 80015ee:	4628      	mov	r0, r5
 80015f0:	4621      	mov	r1, r4
 80015f2:	f000 f8fd 	bl	80017f0 <_fflush_r>
 80015f6:	2800      	cmp	r0, #0
 80015f8:	d1e0      	bne.n	80015bc <__swbuf_r+0x58>
 80015fa:	4630      	mov	r0, r6
 80015fc:	bd70      	pop	{r4, r5, r6, pc}
 80015fe:	bf00      	nop
 8001600:	08001f50 	stmdaeq	r0, {r4, r6, r8, r9, sl, fp, ip}
 8001604:	08001f70 	stmdaeq	r0, {r4, r5, r6, r8, r9, sl, fp, ip}
 8001608:	08001f90 	stmdaeq	r0, {r4, r7, r8, r9, sl, fp, ip}

0800160c <__swsetup_r>:
 800160c:	4b32      	ldr	r3, [pc, #200]	; (80016d8 <__swsetup_r+0xcc>)
 800160e:	b570      	push	{r4, r5, r6, lr}
 8001610:	681d      	ldr	r5, [r3, #0]
 8001612:	4606      	mov	r6, r0
 8001614:	460c      	mov	r4, r1
 8001616:	b125      	cbz	r5, 8001622 <__swsetup_r+0x16>
 8001618:	69ab      	ldr	r3, [r5, #24]
 800161a:	b913      	cbnz	r3, 8001622 <__swsetup_r+0x16>
 800161c:	4628      	mov	r0, r5
 800161e:	f000 f977 	bl	8001910 <__sinit>
 8001622:	4b2e      	ldr	r3, [pc, #184]	; (80016dc <__swsetup_r+0xd0>)
 8001624:	429c      	cmp	r4, r3
 8001626:	d101      	bne.n	800162c <__swsetup_r+0x20>
 8001628:	686c      	ldr	r4, [r5, #4]
 800162a:	e008      	b.n	800163e <__swsetup_r+0x32>
 800162c:	4b2c      	ldr	r3, [pc, #176]	; (80016e0 <__swsetup_r+0xd4>)
 800162e:	429c      	cmp	r4, r3
 8001630:	d101      	bne.n	8001636 <__swsetup_r+0x2a>
 8001632:	68ac      	ldr	r4, [r5, #8]
 8001634:	e003      	b.n	800163e <__swsetup_r+0x32>
 8001636:	4b2b      	ldr	r3, [pc, #172]	; (80016e4 <__swsetup_r+0xd8>)
 8001638:	429c      	cmp	r4, r3
 800163a:	bf08      	it	eq
 800163c:	68ec      	ldreq	r4, [r5, #12]
 800163e:	89a2      	ldrh	r2, [r4, #12]
 8001640:	b293      	uxth	r3, r2
 8001642:	0719      	lsls	r1, r3, #28
 8001644:	d420      	bmi.n	8001688 <__swsetup_r+0x7c>
 8001646:	06dd      	lsls	r5, r3, #27
 8001648:	d405      	bmi.n	8001656 <__swsetup_r+0x4a>
 800164a:	2309      	movs	r3, #9
 800164c:	f042 0240 	orr.w	r2, r2, #64	; 0x40
 8001650:	6033      	str	r3, [r6, #0]
 8001652:	81a2      	strh	r2, [r4, #12]
 8001654:	e03b      	b.n	80016ce <__swsetup_r+0xc2>
 8001656:	0758      	lsls	r0, r3, #29
 8001658:	d512      	bpl.n	8001680 <__swsetup_r+0x74>
 800165a:	6b61      	ldr	r1, [r4, #52]	; 0x34
 800165c:	b141      	cbz	r1, 8001670 <__swsetup_r+0x64>
 800165e:	f104 0344 	add.w	r3, r4, #68	; 0x44
 8001662:	4299      	cmp	r1, r3
 8001664:	d002      	beq.n	800166c <__swsetup_r+0x60>
 8001666:	4630      	mov	r0, r6
 8001668:	f000 fa60 	bl	8001b2c <_free_r>
 800166c:	2300      	movs	r3, #0
 800166e:	6363      	str	r3, [r4, #52]	; 0x34
 8001670:	89a3      	ldrh	r3, [r4, #12]
 8001672:	f023 0324 	bic.w	r3, r3, #36	; 0x24
 8001676:	81a3      	strh	r3, [r4, #12]
 8001678:	2300      	movs	r3, #0
 800167a:	6063      	str	r3, [r4, #4]
 800167c:	6923      	ldr	r3, [r4, #16]
 800167e:	6023      	str	r3, [r4, #0]
 8001680:	89a3      	ldrh	r3, [r4, #12]
 8001682:	f043 0308 	orr.w	r3, r3, #8
 8001686:	81a3      	strh	r3, [r4, #12]
 8001688:	6923      	ldr	r3, [r4, #16]
 800168a:	b94b      	cbnz	r3, 80016a0 <__swsetup_r+0x94>
 800168c:	89a3      	ldrh	r3, [r4, #12]
 800168e:	f403 7320 	and.w	r3, r3, #640	; 0x280
 8001692:	f5b3 7f00 	cmp.w	r3, #512	; 0x200
 8001696:	d003      	beq.n	80016a0 <__swsetup_r+0x94>
 8001698:	4630      	mov	r0, r6
 800169a:	4621      	mov	r1, r4
 800169c:	f000 f9dc 	bl	8001a58 <__smakebuf_r>
 80016a0:	89a3      	ldrh	r3, [r4, #12]
 80016a2:	f013 0201 	ands.w	r2, r3, #1
 80016a6:	d005      	beq.n	80016b4 <__swsetup_r+0xa8>
 80016a8:	2200      	movs	r2, #0
 80016aa:	60a2      	str	r2, [r4, #8]
 80016ac:	6962      	ldr	r2, [r4, #20]
 80016ae:	4252      	negs	r2, r2
 80016b0:	61a2      	str	r2, [r4, #24]
 80016b2:	e003      	b.n	80016bc <__swsetup_r+0xb0>
 80016b4:	0799      	lsls	r1, r3, #30
 80016b6:	bf58      	it	pl
 80016b8:	6962      	ldrpl	r2, [r4, #20]
 80016ba:	60a2      	str	r2, [r4, #8]
 80016bc:	6922      	ldr	r2, [r4, #16]
 80016be:	b94a      	cbnz	r2, 80016d4 <__swsetup_r+0xc8>
 80016c0:	f003 0080 	and.w	r0, r3, #128	; 0x80
 80016c4:	b280      	uxth	r0, r0
 80016c6:	b130      	cbz	r0, 80016d6 <__swsetup_r+0xca>
 80016c8:	f043 0340 	orr.w	r3, r3, #64	; 0x40
 80016cc:	81a3      	strh	r3, [r4, #12]
 80016ce:	f04f 30ff 	mov.w	r0, #4294967295
 80016d2:	bd70      	pop	{r4, r5, r6, pc}
 80016d4:	2000      	movs	r0, #0
 80016d6:	bd70      	pop	{r4, r5, r6, pc}
 80016d8:	20000088 	andcs	r0, r0, r8, lsl #1
 80016dc:	08001f50 	stmdaeq	r0, {r4, r6, r8, r9, sl, fp, ip}
 80016e0:	08001f70 	stmdaeq	r0, {r4, r5, r6, r8, r9, sl, fp, ip}
 80016e4:	08001f90 	stmdaeq	r0, {r4, r7, r8, r9, sl, fp, ip}

080016e8 <__sflush_r>:
 80016e8:	898a      	ldrh	r2, [r1, #12]
 80016ea:	e92d 41f0 	stmdb	sp!, {r4, r5, r6, r7, r8, lr}
 80016ee:	4605      	mov	r5, r0
 80016f0:	0710      	lsls	r0, r2, #28
 80016f2:	460c      	mov	r4, r1
 80016f4:	d457      	bmi.n	80017a6 <__sflush_r+0xbe>
 80016f6:	684b      	ldr	r3, [r1, #4]
 80016f8:	2b00      	cmp	r3, #0
 80016fa:	dc02      	bgt.n	8001702 <__sflush_r+0x1a>
 80016fc:	6c0b      	ldr	r3, [r1, #64]	; 0x40
 80016fe:	2b00      	cmp	r3, #0
 8001700:	dd18      	ble.n	8001734 <__sflush_r+0x4c>
 8001702:	6ae6      	ldr	r6, [r4, #44]	; 0x2c
 8001704:	b1b6      	cbz	r6, 8001734 <__sflush_r+0x4c>
 8001706:	f402 5280 	and.w	r2, r2, #4096	; 0x1000
 800170a:	2300      	movs	r3, #0
 800170c:	b292      	uxth	r2, r2
 800170e:	682f      	ldr	r7, [r5, #0]
 8001710:	602b      	str	r3, [r5, #0]
 8001712:	b10a      	cbz	r2, 8001718 <__sflush_r+0x30>
 8001714:	6d62      	ldr	r2, [r4, #84]	; 0x54
 8001716:	e010      	b.n	800173a <__sflush_r+0x52>
 8001718:	6a21      	ldr	r1, [r4, #32]
 800171a:	4628      	mov	r0, r5
 800171c:	2301      	movs	r3, #1
 800171e:	47b0      	blx	r6
 8001720:	1c41      	adds	r1, r0, #1
 8001722:	4602      	mov	r2, r0
 8001724:	d109      	bne.n	800173a <__sflush_r+0x52>
 8001726:	682b      	ldr	r3, [r5, #0]
 8001728:	b13b      	cbz	r3, 800173a <__sflush_r+0x52>
 800172a:	2b1d      	cmp	r3, #29
 800172c:	d001      	beq.n	8001732 <__sflush_r+0x4a>
 800172e:	2b16      	cmp	r3, #22
 8001730:	d146      	bne.n	80017c0 <__sflush_r+0xd8>
 8001732:	602f      	str	r7, [r5, #0]
 8001734:	2000      	movs	r0, #0
 8001736:	e8bd 81f0 	ldmia.w	sp!, {r4, r5, r6, r7, r8, pc}
 800173a:	89a3      	ldrh	r3, [r4, #12]
 800173c:	075b      	lsls	r3, r3, #29
 800173e:	d505      	bpl.n	800174c <__sflush_r+0x64>
 8001740:	6863      	ldr	r3, [r4, #4]
 8001742:	1ad2      	subs	r2, r2, r3
 8001744:	6b63      	ldr	r3, [r4, #52]	; 0x34
 8001746:	b10b      	cbz	r3, 800174c <__sflush_r+0x64>
 8001748:	6c23      	ldr	r3, [r4, #64]	; 0x40
 800174a:	1ad2      	subs	r2, r2, r3
 800174c:	6ae6      	ldr	r6, [r4, #44]	; 0x2c
 800174e:	4628      	mov	r0, r5
 8001750:	6a21      	ldr	r1, [r4, #32]
 8001752:	2300      	movs	r3, #0
 8001754:	47b0      	blx	r6
 8001756:	1c46      	adds	r6, r0, #1
 8001758:	89a2      	ldrh	r2, [r4, #12]
 800175a:	d105      	bne.n	8001768 <__sflush_r+0x80>
 800175c:	682b      	ldr	r3, [r5, #0]
 800175e:	b11b      	cbz	r3, 8001768 <__sflush_r+0x80>
 8001760:	2b1d      	cmp	r3, #29
 8001762:	d001      	beq.n	8001768 <__sflush_r+0x80>
 8001764:	2b16      	cmp	r3, #22
 8001766:	d119      	bne.n	800179c <__sflush_r+0xb4>
 8001768:	2300      	movs	r3, #0
 800176a:	6063      	str	r3, [r4, #4]
 800176c:	6923      	ldr	r3, [r4, #16]
 800176e:	04d1      	lsls	r1, r2, #19
 8001770:	6023      	str	r3, [r4, #0]
 8001772:	d504      	bpl.n	800177e <__sflush_r+0x96>
 8001774:	1c42      	adds	r2, r0, #1
 8001776:	d101      	bne.n	800177c <__sflush_r+0x94>
 8001778:	682b      	ldr	r3, [r5, #0]
 800177a:	b903      	cbnz	r3, 800177e <__sflush_r+0x96>
 800177c:	6560      	str	r0, [r4, #84]	; 0x54
 800177e:	6b61      	ldr	r1, [r4, #52]	; 0x34
 8001780:	602f      	str	r7, [r5, #0]
 8001782:	2900      	cmp	r1, #0
 8001784:	d0d6      	beq.n	8001734 <__sflush_r+0x4c>
 8001786:	f104 0344 	add.w	r3, r4, #68	; 0x44
 800178a:	4299      	cmp	r1, r3
 800178c:	d002      	beq.n	8001794 <__sflush_r+0xac>
 800178e:	4628      	mov	r0, r5
 8001790:	f000 f9cc 	bl	8001b2c <_free_r>
 8001794:	2000      	movs	r0, #0
 8001796:	6360      	str	r0, [r4, #52]	; 0x34
 8001798:	e8bd 81f0 	ldmia.w	sp!, {r4, r5, r6, r7, r8, pc}
 800179c:	f042 0240 	orr.w	r2, r2, #64	; 0x40
 80017a0:	81a2      	strh	r2, [r4, #12]
 80017a2:	e8bd 81f0 	ldmia.w	sp!, {r4, r5, r6, r7, r8, pc}
 80017a6:	690e      	ldr	r6, [r1, #16]
 80017a8:	2e00      	cmp	r6, #0
 80017aa:	d0c3      	beq.n	8001734 <__sflush_r+0x4c>
 80017ac:	680b      	ldr	r3, [r1, #0]
 80017ae:	600e      	str	r6, [r1, #0]
 80017b0:	ebc6 0803 	rsb	r8, r6, r3
 80017b4:	0793      	lsls	r3, r2, #30
 80017b6:	bf0c      	ite	eq
 80017b8:	694b      	ldreq	r3, [r1, #20]
 80017ba:	2300      	movne	r3, #0
 80017bc:	608b      	str	r3, [r1, #8]
 80017be:	e012      	b.n	80017e6 <__sflush_r+0xfe>
 80017c0:	89a3      	ldrh	r3, [r4, #12]
 80017c2:	f04f 30ff 	mov.w	r0, #4294967295
 80017c6:	f043 0340 	orr.w	r3, r3, #64	; 0x40
 80017ca:	81a3      	strh	r3, [r4, #12]
 80017cc:	e8bd 81f0 	ldmia.w	sp!, {r4, r5, r6, r7, r8, pc}
 80017d0:	6aa7      	ldr	r7, [r4, #40]	; 0x28
 80017d2:	4628      	mov	r0, r5
 80017d4:	6a21      	ldr	r1, [r4, #32]
 80017d6:	4632      	mov	r2, r6
 80017d8:	4643      	mov	r3, r8
 80017da:	47b8      	blx	r7
 80017dc:	2800      	cmp	r0, #0
 80017de:	ddef      	ble.n	80017c0 <__sflush_r+0xd8>
 80017e0:	4406      	add	r6, r0
 80017e2:	ebc0 0808 	rsb	r8, r0, r8
 80017e6:	f1b8 0f00 	cmp.w	r8, #0
 80017ea:	dcf1      	bgt.n	80017d0 <__sflush_r+0xe8>
 80017ec:	e7a2      	b.n	8001734 <__sflush_r+0x4c>
	...

080017f0 <_fflush_r>:
 80017f0:	b538      	push	{r3, r4, r5, lr}
 80017f2:	690b      	ldr	r3, [r1, #16]
 80017f4:	4605      	mov	r5, r0
 80017f6:	460c      	mov	r4, r1
 80017f8:	b1db      	cbz	r3, 8001832 <_fflush_r+0x42>
 80017fa:	b118      	cbz	r0, 8001804 <_fflush_r+0x14>
 80017fc:	6983      	ldr	r3, [r0, #24]
 80017fe:	b90b      	cbnz	r3, 8001804 <_fflush_r+0x14>
 8001800:	f000 f886 	bl	8001910 <__sinit>
 8001804:	4b0c      	ldr	r3, [pc, #48]	; (8001838 <_fflush_r+0x48>)
 8001806:	429c      	cmp	r4, r3
 8001808:	d101      	bne.n	800180e <_fflush_r+0x1e>
 800180a:	686c      	ldr	r4, [r5, #4]
 800180c:	e008      	b.n	8001820 <_fflush_r+0x30>
 800180e:	4b0b      	ldr	r3, [pc, #44]	; (800183c <_fflush_r+0x4c>)
 8001810:	429c      	cmp	r4, r3
 8001812:	d101      	bne.n	8001818 <_fflush_r+0x28>
 8001814:	68ac      	ldr	r4, [r5, #8]
 8001816:	e003      	b.n	8001820 <_fflush_r+0x30>
 8001818:	4b09      	ldr	r3, [pc, #36]	; (8001840 <_fflush_r+0x50>)
 800181a:	429c      	cmp	r4, r3
 800181c:	bf08      	it	eq
 800181e:	68ec      	ldreq	r4, [r5, #12]
 8001820:	f9b4 300c 	ldrsh.w	r3, [r4, #12]
 8001824:	b12b      	cbz	r3, 8001832 <_fflush_r+0x42>
 8001826:	4628      	mov	r0, r5
 8001828:	4621      	mov	r1, r4
 800182a:	e8bd 4038 	ldmia.w	sp!, {r3, r4, r5, lr}
 800182e:	f7ff bf5b 	b.w	80016e8 <__sflush_r>
 8001832:	2000      	movs	r0, #0
 8001834:	bd38      	pop	{r3, r4, r5, pc}
 8001836:	bf00      	nop
 8001838:	08001f50 	stmdaeq	r0, {r4, r6, r8, r9, sl, fp, ip}
 800183c:	08001f70 	stmdaeq	r0, {r4, r5, r6, r8, r9, sl, fp, ip}
 8001840:	08001f90 	stmdaeq	r0, {r4, r7, r8, r9, sl, fp, ip}

08001844 <fflush>:
 8001844:	4601      	mov	r1, r0
 8001846:	b920      	cbnz	r0, 8001852 <fflush+0xe>
 8001848:	4b04      	ldr	r3, [pc, #16]	; (800185c <fflush+0x18>)
 800184a:	4905      	ldr	r1, [pc, #20]	; (8001860 <fflush+0x1c>)
 800184c:	6818      	ldr	r0, [r3, #0]
 800184e:	f000 b8e5 	b.w	8001a1c <_fwalk_reent>
 8001852:	4b04      	ldr	r3, [pc, #16]	; (8001864 <fflush+0x20>)
 8001854:	6818      	ldr	r0, [r3, #0]
 8001856:	f7ff bfcb 	b.w	80017f0 <_fflush_r>
 800185a:	bf00      	nop
 800185c:	08001f18 	stmdaeq	r0, {r3, r4, r8, r9, sl, fp, ip}
 8001860:	080017f1 	stmdaeq	r0, {r0, r4, r5, r6, r7, r8, r9, sl, ip}
 8001864:	20000088 	andcs	r0, r0, r8, lsl #1

08001868 <_cleanup_r>:
 8001868:	b5f8      	push	{r3, r4, r5, r6, r7, lr}
 800186a:	4607      	mov	r7, r0
 800186c:	f100 0448 	add.w	r4, r0, #72	; 0x48
 8001870:	b194      	cbz	r4, 8001898 <_cleanup_r+0x30>
 8001872:	68a5      	ldr	r5, [r4, #8]
 8001874:	6866      	ldr	r6, [r4, #4]
 8001876:	3e01      	subs	r6, #1
 8001878:	d40c      	bmi.n	8001894 <_cleanup_r+0x2c>
 800187a:	89ab      	ldrh	r3, [r5, #12]
 800187c:	2b01      	cmp	r3, #1
 800187e:	d907      	bls.n	8001890 <_cleanup_r+0x28>
 8001880:	f9b5 300e 	ldrsh.w	r3, [r5, #14]
 8001884:	3301      	adds	r3, #1
 8001886:	d003      	beq.n	8001890 <_cleanup_r+0x28>
 8001888:	4638      	mov	r0, r7
 800188a:	4629      	mov	r1, r5
 800188c:	f7ff ffb0 	bl	80017f0 <_fflush_r>
 8001890:	3568      	adds	r5, #104	; 0x68
 8001892:	e7f0      	b.n	8001876 <_cleanup_r+0xe>
 8001894:	6824      	ldr	r4, [r4, #0]
 8001896:	e7eb      	b.n	8001870 <_cleanup_r+0x8>
 8001898:	bdf8      	pop	{r3, r4, r5, r6, r7, pc}
	...

0800189c <std.isra.0>:
 800189c:	2300      	movs	r3, #0
 800189e:	b510      	push	{r4, lr}
 80018a0:	4604      	mov	r4, r0
 80018a2:	6003      	str	r3, [r0, #0]
 80018a4:	6043      	str	r3, [r0, #4]
 80018a6:	6083      	str	r3, [r0, #8]
 80018a8:	8181      	strh	r1, [r0, #12]
 80018aa:	6643      	str	r3, [r0, #100]	; 0x64
 80018ac:	81c2      	strh	r2, [r0, #14]
 80018ae:	6103      	str	r3, [r0, #16]
 80018b0:	6143      	str	r3, [r0, #20]
 80018b2:	6183      	str	r3, [r0, #24]
 80018b4:	4619      	mov	r1, r3
 80018b6:	305c      	adds	r0, #92	; 0x5c
 80018b8:	2208      	movs	r2, #8
 80018ba:	f000 f92f 	bl	8001b1c <memset>
 80018be:	4b05      	ldr	r3, [pc, #20]	; (80018d4 <std.isra.0+0x38>)
 80018c0:	6224      	str	r4, [r4, #32]
 80018c2:	6263      	str	r3, [r4, #36]	; 0x24
 80018c4:	4b04      	ldr	r3, [pc, #16]	; (80018d8 <std.isra.0+0x3c>)
 80018c6:	62a3      	str	r3, [r4, #40]	; 0x28
 80018c8:	4b04      	ldr	r3, [pc, #16]	; (80018dc <std.isra.0+0x40>)
 80018ca:	62e3      	str	r3, [r4, #44]	; 0x2c
 80018cc:	4b04      	ldr	r3, [pc, #16]	; (80018e0 <std.isra.0+0x44>)
 80018ce:	6323      	str	r3, [r4, #48]	; 0x30
 80018d0:	bd10      	pop	{r4, pc}
 80018d2:	bf00      	nop
 80018d4:	08001d9d 	stmdaeq	r0, {r0, r2, r3, r4, r7, r8, sl, fp, ip}
 80018d8:	08001dbf 	stmdaeq	r0, {r0, r1, r2, r3, r4, r5, r7, r8, sl, fp, ip}
 80018dc:	08001df7 	stmdaeq	r0, {r0, r1, r2, r4, r5, r6, r7, r8, sl, fp, ip}
 80018e0:	08001e1b 	stmdaeq	r0, {r0, r1, r3, r4, r9, sl, fp, ip}

080018e4 <__sfmoreglue>:
 80018e4:	b570      	push	{r4, r5, r6, lr}
 80018e6:	1e4b      	subs	r3, r1, #1
 80018e8:	2568      	movs	r5, #104	; 0x68
 80018ea:	435d      	muls	r5, r3
 80018ec:	460e      	mov	r6, r1
 80018ee:	f105 0174 	add.w	r1, r5, #116	; 0x74
 80018f2:	f000 f95f 	bl	8001bb4 <_malloc_r>
 80018f6:	4604      	mov	r4, r0
 80018f8:	b140      	cbz	r0, 800190c <__sfmoreglue+0x28>
 80018fa:	2100      	movs	r1, #0
 80018fc:	e880 0042 	stmia.w	r0, {r1, r6}
 8001900:	300c      	adds	r0, #12
 8001902:	60a0      	str	r0, [r4, #8]
 8001904:	f105 0268 	add.w	r2, r5, #104	; 0x68
 8001908:	f000 f908 	bl	8001b1c <memset>
 800190c:	4620      	mov	r0, r4
 800190e:	bd70      	pop	{r4, r5, r6, pc}

08001910 <__sinit>:
 8001910:	6983      	ldr	r3, [r0, #24]
 8001912:	b510      	push	{r4, lr}
 8001914:	4604      	mov	r4, r0
 8001916:	bb33      	cbnz	r3, 8001966 <__sinit+0x56>
 8001918:	6483      	str	r3, [r0, #72]	; 0x48
 800191a:	64c3      	str	r3, [r0, #76]	; 0x4c
 800191c:	6503      	str	r3, [r0, #80]	; 0x50
 800191e:	4b12      	ldr	r3, [pc, #72]	; (8001968 <__sinit+0x58>)
 8001920:	4a12      	ldr	r2, [pc, #72]	; (800196c <__sinit+0x5c>)
 8001922:	681b      	ldr	r3, [r3, #0]
 8001924:	6282      	str	r2, [r0, #40]	; 0x28
 8001926:	4298      	cmp	r0, r3
 8001928:	bf04      	itt	eq
 800192a:	2301      	moveq	r3, #1
 800192c:	6183      	streq	r3, [r0, #24]
 800192e:	f000 f81f 	bl	8001970 <__sfp>
 8001932:	6060      	str	r0, [r4, #4]
 8001934:	4620      	mov	r0, r4
 8001936:	f000 f81b 	bl	8001970 <__sfp>
 800193a:	60a0      	str	r0, [r4, #8]
 800193c:	4620      	mov	r0, r4
 800193e:	f000 f817 	bl	8001970 <__sfp>
 8001942:	2104      	movs	r1, #4
 8001944:	60e0      	str	r0, [r4, #12]
 8001946:	2200      	movs	r2, #0
 8001948:	6860      	ldr	r0, [r4, #4]
 800194a:	f7ff ffa7 	bl	800189c <std.isra.0>
 800194e:	68a0      	ldr	r0, [r4, #8]
 8001950:	2109      	movs	r1, #9
 8001952:	2201      	movs	r2, #1
 8001954:	f7ff ffa2 	bl	800189c <std.isra.0>
 8001958:	68e0      	ldr	r0, [r4, #12]
 800195a:	2112      	movs	r1, #18
 800195c:	2202      	movs	r2, #2
 800195e:	f7ff ff9d 	bl	800189c <std.isra.0>
 8001962:	2301      	movs	r3, #1
 8001964:	61a3      	str	r3, [r4, #24]
 8001966:	bd10      	pop	{r4, pc}
 8001968:	08001f18 	stmdaeq	r0, {r3, r4, r8, r9, sl, fp, ip}
 800196c:	08001869 	stmdaeq	r0, {r0, r3, r5, r6, fp, ip}

08001970 <__sfp>:
 8001970:	b5f8      	push	{r3, r4, r5, r6, r7, lr}
 8001972:	4b1b      	ldr	r3, [pc, #108]	; (80019e0 <__sfp+0x70>)
 8001974:	4607      	mov	r7, r0
 8001976:	681e      	ldr	r6, [r3, #0]
 8001978:	69b3      	ldr	r3, [r6, #24]
 800197a:	b913      	cbnz	r3, 8001982 <__sfp+0x12>
 800197c:	4630      	mov	r0, r6
 800197e:	f7ff ffc7 	bl	8001910 <__sinit>
 8001982:	3648      	adds	r6, #72	; 0x48
 8001984:	68b4      	ldr	r4, [r6, #8]
 8001986:	6873      	ldr	r3, [r6, #4]
 8001988:	3b01      	subs	r3, #1
 800198a:	d404      	bmi.n	8001996 <__sfp+0x26>
 800198c:	f9b4 500c 	ldrsh.w	r5, [r4, #12]
 8001990:	b175      	cbz	r5, 80019b0 <__sfp+0x40>
 8001992:	3468      	adds	r4, #104	; 0x68
 8001994:	e7f8      	b.n	8001988 <__sfp+0x18>
 8001996:	6833      	ldr	r3, [r6, #0]
 8001998:	b92b      	cbnz	r3, 80019a6 <__sfp+0x36>
 800199a:	4638      	mov	r0, r7
 800199c:	2104      	movs	r1, #4
 800199e:	f7ff ffa1 	bl	80018e4 <__sfmoreglue>
 80019a2:	6030      	str	r0, [r6, #0]
 80019a4:	b108      	cbz	r0, 80019aa <__sfp+0x3a>
 80019a6:	6836      	ldr	r6, [r6, #0]
 80019a8:	e7ec      	b.n	8001984 <__sfp+0x14>
 80019aa:	230c      	movs	r3, #12
 80019ac:	603b      	str	r3, [r7, #0]
 80019ae:	bdf8      	pop	{r3, r4, r5, r6, r7, pc}
 80019b0:	f64f 73ff 	movw	r3, #65535	; 0xffff
 80019b4:	81e3      	strh	r3, [r4, #14]
 80019b6:	2301      	movs	r3, #1
 80019b8:	81a3      	strh	r3, [r4, #12]
 80019ba:	6665      	str	r5, [r4, #100]	; 0x64
 80019bc:	6025      	str	r5, [r4, #0]
 80019be:	60a5      	str	r5, [r4, #8]
 80019c0:	6065      	str	r5, [r4, #4]
 80019c2:	6125      	str	r5, [r4, #16]
 80019c4:	6165      	str	r5, [r4, #20]
 80019c6:	61a5      	str	r5, [r4, #24]
 80019c8:	f104 005c 	add.w	r0, r4, #92	; 0x5c
 80019cc:	4629      	mov	r1, r5
 80019ce:	2208      	movs	r2, #8
 80019d0:	f000 f8a4 	bl	8001b1c <memset>
 80019d4:	6365      	str	r5, [r4, #52]	; 0x34
 80019d6:	63a5      	str	r5, [r4, #56]	; 0x38
 80019d8:	64a5      	str	r5, [r4, #72]	; 0x48
 80019da:	64e5      	str	r5, [r4, #76]	; 0x4c
 80019dc:	4620      	mov	r0, r4
 80019de:	bdf8      	pop	{r3, r4, r5, r6, r7, pc}
 80019e0:	08001f18 	stmdaeq	r0, {r3, r4, r8, r9, sl, fp, ip}

080019e4 <_fwalk>:
 80019e4:	e92d 41f0 	stmdb	sp!, {r4, r5, r6, r7, r8, lr}
 80019e8:	4688      	mov	r8, r1
 80019ea:	f100 0448 	add.w	r4, r0, #72	; 0x48
 80019ee:	2600      	movs	r6, #0
 80019f0:	b18c      	cbz	r4, 8001a16 <_fwalk+0x32>
 80019f2:	68a5      	ldr	r5, [r4, #8]
 80019f4:	6867      	ldr	r7, [r4, #4]
 80019f6:	3f01      	subs	r7, #1
 80019f8:	d40b      	bmi.n	8001a12 <_fwalk+0x2e>
 80019fa:	89ab      	ldrh	r3, [r5, #12]
 80019fc:	2b01      	cmp	r3, #1
 80019fe:	d906      	bls.n	8001a0e <_fwalk+0x2a>
 8001a00:	f9b5 300e 	ldrsh.w	r3, [r5, #14]
 8001a04:	3301      	adds	r3, #1
 8001a06:	d002      	beq.n	8001a0e <_fwalk+0x2a>
 8001a08:	4628      	mov	r0, r5
 8001a0a:	47c0      	blx	r8
 8001a0c:	4306      	orrs	r6, r0
 8001a0e:	3568      	adds	r5, #104	; 0x68
 8001a10:	e7f1      	b.n	80019f6 <_fwalk+0x12>
 8001a12:	6824      	ldr	r4, [r4, #0]
 8001a14:	e7ec      	b.n	80019f0 <_fwalk+0xc>
 8001a16:	4630      	mov	r0, r6
 8001a18:	e8bd 81f0 	ldmia.w	sp!, {r4, r5, r6, r7, r8, pc}

08001a1c <_fwalk_reent>:
 8001a1c:	e92d 43f8 	stmdb	sp!, {r3, r4, r5, r6, r7, r8, r9, lr}
 8001a20:	4680      	mov	r8, r0
 8001a22:	4689      	mov	r9, r1
 8001a24:	f100 0448 	add.w	r4, r0, #72	; 0x48
 8001a28:	2600      	movs	r6, #0
 8001a2a:	b194      	cbz	r4, 8001a52 <_fwalk_reent+0x36>
 8001a2c:	68a5      	ldr	r5, [r4, #8]
 8001a2e:	6867      	ldr	r7, [r4, #4]
 8001a30:	3f01      	subs	r7, #1
 8001a32:	d40c      	bmi.n	8001a4e <_fwalk_reent+0x32>
 8001a34:	89ab      	ldrh	r3, [r5, #12]
 8001a36:	2b01      	cmp	r3, #1
 8001a38:	d907      	bls.n	8001a4a <_fwalk_reent+0x2e>
 8001a3a:	f9b5 300e 	ldrsh.w	r3, [r5, #14]
 8001a3e:	3301      	adds	r3, #1
 8001a40:	d003      	beq.n	8001a4a <_fwalk_reent+0x2e>
 8001a42:	4640      	mov	r0, r8
 8001a44:	4629      	mov	r1, r5
 8001a46:	47c8      	blx	r9
 8001a48:	4306      	orrs	r6, r0
 8001a4a:	3568      	adds	r5, #104	; 0x68
 8001a4c:	e7f0      	b.n	8001a30 <_fwalk_reent+0x14>
 8001a4e:	6824      	ldr	r4, [r4, #0]
 8001a50:	e7eb      	b.n	8001a2a <_fwalk_reent+0xe>
 8001a52:	4630      	mov	r0, r6
 8001a54:	e8bd 83f8 	ldmia.w	sp!, {r3, r4, r5, r6, r7, r8, r9, pc}

08001a58 <__smakebuf_r>:
 8001a58:	b5f0      	push	{r4, r5, r6, r7, lr}
 8001a5a:	898b      	ldrh	r3, [r1, #12]
 8001a5c:	b091      	sub	sp, #68	; 0x44
 8001a5e:	079e      	lsls	r6, r3, #30
 8001a60:	4605      	mov	r5, r0
 8001a62:	460c      	mov	r4, r1
 8001a64:	d425      	bmi.n	8001ab2 <__smakebuf_r+0x5a>
 8001a66:	f9b1 100e 	ldrsh.w	r1, [r1, #14]
 8001a6a:	2900      	cmp	r1, #0
 8001a6c:	da08      	bge.n	8001a80 <__smakebuf_r+0x28>
 8001a6e:	89a3      	ldrh	r3, [r4, #12]
 8001a70:	2700      	movs	r7, #0
 8001a72:	f013 0f80 	tst.w	r3, #128	; 0x80
 8001a76:	bf14      	ite	ne
 8001a78:	2640      	movne	r6, #64	; 0x40
 8001a7a:	f44f 6680 	moveq.w	r6, #1024	; 0x400
 8001a7e:	e00d      	b.n	8001a9c <__smakebuf_r+0x44>
 8001a80:	aa01      	add	r2, sp, #4
 8001a82:	f000 f9f9 	bl	8001e78 <_fstat_r>
 8001a86:	2800      	cmp	r0, #0
 8001a88:	dbf1      	blt.n	8001a6e <__smakebuf_r+0x16>
 8001a8a:	9f02      	ldr	r7, [sp, #8]
 8001a8c:	f44f 6680 	mov.w	r6, #1024	; 0x400
 8001a90:	f407 4770 	and.w	r7, r7, #61440	; 0xf000
 8001a94:	f5b7 5100 	subs.w	r1, r7, #8192	; 0x2000
 8001a98:	424f      	negs	r7, r1
 8001a9a:	414f      	adcs	r7, r1
 8001a9c:	4628      	mov	r0, r5
 8001a9e:	4631      	mov	r1, r6
 8001aa0:	f000 f888 	bl	8001bb4 <_malloc_r>
 8001aa4:	b960      	cbnz	r0, 8001ac0 <__smakebuf_r+0x68>
 8001aa6:	89a3      	ldrh	r3, [r4, #12]
 8001aa8:	059a      	lsls	r2, r3, #22
 8001aaa:	d41d      	bmi.n	8001ae8 <__smakebuf_r+0x90>
 8001aac:	f043 0302 	orr.w	r3, r3, #2
 8001ab0:	81a3      	strh	r3, [r4, #12]
 8001ab2:	f104 0347 	add.w	r3, r4, #71	; 0x47
 8001ab6:	6023      	str	r3, [r4, #0]
 8001ab8:	6123      	str	r3, [r4, #16]
 8001aba:	2301      	movs	r3, #1
 8001abc:	6163      	str	r3, [r4, #20]
 8001abe:	e013      	b.n	8001ae8 <__smakebuf_r+0x90>
 8001ac0:	4b0a      	ldr	r3, [pc, #40]	; (8001aec <__smakebuf_r+0x94>)
 8001ac2:	62ab      	str	r3, [r5, #40]	; 0x28
 8001ac4:	89a3      	ldrh	r3, [r4, #12]
 8001ac6:	6020      	str	r0, [r4, #0]
 8001ac8:	f043 0380 	orr.w	r3, r3, #128	; 0x80
 8001acc:	81a3      	strh	r3, [r4, #12]
 8001ace:	6120      	str	r0, [r4, #16]
 8001ad0:	6166      	str	r6, [r4, #20]
 8001ad2:	b14f      	cbz	r7, 8001ae8 <__smakebuf_r+0x90>
 8001ad4:	4628      	mov	r0, r5
 8001ad6:	f9b4 100e 	ldrsh.w	r1, [r4, #14]
 8001ada:	f000 f9df 	bl	8001e9c <_isatty_r>
 8001ade:	b118      	cbz	r0, 8001ae8 <__smakebuf_r+0x90>
 8001ae0:	89a3      	ldrh	r3, [r4, #12]
 8001ae2:	f043 0301 	orr.w	r3, r3, #1
 8001ae6:	81a3      	strh	r3, [r4, #12]
 8001ae8:	b011      	add	sp, #68	; 0x44
 8001aea:	bdf0      	pop	{r4, r5, r6, r7, pc}
 8001aec:	08001869 	stmdaeq	r0, {r0, r3, r5, r6, fp, ip}

08001af0 <malloc>:
 8001af0:	4b02      	ldr	r3, [pc, #8]	; (8001afc <malloc+0xc>)
 8001af2:	4601      	mov	r1, r0
 8001af4:	6818      	ldr	r0, [r3, #0]
 8001af6:	f000 b85d 	b.w	8001bb4 <_malloc_r>
 8001afa:	bf00      	nop
 8001afc:	20000088 	andcs	r0, r0, r8, lsl #1

08001b00 <memchr>:
 8001b00:	b510      	push	{r4, lr}
 8001b02:	b2c9      	uxtb	r1, r1
 8001b04:	4402      	add	r2, r0
 8001b06:	4290      	cmp	r0, r2
 8001b08:	4603      	mov	r3, r0
 8001b0a:	d005      	beq.n	8001b18 <memchr+0x18>
 8001b0c:	781c      	ldrb	r4, [r3, #0]
 8001b0e:	3001      	adds	r0, #1
 8001b10:	428c      	cmp	r4, r1
 8001b12:	d1f8      	bne.n	8001b06 <memchr+0x6>
 8001b14:	4618      	mov	r0, r3
 8001b16:	bd10      	pop	{r4, pc}
 8001b18:	2000      	movs	r0, #0
 8001b1a:	bd10      	pop	{r4, pc}

08001b1c <memset>:
 8001b1c:	4402      	add	r2, r0
 8001b1e:	4603      	mov	r3, r0
 8001b20:	4293      	cmp	r3, r2
 8001b22:	d002      	beq.n	8001b2a <memset+0xe>
 8001b24:	f803 1b01 	strb.w	r1, [r3], #1
 8001b28:	e7fa      	b.n	8001b20 <memset+0x4>
 8001b2a:	4770      	bx	lr

08001b2c <_free_r>:
 8001b2c:	b530      	push	{r4, r5, lr}
 8001b2e:	2900      	cmp	r1, #0
 8001b30:	d03c      	beq.n	8001bac <_free_r+0x80>
 8001b32:	f851 2c04 	ldr.w	r2, [r1, #-4]
 8001b36:	1f0b      	subs	r3, r1, #4
 8001b38:	491d      	ldr	r1, [pc, #116]	; (8001bb0 <_free_r+0x84>)
 8001b3a:	2a00      	cmp	r2, #0
 8001b3c:	bfb8      	it	lt
 8001b3e:	189b      	addlt	r3, r3, r2
 8001b40:	680a      	ldr	r2, [r1, #0]
 8001b42:	460c      	mov	r4, r1
 8001b44:	b912      	cbnz	r2, 8001b4c <_free_r+0x20>
 8001b46:	605a      	str	r2, [r3, #4]
 8001b48:	600b      	str	r3, [r1, #0]
 8001b4a:	bd30      	pop	{r4, r5, pc}
 8001b4c:	4293      	cmp	r3, r2
 8001b4e:	d20d      	bcs.n	8001b6c <_free_r+0x40>
 8001b50:	6819      	ldr	r1, [r3, #0]
 8001b52:	1858      	adds	r0, r3, r1
 8001b54:	4290      	cmp	r0, r2
 8001b56:	d103      	bne.n	8001b60 <_free_r+0x34>
 8001b58:	585a      	ldr	r2, [r3, r1]
 8001b5a:	4411      	add	r1, r2
 8001b5c:	6842      	ldr	r2, [r0, #4]
 8001b5e:	6019      	str	r1, [r3, #0]
 8001b60:	605a      	str	r2, [r3, #4]
 8001b62:	6023      	str	r3, [r4, #0]
 8001b64:	bd30      	pop	{r4, r5, pc}
 8001b66:	4299      	cmp	r1, r3
 8001b68:	d803      	bhi.n	8001b72 <_free_r+0x46>
 8001b6a:	460a      	mov	r2, r1
 8001b6c:	6851      	ldr	r1, [r2, #4]
 8001b6e:	2900      	cmp	r1, #0
 8001b70:	d1f9      	bne.n	8001b66 <_free_r+0x3a>
 8001b72:	6814      	ldr	r4, [r2, #0]
 8001b74:	1915      	adds	r5, r2, r4
 8001b76:	429d      	cmp	r5, r3
 8001b78:	d10a      	bne.n	8001b90 <_free_r+0x64>
 8001b7a:	681b      	ldr	r3, [r3, #0]
 8001b7c:	4423      	add	r3, r4
 8001b7e:	18d0      	adds	r0, r2, r3
 8001b80:	4288      	cmp	r0, r1
 8001b82:	6013      	str	r3, [r2, #0]
 8001b84:	d112      	bne.n	8001bac <_free_r+0x80>
 8001b86:	6808      	ldr	r0, [r1, #0]
 8001b88:	4403      	add	r3, r0
 8001b8a:	6013      	str	r3, [r2, #0]
 8001b8c:	684b      	ldr	r3, [r1, #4]
 8001b8e:	e00c      	b.n	8001baa <_free_r+0x7e>
 8001b90:	d902      	bls.n	8001b98 <_free_r+0x6c>
 8001b92:	230c      	movs	r3, #12
 8001b94:	6003      	str	r3, [r0, #0]
 8001b96:	bd30      	pop	{r4, r5, pc}
 8001b98:	6818      	ldr	r0, [r3, #0]
 8001b9a:	181c      	adds	r4, r3, r0
 8001b9c:	428c      	cmp	r4, r1
 8001b9e:	d103      	bne.n	8001ba8 <_free_r+0x7c>
 8001ba0:	680c      	ldr	r4, [r1, #0]
 8001ba2:	6849      	ldr	r1, [r1, #4]
 8001ba4:	4420      	add	r0, r4
 8001ba6:	6018      	str	r0, [r3, #0]
 8001ba8:	6059      	str	r1, [r3, #4]
 8001baa:	6053      	str	r3, [r2, #4]
 8001bac:	bd30      	pop	{r4, r5, pc}
 8001bae:	bf00      	nop
 8001bb0:	2000009c 	mulcs	r0, ip, r0

08001bb4 <_malloc_r>:
 8001bb4:	b570      	push	{r4, r5, r6, lr}
 8001bb6:	1ccd      	adds	r5, r1, #3
 8001bb8:	f025 0503 	bic.w	r5, r5, #3
 8001bbc:	3508      	adds	r5, #8
 8001bbe:	2d0c      	cmp	r5, #12
 8001bc0:	bf38      	it	cc
 8001bc2:	250c      	movcc	r5, #12
 8001bc4:	2d00      	cmp	r5, #0
 8001bc6:	4606      	mov	r6, r0
 8001bc8:	db3f      	blt.n	8001c4a <_malloc_r+0x96>
 8001bca:	428d      	cmp	r5, r1
 8001bcc:	d33d      	bcc.n	8001c4a <_malloc_r+0x96>
 8001bce:	4b21      	ldr	r3, [pc, #132]	; (8001c54 <_malloc_r+0xa0>)
 8001bd0:	681c      	ldr	r4, [r3, #0]
 8001bd2:	4618      	mov	r0, r3
 8001bd4:	4621      	mov	r1, r4
 8001bd6:	b1a1      	cbz	r1, 8001c02 <_malloc_r+0x4e>
 8001bd8:	680b      	ldr	r3, [r1, #0]
 8001bda:	1b5b      	subs	r3, r3, r5
 8001bdc:	d40e      	bmi.n	8001bfc <_malloc_r+0x48>
 8001bde:	2b0b      	cmp	r3, #11
 8001be0:	d903      	bls.n	8001bea <_malloc_r+0x36>
 8001be2:	600b      	str	r3, [r1, #0]
 8001be4:	18cc      	adds	r4, r1, r3
 8001be6:	50cd      	str	r5, [r1, r3]
 8001be8:	e01f      	b.n	8001c2a <_malloc_r+0x76>
 8001bea:	428c      	cmp	r4, r1
 8001bec:	d102      	bne.n	8001bf4 <_malloc_r+0x40>
 8001bee:	6862      	ldr	r2, [r4, #4]
 8001bf0:	6002      	str	r2, [r0, #0]
 8001bf2:	e01a      	b.n	8001c2a <_malloc_r+0x76>
 8001bf4:	684b      	ldr	r3, [r1, #4]
 8001bf6:	6063      	str	r3, [r4, #4]
 8001bf8:	460c      	mov	r4, r1
 8001bfa:	e016      	b.n	8001c2a <_malloc_r+0x76>
 8001bfc:	460c      	mov	r4, r1
 8001bfe:	6849      	ldr	r1, [r1, #4]
 8001c00:	e7e9      	b.n	8001bd6 <_malloc_r+0x22>
 8001c02:	4c15      	ldr	r4, [pc, #84]	; (8001c58 <_malloc_r+0xa4>)
 8001c04:	6823      	ldr	r3, [r4, #0]
 8001c06:	b91b      	cbnz	r3, 8001c10 <_malloc_r+0x5c>
 8001c08:	4630      	mov	r0, r6
 8001c0a:	f000 f8b7 	bl	8001d7c <_sbrk_r>
 8001c0e:	6020      	str	r0, [r4, #0]
 8001c10:	4629      	mov	r1, r5
 8001c12:	4630      	mov	r0, r6
 8001c14:	f000 f8b2 	bl	8001d7c <_sbrk_r>
 8001c18:	1c43      	adds	r3, r0, #1
 8001c1a:	4601      	mov	r1, r0
 8001c1c:	d015      	beq.n	8001c4a <_malloc_r+0x96>
 8001c1e:	1cc4      	adds	r4, r0, #3
 8001c20:	f024 0403 	bic.w	r4, r4, #3
 8001c24:	4284      	cmp	r4, r0
 8001c26:	d10a      	bne.n	8001c3e <_malloc_r+0x8a>
 8001c28:	6025      	str	r5, [r4, #0]
 8001c2a:	f104 000b 	add.w	r0, r4, #11
 8001c2e:	1d23      	adds	r3, r4, #4
 8001c30:	f020 0007 	bic.w	r0, r0, #7
 8001c34:	1ac3      	subs	r3, r0, r3
 8001c36:	d00b      	beq.n	8001c50 <_malloc_r+0x9c>
 8001c38:	425a      	negs	r2, r3
 8001c3a:	50e2      	str	r2, [r4, r3]
 8001c3c:	bd70      	pop	{r4, r5, r6, pc}
 8001c3e:	4630      	mov	r0, r6
 8001c40:	1a61      	subs	r1, r4, r1
 8001c42:	f000 f89b 	bl	8001d7c <_sbrk_r>
 8001c46:	3001      	adds	r0, #1
 8001c48:	d1ee      	bne.n	8001c28 <_malloc_r+0x74>
 8001c4a:	230c      	movs	r3, #12
 8001c4c:	6033      	str	r3, [r6, #0]
 8001c4e:	2000      	movs	r0, #0
 8001c50:	bd70      	pop	{r4, r5, r6, pc}
 8001c52:	bf00      	nop
 8001c54:	2000009c 	mulcs	r0, ip, r0
 8001c58:	20000098 	mulcs	r0, r8, r0

08001c5c <lflush>:
 8001c5c:	8983      	ldrh	r3, [r0, #12]
 8001c5e:	f003 0309 	and.w	r3, r3, #9
 8001c62:	2b09      	cmp	r3, #9
 8001c64:	d101      	bne.n	8001c6a <lflush+0xe>
 8001c66:	f7ff bded 	b.w	8001844 <fflush>
 8001c6a:	2000      	movs	r0, #0
 8001c6c:	4770      	bx	lr
	...

08001c70 <__srefill_r>:
 8001c70:	b5f8      	push	{r3, r4, r5, r6, r7, lr}
 8001c72:	460c      	mov	r4, r1
 8001c74:	4605      	mov	r5, r0
 8001c76:	b118      	cbz	r0, 8001c80 <__srefill_r+0x10>
 8001c78:	6983      	ldr	r3, [r0, #24]
 8001c7a:	b90b      	cbnz	r3, 8001c80 <__srefill_r+0x10>
 8001c7c:	f7ff fe48 	bl	8001910 <__sinit>
 8001c80:	4b39      	ldr	r3, [pc, #228]	; (8001d68 <__srefill_r+0xf8>)
 8001c82:	429c      	cmp	r4, r3
 8001c84:	d101      	bne.n	8001c8a <__srefill_r+0x1a>
 8001c86:	686c      	ldr	r4, [r5, #4]
 8001c88:	e008      	b.n	8001c9c <__srefill_r+0x2c>
 8001c8a:	4b38      	ldr	r3, [pc, #224]	; (8001d6c <__srefill_r+0xfc>)
 8001c8c:	429c      	cmp	r4, r3
 8001c8e:	d101      	bne.n	8001c94 <__srefill_r+0x24>
 8001c90:	68ac      	ldr	r4, [r5, #8]
 8001c92:	e003      	b.n	8001c9c <__srefill_r+0x2c>
 8001c94:	4b36      	ldr	r3, [pc, #216]	; (8001d70 <__srefill_r+0x100>)
 8001c96:	429c      	cmp	r4, r3
 8001c98:	bf08      	it	eq
 8001c9a:	68ec      	ldreq	r4, [r5, #12]
 8001c9c:	89a2      	ldrh	r2, [r4, #12]
 8001c9e:	2300      	movs	r3, #0
 8001ca0:	6063      	str	r3, [r4, #4]
 8001ca2:	b293      	uxth	r3, r2
 8001ca4:	069e      	lsls	r6, r3, #26
 8001ca6:	d45a      	bmi.n	8001d5e <__srefill_r+0xee>
 8001ca8:	0758      	lsls	r0, r3, #29
 8001caa:	d41a      	bmi.n	8001ce2 <__srefill_r+0x72>
 8001cac:	06d9      	lsls	r1, r3, #27
 8001cae:	d405      	bmi.n	8001cbc <__srefill_r+0x4c>
 8001cb0:	2309      	movs	r3, #9
 8001cb2:	f042 0240 	orr.w	r2, r2, #64	; 0x40
 8001cb6:	602b      	str	r3, [r5, #0]
 8001cb8:	81a2      	strh	r2, [r4, #12]
 8001cba:	e050      	b.n	8001d5e <__srefill_r+0xee>
 8001cbc:	071a      	lsls	r2, r3, #28
 8001cbe:	d50b      	bpl.n	8001cd8 <__srefill_r+0x68>
 8001cc0:	4628      	mov	r0, r5
 8001cc2:	4621      	mov	r1, r4
 8001cc4:	f7ff fd94 	bl	80017f0 <_fflush_r>
 8001cc8:	2800      	cmp	r0, #0
 8001cca:	d148      	bne.n	8001d5e <__srefill_r+0xee>
 8001ccc:	89a3      	ldrh	r3, [r4, #12]
 8001cce:	60a0      	str	r0, [r4, #8]
 8001cd0:	f023 0308 	bic.w	r3, r3, #8
 8001cd4:	81a3      	strh	r3, [r4, #12]
 8001cd6:	61a0      	str	r0, [r4, #24]
 8001cd8:	89a3      	ldrh	r3, [r4, #12]
 8001cda:	f043 0304 	orr.w	r3, r3, #4
 8001cde:	81a3      	strh	r3, [r4, #12]
 8001ce0:	e010      	b.n	8001d04 <__srefill_r+0x94>
 8001ce2:	6b61      	ldr	r1, [r4, #52]	; 0x34
 8001ce4:	b171      	cbz	r1, 8001d04 <__srefill_r+0x94>
 8001ce6:	f104 0344 	add.w	r3, r4, #68	; 0x44
 8001cea:	4299      	cmp	r1, r3
 8001cec:	d002      	beq.n	8001cf4 <__srefill_r+0x84>
 8001cee:	4628      	mov	r0, r5
 8001cf0:	f7ff ff1c 	bl	8001b2c <_free_r>
 8001cf4:	6c23      	ldr	r3, [r4, #64]	; 0x40
 8001cf6:	2000      	movs	r0, #0
 8001cf8:	6360      	str	r0, [r4, #52]	; 0x34
 8001cfa:	6063      	str	r3, [r4, #4]
 8001cfc:	b113      	cbz	r3, 8001d04 <__srefill_r+0x94>
 8001cfe:	6be3      	ldr	r3, [r4, #60]	; 0x3c
 8001d00:	6023      	str	r3, [r4, #0]
 8001d02:	bdf8      	pop	{r3, r4, r5, r6, r7, pc}
 8001d04:	6923      	ldr	r3, [r4, #16]
 8001d06:	b91b      	cbnz	r3, 8001d10 <__srefill_r+0xa0>
 8001d08:	4628      	mov	r0, r5
 8001d0a:	4621      	mov	r1, r4
 8001d0c:	f7ff fea4 	bl	8001a58 <__smakebuf_r>
 8001d10:	89a7      	ldrh	r7, [r4, #12]
 8001d12:	b2be      	uxth	r6, r7
 8001d14:	07b3      	lsls	r3, r6, #30
 8001d16:	d00f      	beq.n	8001d38 <__srefill_r+0xc8>
 8001d18:	2301      	movs	r3, #1
 8001d1a:	81a3      	strh	r3, [r4, #12]
 8001d1c:	4b15      	ldr	r3, [pc, #84]	; (8001d74 <__srefill_r+0x104>)
 8001d1e:	4916      	ldr	r1, [pc, #88]	; (8001d78 <__srefill_r+0x108>)
 8001d20:	6818      	ldr	r0, [r3, #0]
 8001d22:	f006 0609 	and.w	r6, r6, #9
 8001d26:	f7ff fe5d 	bl	80019e4 <_fwalk>
 8001d2a:	2e09      	cmp	r6, #9
 8001d2c:	81a7      	strh	r7, [r4, #12]
 8001d2e:	d103      	bne.n	8001d38 <__srefill_r+0xc8>
 8001d30:	4628      	mov	r0, r5
 8001d32:	4621      	mov	r1, r4
 8001d34:	f7ff fcd8 	bl	80016e8 <__sflush_r>
 8001d38:	6922      	ldr	r2, [r4, #16]
 8001d3a:	6a66      	ldr	r6, [r4, #36]	; 0x24
 8001d3c:	6022      	str	r2, [r4, #0]
 8001d3e:	4628      	mov	r0, r5
 8001d40:	6a21      	ldr	r1, [r4, #32]
 8001d42:	6963      	ldr	r3, [r4, #20]
 8001d44:	47b0      	blx	r6
 8001d46:	2800      	cmp	r0, #0
 8001d48:	6060      	str	r0, [r4, #4]
 8001d4a:	dc0b      	bgt.n	8001d64 <__srefill_r+0xf4>
 8001d4c:	89a3      	ldrh	r3, [r4, #12]
 8001d4e:	bf17      	itett	ne
 8001d50:	2200      	movne	r2, #0
 8001d52:	f043 0320 	orreq.w	r3, r3, #32
 8001d56:	f043 0340 	orrne.w	r3, r3, #64	; 0x40
 8001d5a:	6062      	strne	r2, [r4, #4]
 8001d5c:	81a3      	strh	r3, [r4, #12]
 8001d5e:	f04f 30ff 	mov.w	r0, #4294967295
 8001d62:	bdf8      	pop	{r3, r4, r5, r6, r7, pc}
 8001d64:	2000      	movs	r0, #0
 8001d66:	bdf8      	pop	{r3, r4, r5, r6, r7, pc}
 8001d68:	08001f50 	stmdaeq	r0, {r4, r6, r8, r9, sl, fp, ip}
 8001d6c:	08001f70 	stmdaeq	r0, {r4, r5, r6, r8, r9, sl, fp, ip}
 8001d70:	08001f90 	stmdaeq	r0, {r4, r7, r8, r9, sl, fp, ip}
 8001d74:	08001f18 	stmdaeq	r0, {r3, r4, r8, r9, sl, fp, ip}
 8001d78:	08001c5d 	stmdaeq	r0, {r0, r2, r3, r4, r6, sl, fp, ip}

08001d7c <_sbrk_r>:
 8001d7c:	b538      	push	{r3, r4, r5, lr}
 8001d7e:	4c06      	ldr	r4, [pc, #24]	; (8001d98 <_sbrk_r+0x1c>)
 8001d80:	2300      	movs	r3, #0
 8001d82:	4605      	mov	r5, r0
 8001d84:	4608      	mov	r0, r1
 8001d86:	6023      	str	r3, [r4, #0]
 8001d88:	f7fe ff6c 	bl	8000c64 <_sbrk>
 8001d8c:	1c43      	adds	r3, r0, #1
 8001d8e:	d102      	bne.n	8001d96 <_sbrk_r+0x1a>
 8001d90:	6823      	ldr	r3, [r4, #0]
 8001d92:	b103      	cbz	r3, 8001d96 <_sbrk_r+0x1a>
 8001d94:	602b      	str	r3, [r5, #0]
 8001d96:	bd38      	pop	{r3, r4, r5, pc}
 8001d98:	200000b4 	strhcs	r0, [r0], -r4

08001d9c <__sread>:
 8001d9c:	b510      	push	{r4, lr}
 8001d9e:	460c      	mov	r4, r1
 8001da0:	f9b1 100e 	ldrsh.w	r1, [r1, #14]
 8001da4:	f000 f89c 	bl	8001ee0 <_read_r>
 8001da8:	2800      	cmp	r0, #0
 8001daa:	db03      	blt.n	8001db4 <__sread+0x18>
 8001dac:	6d63      	ldr	r3, [r4, #84]	; 0x54
 8001dae:	4403      	add	r3, r0
 8001db0:	6563      	str	r3, [r4, #84]	; 0x54
 8001db2:	bd10      	pop	{r4, pc}
 8001db4:	89a3      	ldrh	r3, [r4, #12]
 8001db6:	f423 5380 	bic.w	r3, r3, #4096	; 0x1000
 8001dba:	81a3      	strh	r3, [r4, #12]
 8001dbc:	bd10      	pop	{r4, pc}

08001dbe <__swrite>:
 8001dbe:	e92d 41f0 	stmdb	sp!, {r4, r5, r6, r7, r8, lr}
 8001dc2:	461d      	mov	r5, r3
 8001dc4:	898b      	ldrh	r3, [r1, #12]
 8001dc6:	4607      	mov	r7, r0
 8001dc8:	05db      	lsls	r3, r3, #23
 8001dca:	460c      	mov	r4, r1
 8001dcc:	4616      	mov	r6, r2
 8001dce:	d505      	bpl.n	8001ddc <__swrite+0x1e>
 8001dd0:	f9b1 100e 	ldrsh.w	r1, [r1, #14]
 8001dd4:	2200      	movs	r2, #0
 8001dd6:	2302      	movs	r3, #2
 8001dd8:	f000 f870 	bl	8001ebc <_lseek_r>
 8001ddc:	89a3      	ldrh	r3, [r4, #12]
 8001dde:	4638      	mov	r0, r7
 8001de0:	f423 5380 	bic.w	r3, r3, #4096	; 0x1000
 8001de4:	81a3      	strh	r3, [r4, #12]
 8001de6:	f9b4 100e 	ldrsh.w	r1, [r4, #14]
 8001dea:	4632      	mov	r2, r6
 8001dec:	462b      	mov	r3, r5
 8001dee:	e8bd 41f0 	ldmia.w	sp!, {r4, r5, r6, r7, r8, lr}
 8001df2:	f000 b81f 	b.w	8001e34 <_write_r>

08001df6 <__sseek>:
 8001df6:	b510      	push	{r4, lr}
 8001df8:	460c      	mov	r4, r1
 8001dfa:	f9b1 100e 	ldrsh.w	r1, [r1, #14]
 8001dfe:	f000 f85d 	bl	8001ebc <_lseek_r>
 8001e02:	1c43      	adds	r3, r0, #1
 8001e04:	89a3      	ldrh	r3, [r4, #12]
 8001e06:	d103      	bne.n	8001e10 <__sseek+0x1a>
 8001e08:	f423 5380 	bic.w	r3, r3, #4096	; 0x1000
 8001e0c:	81a3      	strh	r3, [r4, #12]
 8001e0e:	bd10      	pop	{r4, pc}
 8001e10:	f443 5380 	orr.w	r3, r3, #4096	; 0x1000
 8001e14:	81a3      	strh	r3, [r4, #12]
 8001e16:	6560      	str	r0, [r4, #84]	; 0x54
 8001e18:	bd10      	pop	{r4, pc}

08001e1a <__sclose>:
 8001e1a:	f9b1 100e 	ldrsh.w	r1, [r1, #14]
 8001e1e:	f000 b81b 	b.w	8001e58 <_close_r>

08001e22 <strlen>:
 8001e22:	4603      	mov	r3, r0
 8001e24:	f813 2b01 	ldrb.w	r2, [r3], #1
 8001e28:	2a00      	cmp	r2, #0
 8001e2a:	d1fb      	bne.n	8001e24 <strlen+0x2>
 8001e2c:	1a18      	subs	r0, r3, r0
 8001e2e:	3801      	subs	r0, #1
 8001e30:	4770      	bx	lr
	...

08001e34 <_write_r>:
 8001e34:	b538      	push	{r3, r4, r5, lr}
 8001e36:	4c07      	ldr	r4, [pc, #28]	; (8001e54 <_write_r+0x20>)
 8001e38:	4605      	mov	r5, r0
 8001e3a:	2000      	movs	r0, #0
 8001e3c:	6020      	str	r0, [r4, #0]
 8001e3e:	4608      	mov	r0, r1
 8001e40:	4611      	mov	r1, r2
 8001e42:	461a      	mov	r2, r3
 8001e44:	f7fe ff8c 	bl	8000d60 <_write>
 8001e48:	1c43      	adds	r3, r0, #1
 8001e4a:	d102      	bne.n	8001e52 <_write_r+0x1e>
 8001e4c:	6823      	ldr	r3, [r4, #0]
 8001e4e:	b103      	cbz	r3, 8001e52 <_write_r+0x1e>
 8001e50:	602b      	str	r3, [r5, #0]
 8001e52:	bd38      	pop	{r3, r4, r5, pc}
 8001e54:	200000b4 	strhcs	r0, [r0], -r4

08001e58 <_close_r>:
 8001e58:	b538      	push	{r3, r4, r5, lr}
 8001e5a:	4c06      	ldr	r4, [pc, #24]	; (8001e74 <_close_r+0x1c>)
 8001e5c:	2300      	movs	r3, #0
 8001e5e:	4605      	mov	r5, r0
 8001e60:	4608      	mov	r0, r1
 8001e62:	6023      	str	r3, [r4, #0]
 8001e64:	f7fe ff1e 	bl	8000ca4 <_close>
 8001e68:	1c43      	adds	r3, r0, #1
 8001e6a:	d102      	bne.n	8001e72 <_close_r+0x1a>
 8001e6c:	6823      	ldr	r3, [r4, #0]
 8001e6e:	b103      	cbz	r3, 8001e72 <_close_r+0x1a>
 8001e70:	602b      	str	r3, [r5, #0]
 8001e72:	bd38      	pop	{r3, r4, r5, pc}
 8001e74:	200000b4 	strhcs	r0, [r0], -r4

08001e78 <_fstat_r>:
 8001e78:	b538      	push	{r3, r4, r5, lr}
 8001e7a:	4c07      	ldr	r4, [pc, #28]	; (8001e98 <_fstat_r+0x20>)
 8001e7c:	2300      	movs	r3, #0
 8001e7e:	4605      	mov	r5, r0
 8001e80:	4608      	mov	r0, r1
 8001e82:	4611      	mov	r1, r2
 8001e84:	6023      	str	r3, [r4, #0]
 8001e86:	f7fe ff19 	bl	8000cbc <_fstat>
 8001e8a:	1c43      	adds	r3, r0, #1
 8001e8c:	d102      	bne.n	8001e94 <_fstat_r+0x1c>
 8001e8e:	6823      	ldr	r3, [r4, #0]
 8001e90:	b103      	cbz	r3, 8001e94 <_fstat_r+0x1c>
 8001e92:	602b      	str	r3, [r5, #0]
 8001e94:	bd38      	pop	{r3, r4, r5, pc}
 8001e96:	bf00      	nop
 8001e98:	200000b4 	strhcs	r0, [r0], -r4

08001e9c <_isatty_r>:
 8001e9c:	b538      	push	{r3, r4, r5, lr}
 8001e9e:	4c06      	ldr	r4, [pc, #24]	; (8001eb8 <_isatty_r+0x1c>)
 8001ea0:	2300      	movs	r3, #0
 8001ea2:	4605      	mov	r5, r0
 8001ea4:	4608      	mov	r0, r1
 8001ea6:	6023      	str	r3, [r4, #0]
 8001ea8:	f7fe ff18 	bl	8000cdc <_isatty>
 8001eac:	1c43      	adds	r3, r0, #1
 8001eae:	d102      	bne.n	8001eb6 <_isatty_r+0x1a>
 8001eb0:	6823      	ldr	r3, [r4, #0]
 8001eb2:	b103      	cbz	r3, 8001eb6 <_isatty_r+0x1a>
 8001eb4:	602b      	str	r3, [r5, #0]
 8001eb6:	bd38      	pop	{r3, r4, r5, pc}
 8001eb8:	200000b4 	strhcs	r0, [r0], -r4

08001ebc <_lseek_r>:
 8001ebc:	b538      	push	{r3, r4, r5, lr}
 8001ebe:	4c07      	ldr	r4, [pc, #28]	; (8001edc <_lseek_r+0x20>)
 8001ec0:	4605      	mov	r5, r0
 8001ec2:	2000      	movs	r0, #0
 8001ec4:	6020      	str	r0, [r4, #0]
 8001ec6:	4608      	mov	r0, r1
 8001ec8:	4611      	mov	r1, r2
 8001eca:	461a      	mov	r2, r3
 8001ecc:	f7fe ff12 	bl	8000cf4 <_lseek>
 8001ed0:	1c43      	adds	r3, r0, #1
 8001ed2:	d102      	bne.n	8001eda <_lseek_r+0x1e>
 8001ed4:	6823      	ldr	r3, [r4, #0]
 8001ed6:	b103      	cbz	r3, 8001eda <_lseek_r+0x1e>
 8001ed8:	602b      	str	r3, [r5, #0]
 8001eda:	bd38      	pop	{r3, r4, r5, pc}
 8001edc:	200000b4 	strhcs	r0, [r0], -r4

08001ee0 <_read_r>:
 8001ee0:	b538      	push	{r3, r4, r5, lr}
 8001ee2:	4c07      	ldr	r4, [pc, #28]	; (8001f00 <_read_r+0x20>)
 8001ee4:	4605      	mov	r5, r0
 8001ee6:	2000      	movs	r0, #0
 8001ee8:	6020      	str	r0, [r4, #0]
 8001eea:	4608      	mov	r0, r1
 8001eec:	4611      	mov	r1, r2
 8001eee:	461a      	mov	r2, r3
 8001ef0:	f7fe ff0e 	bl	8000d10 <_read>
 8001ef4:	1c43      	adds	r3, r0, #1
 8001ef6:	d102      	bne.n	8001efe <_read_r+0x1e>
 8001ef8:	6823      	ldr	r3, [r4, #0]
 8001efa:	b103      	cbz	r3, 8001efe <_read_r+0x1e>
 8001efc:	602b      	str	r3, [r5, #0]
 8001efe:	bd38      	pop	{r3, r4, r5, pc}
 8001f00:	200000b4 	strhcs	r0, [r0], -r4
 8001f04:	746f6f42 	strbtvc	r6, [pc], #-3906	; 8001f0c <_read_r+0x2c>
 8001f08:	0000000d 	andeq	r0, r0, sp
 8001f0c:	64253d78 	strtvs	r3, [r5], #-3448	; 0xd78
 8001f10:	0000000d 	andeq	r0, r0, sp
 8001f14:	00000043 	andeq	r0, r0, r3, asr #32

08001f18 <_global_impure_ptr>:
 8001f18:	20000028 	andcs	r0, r0, r8, lsr #32
 8001f1c:	2b302d23 	blcs	8c0d3b0 <_sidata+0xc0b400>
 8001f20:	6c680020 	stclvs	0, cr0, [r8], #-128	; 0xffffff80
 8001f24:	6665004c 	strbtvs	r0, [r5], -ip, asr #32
 8001f28:	47464567 	strbmi	r4, [r6, -r7, ror #10]
 8001f2c:	32313000 	eorscc	r3, r1, #0
 8001f30:	36353433 			; <UNDEFINED> instruction: 0x36353433
 8001f34:	41393837 	teqmi	r9, r7, lsr r8
 8001f38:	45444342 	strbmi	r4, [r4, #-834]	; 0x342
 8001f3c:	31300046 	teqcc	r0, r6, asr #32
 8001f40:	35343332 	ldrcc	r3, [r4, #-818]!	; 0x332
 8001f44:	39383736 	ldmdbcc	r8!, {r1, r2, r4, r5, r8, r9, sl, ip, sp}
 8001f48:	64636261 	strbtvs	r6, [r3], #-609	; 0x261
 8001f4c:	00006665 	andeq	r6, r0, r5, ror #12

08001f50 <__sf_fake_stdin>:
	...

08001f70 <__sf_fake_stdout>:
	...

08001f90 <__sf_fake_stderr>:
	...

Disassembly of section .co_stack:

200000b8 <__end__>:
	...
